TN:
SF:/usr/include/c++/11/bits/allocator.h
FN:156,_ZNSaISt13_Rb_tree_nodeISt4pairIKmmEEEC2Ev
FNDA:0,_ZNSaISt13_Rb_tree_nodeISt4pairIKmmEEEC2Ev
FN:156,_ZNSaI4EdgeEC2Ev
FNDA:0,_ZNSaI4EdgeEC2Ev
FN:159,_ZNSaI4EdgeEC2ERKS0_
FNDA:0,_ZNSaI4EdgeEC2ERKS0_
FN:159,_ZNSaISt13_Rb_tree_nodeISt4pairIKmmEEEC2ERKS4_
FNDA:0,_ZNSaISt13_Rb_tree_nodeISt4pairIKmmEEEC2ERKS4_
FN:174,_ZNSaISt13_Rb_tree_nodeISt4pairIKmmEEED2Ev
FNDA:0,_ZNSaISt13_Rb_tree_nodeISt4pairIKmmEEED2Ev
FN:174,_ZNSaI4EdgeED2Ev
FNDA:0,_ZNSaI4EdgeED2Ev
DA:156,0
DA:156,0
DA:159,0
DA:160,0
DA:159,0
DA:160,0
DA:174,0
DA:174,0
end_of_record
SF:/usr/include/c++/11/bits/stl_algo.h
FN:813,_ZSt11__remove_ifIN9__gnu_cxx17__normal_iteratorIP4EdgeSt6vectorIS2_SaIS2_EEEENS0_5__ops16_Iter_equals_valIKS2_EEET_SC_SC_T0_
FNDA:4,_ZSt11__remove_ifIN9__gnu_cxx17__normal_iteratorIP4EdgeSt6vectorIS2_SaIS2_EEEENS0_5__ops16_Iter_equals_valIKS2_EEET_SC_SC_T0_
FN:850,_ZSt6removeIN9__gnu_cxx17__normal_iteratorIP4EdgeSt6vectorIS2_SaIS2_EEEES2_ET_S8_S8_RKT0_
FNDA:4,_ZSt6removeIN9__gnu_cxx17__normal_iteratorIP4EdgeSt6vectorIS2_SaIS2_EEEES2_ET_S8_S8_RKT0_
FN:3876,_ZSt4findIN9__gnu_cxx17__normal_iteratorIP4EdgeSt6vectorIS2_SaIS2_EEEES2_ET_S8_S8_RKT0_
FNDA:28,_ZSt4findIN9__gnu_cxx17__normal_iteratorIP4EdgeSt6vectorIS2_SaIS2_EEEES2_ET_S8_S8_RKT0_
DA:813,4
DA:816,4
DA:817,4
DA:818,0
DA:819,4
DA:820,4
DA:821,7
DA:822,3
DA:824,3
DA:825,3
DA:827,4
DA:850,4
DA:860,4
DA:861,4
DA:3876,28
DA:3884,28
DA:3885,28
end_of_record
SF:/usr/include/c++/11/new
FN:174,_ZnwmPv
FNDA:0,_ZnwmPv
FN:180,_ZdlPvS_
FNDA:0,_ZdlPvS_
DA:174,0
DA:175,0
DA:180,0
end_of_record
SF:/usr/include/c++/11/bits/stl_construct.h
FN:109,_ZSt10_ConstructI4EdgeJRKS0_EEvPT_DpOT0_
FNDA:0,_ZSt10_ConstructI4EdgeJRKS0_EEvPT_DpOT0_
FN:146,_ZSt8_DestroyI4EdgeEvPT_
FNDA:0,_ZSt8_DestroyI4EdgeEvPT_
FN:160,_ZNSt12_Destroy_auxILb0EE9__destroyIP4EdgeEEvT_S4_
FNDA:0,_ZNSt12_Destroy_auxILb0EE9__destroyIP4EdgeEEvT_S4_
FN:182,_ZSt8_DestroyIP4EdgeEvT_S2_
FNDA:0,_ZSt8_DestroyIP4EdgeEvT_S2_
DA:109,0
DA:119,0
DA:120,0
DA:146,0
DA:151,0
DA:153,0
DA:160,0
DA:162,0
DA:163,0
DA:164,0
DA:182,0
DA:196,0
DA:197,0
end_of_record
SF:/usr/include/c++/11/bits/stl_algobase.h
FN:230,_ZSt3minImERKT_S2_S2_
FNDA:0,_ZSt3minImERKT_S2_S2_
FN:254,_ZSt3maxImERKT_S2_S2_
FNDA:0,_ZSt3maxImERKT_S2_S2_
FN:328,_ZSt12__niter_wrapIN9__gnu_cxx17__normal_iteratorIP4EdgeSt6vectorIS2_SaIS2_EEEES3_ET_S8_T0_
FNDA:4,_ZSt12__niter_wrapIN9__gnu_cxx17__normal_iteratorIP4EdgeSt6vectorIS2_SaIS2_EEEES3_ET_S8_T0_
FN:400,_ZNSt11__copy_moveILb1ELb0ESt26random_access_iterator_tagE8__copy_mIP4EdgeS4_EET0_T_S6_S5_
FNDA:0,_ZNSt11__copy_moveILb1ELb0ESt26random_access_iterator_tagE8__copy_mIP4EdgeS4_EET0_T_S6_S5_
FN:486,_ZSt14__copy_move_a2ILb1EP4EdgeS1_ET1_T0_S3_S2_
FNDA:0,_ZSt14__copy_move_a2ILb1EP4EdgeS1_ET1_T0_S3_S2_
FN:521,_ZSt14__copy_move_a1ILb1EP4EdgeS1_ET1_T0_S3_S2_
FNDA:0,_ZSt14__copy_move_a1ILb1EP4EdgeS1_ET1_T0_S3_S2_
FN:527,_ZSt13__copy_move_aILb1EN9__gnu_cxx17__normal_iteratorIP4EdgeSt6vectorIS2_SaIS2_EEEES7_ET1_T0_S9_S8_
FNDA:0,_ZSt13__copy_move_aILb1EN9__gnu_cxx17__normal_iteratorIP4EdgeSt6vectorIS2_SaIS2_EEEES7_ET1_T0_S9_S8_
FN:644,_ZSt4moveIN9__gnu_cxx17__normal_iteratorIP4EdgeSt6vectorIS2_SaIS2_EEEES7_ET0_T_S9_S8_
FNDA:0,_ZSt4moveIN9__gnu_cxx17__normal_iteratorIP4EdgeSt6vectorIS2_SaIS2_EEEES7_ET0_T_S9_S8_
FN:2061,_ZSt9__find_ifIN9__gnu_cxx17__normal_iteratorIP4EdgeSt6vectorIS2_SaIS2_EEEENS0_5__ops16_Iter_equals_valIKS2_EEET_SC_SC_T0_St26random_access_iterator_tag
FNDA:32,_ZSt9__find_ifIN9__gnu_cxx17__normal_iteratorIP4EdgeSt6vectorIS2_SaIS2_EEEENS0_5__ops16_Iter_equals_valIKS2_EEET_SC_SC_T0_St26random_access_iterator_tag
FN:2112,_ZSt9__find_ifIN9__gnu_cxx17__normal_iteratorIP4EdgeSt6vectorIS2_SaIS2_EEEENS0_5__ops16_Iter_equals_valIKS2_EEET_SC_SC_T0_
FNDA:32,_ZSt9__find_ifIN9__gnu_cxx17__normal_iteratorIP4EdgeSt6vectorIS2_SaIS2_EEEENS0_5__ops16_Iter_equals_valIKS2_EEET_SC_SC_T0_
DA:230,0
DA:235,0
DA:236,0
DA:237,0
DA:254,0
DA:259,0
DA:260,0
DA:261,0
DA:328,4
DA:329,4
DA:400,0
DA:403,0
DA:405,0
DA:406,0
DA:407,0
DA:409,0
DA:486,0
DA:495,0
DA:521,0
DA:522,0
DA:527,0
DA:529,0
DA:532,0
DA:644,0
DA:652,0
DA:653,0
DA:2061,32
DA:2065,32
DA:2067,32
DA:2069,0
DA:2070,0
DA:2071,0
DA:2073,0
DA:2074,0
DA:2075,0
DA:2077,0
DA:2078,0
DA:2079,0
DA:2081,0
DA:2082,0
DA:2083,0
DA:2086,32
DA:2088,0
DA:2089,0
DA:2090,0
DA:2091,0
DA:2093,3
DA:2094,3
DA:2095,3
DA:2096,0
DA:2098,10
DA:2099,10
DA:2100,1
DA:2101,9
DA:2103,28
DA:2105,28
DA:2112,32
DA:2114,32
DA:2115,64
end_of_record
SF:/usr/include/c++/11/bits/vector.tcc
FN:184,_ZNSt6vectorI4EdgeSaIS0_EE8_M_eraseEN9__gnu_cxx17__normal_iteratorIPS0_S2_EES6_
FNDA:4,_ZNSt6vectorI4EdgeSaIS0_EE8_M_eraseEN9__gnu_cxx17__normal_iteratorIPS0_S2_EES6_
FN:426,_ZNSt6vectorI4EdgeSaIS0_EE17_M_realloc_insertIJRKS0_EEEvN9__gnu_cxx17__normal_iteratorIPS0_S2_EEDpOT_
FNDA:64,_ZNSt6vectorI4EdgeSaIS0_EE17_M_realloc_insertIJRKS0_EEEvN9__gnu_cxx17__normal_iteratorIPS0_S2_EEDpOT_
DA:184,4
DA:187,4
DA:189,4
DA:190,0
DA:191,4
DA:193,4
DA:426,64
DA:436,64
DA:437,64
DA:438,64
DA:439,64
DA:440,64
DA:441,64
DA:449,64
DA:450,64
DA:456,64
DA:474,64
DA:475,64
DA:477,64
DA:481,64
DA:482,64
DA:485,0
DA:487,0
DA:488,0
DA:489,0
DA:491,0
DA:492,0
DA:493,0
DA:498,64
DA:500,64
DA:501,64
DA:502,64
DA:503,64
DA:504,64
DA:505,64
end_of_record
SF:/usr/include/c++/11/bits/cpp_type_traits.h
FN:560,_ZSt12__miter_baseIN9__gnu_cxx17__normal_iteratorIP4EdgeSt6vectorIS2_SaIS2_EEEEET_S8_
FNDA:8,_ZSt12__miter_baseIN9__gnu_cxx17__normal_iteratorIP4EdgeSt6vectorIS2_SaIS2_EEEEET_S8_
DA:560,8
DA:561,8
end_of_record
SF:/usr/include/c++/11/bits/stl_tree.h
FN:112,_ZNSt18_Rb_tree_node_base10_S_minimumEPS_
FNDA:0,_ZNSt18_Rb_tree_node_base10_S_minimumEPS_
FN:126,_ZNSt18_Rb_tree_node_base10_S_maximumEPS_
FNDA:0,_ZNSt18_Rb_tree_node_base10_S_maximumEPS_
FN:146,_ZNSt20_Rb_tree_key_compareISt4lessImEEC2Ev
FNDA:0,_ZNSt20_Rb_tree_key_compareISt4lessImEEC2Ev
FN:152,_ZNSt20_Rb_tree_key_compareISt4lessImEEC2ERKS1_
FNDA:0,_ZNSt20_Rb_tree_key_compareISt4lessImEEC2ERKS1_
FN:173,_ZNSt15_Rb_tree_headerC2Ev
FNDA:0,_ZNSt15_Rb_tree_headerC2Ev
FN:206,_ZNSt15_Rb_tree_header8_M_resetEv
FNDA:0,_ZNSt15_Rb_tree_header8_M_resetEv
FN:234,_ZNSt13_Rb_tree_nodeISt4pairIKmmEE9_M_valptrEv
FNDA:0,_ZNSt13_Rb_tree_nodeISt4pairIKmmEE9_M_valptrEv
FN:238,_ZNKSt13_Rb_tree_nodeISt4pairIKmmEE9_M_valptrEv
FNDA:0,_ZNKSt13_Rb_tree_nodeISt4pairIKmmEE9_M_valptrEv
FN:273,_ZNSt17_Rb_tree_iteratorISt4pairIKmmEEC2EPSt18_Rb_tree_node_base
FNDA:0,_ZNSt17_Rb_tree_iteratorISt4pairIKmmEEC2EPSt18_Rb_tree_node_base
FN:350,_ZNSt23_Rb_tree_const_iteratorISt4pairIKmmEEC2ERKSt17_Rb_tree_iteratorIS2_E
FNDA:0,_ZNSt23_Rb_tree_const_iteratorISt4pairIKmmEEC2ERKSt17_Rb_tree_iteratorIS2_E
FN:373,_ZNSt23_Rb_tree_const_iteratorISt4pairIKmmEEppEi
FNDA:0,_ZNSt23_Rb_tree_const_iteratorISt4pairIKmmEEppEi
FN:396,_ZSteqRKSt23_Rb_tree_const_iteratorISt4pairIKmmEES5_
FNDA:0,_ZSteqRKSt23_Rb_tree_const_iteratorISt4pairIKmmEES5_
FN:401,_ZStneRKSt23_Rb_tree_const_iteratorISt4pairIKmmEES5_
FNDA:0,_ZStneRKSt23_Rb_tree_const_iteratorISt4pairIKmmEES5_
FN:523,_ZNSt8_Rb_treeImSt4pairIKmmESt10_Select1stIS2_ESt4lessImESaIS2_EE11_Alloc_nodeC2ERS8_
FNDA:0,_ZNSt8_Rb_treeImSt4pairIKmmESt10_Select1stIS2_ESt4lessImESaIS2_EE11_Alloc_nodeC2ERS8_
FN:528,_ZNKSt8_Rb_treeImSt4pairIKmmESt10_Select1stIS2_ESt4lessImESaIS2_EE11_Alloc_nodeclIRKS2_EEPSt13_Rb_tree_nodeIS2_EOT_
FNDA:0,_ZNKSt8_Rb_treeImSt4pairIKmmESt10_Select1stIS2_ESt4lessImESaIS2_EE11_Alloc_nodeclIRKS2_EEPSt13_Rb_tree_nodeIS2_EOT_
FN:547,_ZNSt8_Rb_treeImSt4pairIKmmESt10_Select1stIS2_ESt4lessImESaIS2_EE21_M_get_Node_allocatorEv
FNDA:0,_ZNSt8_Rb_treeImSt4pairIKmmESt10_Select1stIS2_ESt4lessImESaIS2_EE21_M_get_Node_allocatorEv
FN:560,_ZNSt8_Rb_treeImSt4pairIKmmESt10_Select1stIS2_ESt4lessImESaIS2_EE11_M_get_nodeEv
FNDA:0,_ZNSt8_Rb_treeImSt4pairIKmmESt10_Select1stIS2_ESt4lessImESaIS2_EE11_M_get_nodeEv
FN:564,_ZNSt8_Rb_treeImSt4pairIKmmESt10_Select1stIS2_ESt4lessImESaIS2_EE11_M_put_nodeEPSt13_Rb_tree_nodeIS2_E
FNDA:0,_ZNSt8_Rb_treeImSt4pairIKmmESt10_Select1stIS2_ESt4lessImESaIS2_EE11_M_put_nodeEPSt13_Rb_tree_nodeIS2_E
FN:590,_ZNSt8_Rb_treeImSt4pairIKmmESt10_Select1stIS2_ESt4lessImESaIS2_EE17_M_construct_nodeIJRKS2_EEEvPSt13_Rb_tree_nodeIS2_EDpOT_
FNDA:0,_ZNSt8_Rb_treeImSt4pairIKmmESt10_Select1stIS2_ESt4lessImESaIS2_EE17_M_construct_nodeIJRKS2_EEEvPSt13_Rb_tree_nodeIS2_EDpOT_
FN:609,_ZNSt8_Rb_treeImSt4pairIKmmESt10_Select1stIS2_ESt4lessImESaIS2_EE14_M_create_nodeIJRKS2_EEEPSt13_Rb_tree_nodeIS2_EDpOT_
FNDA:0,_ZNSt8_Rb_treeImSt4pairIKmmESt10_Select1stIS2_ESt4lessImESaIS2_EE14_M_create_nodeIJRKS2_EEEPSt13_Rb_tree_nodeIS2_EDpOT_
FN:618,_ZNSt8_Rb_treeImSt4pairIKmmESt10_Select1stIS2_ESt4lessImESaIS2_EE15_M_destroy_nodeEPSt13_Rb_tree_nodeIS2_E
FNDA:0,_ZNSt8_Rb_treeImSt4pairIKmmESt10_Select1stIS2_ESt4lessImESaIS2_EE15_M_destroy_nodeEPSt13_Rb_tree_nodeIS2_E
FN:629,_ZNSt8_Rb_treeImSt4pairIKmmESt10_Select1stIS2_ESt4lessImESaIS2_EE12_M_drop_nodeEPSt13_Rb_tree_nodeIS2_E
FNDA:0,_ZNSt8_Rb_treeImSt4pairIKmmESt10_Select1stIS2_ESt4lessImESaIS2_EE12_M_drop_nodeEPSt13_Rb_tree_nodeIS2_E
FN:637,_ZNSt8_Rb_treeImSt4pairIKmmESt10_Select1stIS2_ESt4lessImESaIS2_EE13_M_clone_nodeILb0ENS8_11_Alloc_nodeEEEPSt13_Rb_tree_nodeIS2_ESD_RT0_
FNDA:0,_ZNSt8_Rb_treeImSt4pairIKmmESt10_Select1stIS2_ESt4lessImESaIS2_EE13_M_clone_nodeILb0ENS8_11_Alloc_nodeEEEPSt13_Rb_tree_nodeIS2_ESD_RT0_
FN:667,_ZNSt8_Rb_treeImSt4pairIKmmESt10_Select1stIS2_ESt4lessImESaIS2_EE13_Rb_tree_implIS6_Lb1EEC2Ev
FNDA:0,_ZNSt8_Rb_treeImSt4pairIKmmESt10_Select1stIS2_ESt4lessImESaIS2_EE13_Rb_tree_implIS6_Lb1EEC2Ev
FN:674,_ZNSt8_Rb_treeImSt4pairIKmmESt10_Select1stIS2_ESt4lessImESaIS2_EE13_Rb_tree_implIS6_Lb1EEC2ERKSA_
FNDA:0,_ZNSt8_Rb_treeImSt4pairIKmmESt10_Select1stIS2_ESt4lessImESaIS2_EE13_Rb_tree_implIS6_Lb1EEC2ERKSA_
FN:710,_ZNSt8_Rb_treeImSt4pairIKmmESt10_Select1stIS2_ESt4lessImESaIS2_EE7_M_rootEv
FNDA:0,_ZNSt8_Rb_treeImSt4pairIKmmESt10_Select1stIS2_ESt4lessImESaIS2_EE7_M_rootEv
FN:714,_ZNKSt8_Rb_treeImSt4pairIKmmESt10_Select1stIS2_ESt4lessImESaIS2_EE7_M_rootEv
FNDA:0,_ZNKSt8_Rb_treeImSt4pairIKmmESt10_Select1stIS2_ESt4lessImESaIS2_EE7_M_rootEv
FN:718,_ZNSt8_Rb_treeImSt4pairIKmmESt10_Select1stIS2_ESt4lessImESaIS2_EE11_M_leftmostEv
FNDA:0,_ZNSt8_Rb_treeImSt4pairIKmmESt10_Select1stIS2_ESt4lessImESaIS2_EE11_M_leftmostEv
FN:726,_ZNSt8_Rb_treeImSt4pairIKmmESt10_Select1stIS2_ESt4lessImESaIS2_EE12_M_rightmostEv
FNDA:0,_ZNSt8_Rb_treeImSt4pairIKmmESt10_Select1stIS2_ESt4lessImESaIS2_EE12_M_rightmostEv
FN:734,_ZNKSt8_Rb_treeImSt4pairIKmmESt10_Select1stIS2_ESt4lessImESaIS2_EE9_M_mbeginEv
FNDA:0,_ZNKSt8_Rb_treeImSt4pairIKmmESt10_Select1stIS2_ESt4lessImESaIS2_EE9_M_mbeginEv
FN:738,_ZNSt8_Rb_treeImSt4pairIKmmESt10_Select1stIS2_ESt4lessImESaIS2_EE8_M_beginEv
FNDA:0,_ZNSt8_Rb_treeImSt4pairIKmmESt10_Select1stIS2_ESt4lessImESaIS2_EE8_M_beginEv
FN:749,_ZNSt8_Rb_treeImSt4pairIKmmESt10_Select1stIS2_ESt4lessImESaIS2_EE6_M_endEv
FNDA:0,_ZNSt8_Rb_treeImSt4pairIKmmESt10_Select1stIS2_ESt4lessImESaIS2_EE6_M_endEv
FN:757,_ZNSt8_Rb_treeImSt4pairIKmmESt10_Select1stIS2_ESt4lessImESaIS2_EE6_S_keyEPKSt13_Rb_tree_nodeIS2_E
FNDA:0,_ZNSt8_Rb_treeImSt4pairIKmmESt10_Select1stIS2_ESt4lessImESaIS2_EE6_S_keyEPKSt13_Rb_tree_nodeIS2_E
FN:779,_ZNSt8_Rb_treeImSt4pairIKmmESt10_Select1stIS2_ESt4lessImESaIS2_EE7_S_leftEPSt18_Rb_tree_node_base
FNDA:0,_ZNSt8_Rb_treeImSt4pairIKmmESt10_Select1stIS2_ESt4lessImESaIS2_EE7_S_leftEPSt18_Rb_tree_node_base
FN:787,_ZNSt8_Rb_treeImSt4pairIKmmESt10_Select1stIS2_ESt4lessImESaIS2_EE8_S_rightEPSt18_Rb_tree_node_base
FNDA:0,_ZNSt8_Rb_treeImSt4pairIKmmESt10_Select1stIS2_ESt4lessImESaIS2_EE8_S_rightEPSt18_Rb_tree_node_base
FN:799,_ZNSt8_Rb_treeImSt4pairIKmmESt10_Select1stIS2_ESt4lessImESaIS2_EE10_S_minimumEPSt18_Rb_tree_node_base
FNDA:0,_ZNSt8_Rb_treeImSt4pairIKmmESt10_Select1stIS2_ESt4lessImESaIS2_EE10_S_minimumEPSt18_Rb_tree_node_base
FN:807,_ZNSt8_Rb_treeImSt4pairIKmmESt10_Select1stIS2_ESt4lessImESaIS2_EE10_S_maximumEPSt18_Rb_tree_node_base
FNDA:0,_ZNSt8_Rb_treeImSt4pairIKmmESt10_Select1stIS2_ESt4lessImESaIS2_EE10_S_maximumEPSt18_Rb_tree_node_base
FN:887,_ZNSt8_Rb_treeImSt4pairIKmmESt10_Select1stIS2_ESt4lessImESaIS2_EE7_M_copyILb0ENS8_11_Alloc_nodeEEEPSt13_Rb_tree_nodeIS2_ERKS8_RT0_
FNDA:0,_ZNSt8_Rb_treeImSt4pairIKmmESt10_Select1stIS2_ESt4lessImESaIS2_EE7_M_copyILb0ENS8_11_Alloc_nodeEEEPSt13_Rb_tree_nodeIS2_ERKS8_RT0_
FN:898,_ZNSt8_Rb_treeImSt4pairIKmmESt10_Select1stIS2_ESt4lessImESaIS2_EE7_M_copyERKS8_
FNDA:0,_ZNSt8_Rb_treeImSt4pairIKmmESt10_Select1stIS2_ESt4lessImESaIS2_EE7_M_copyERKS8_
FN:928,_ZNSt8_Rb_treeImSt4pairIKmmESt10_Select1stIS2_ESt4lessImESaIS2_EEC2Ev
FNDA:0,_ZNSt8_Rb_treeImSt4pairIKmmESt10_Select1stIS2_ESt4lessImESaIS2_EEC2Ev
FN:935,_ZNSt8_Rb_treeImSt4pairIKmmESt10_Select1stIS2_ESt4lessImESaIS2_EEC2ERKS8_
FNDA:0,_ZNSt8_Rb_treeImSt4pairIKmmESt10_Select1stIS2_ESt4lessImESaIS2_EEC2ERKS8_
FN:983,_ZNSt8_Rb_treeImSt4pairIKmmESt10_Select1stIS2_ESt4lessImESaIS2_EED2Ev
FNDA:0,_ZNSt8_Rb_treeImSt4pairIKmmESt10_Select1stIS2_ESt4lessImESaIS2_EED2Ev
FN:995,_ZNSt8_Rb_treeImSt4pairIKmmESt10_Select1stIS2_ESt4lessImESaIS2_EE5beginEv
FNDA:0,_ZNSt8_Rb_treeImSt4pairIKmmESt10_Select1stIS2_ESt4lessImESaIS2_EE5beginEv
FN:1003,_ZNSt8_Rb_treeImSt4pairIKmmESt10_Select1stIS2_ESt4lessImESaIS2_EE3endEv
FNDA:0,_ZNSt8_Rb_treeImSt4pairIKmmESt10_Select1stIS2_ESt4lessImESaIS2_EE3endEv
FN:1031,_ZNKSt8_Rb_treeImSt4pairIKmmESt10_Select1stIS2_ESt4lessImESaIS2_EE4sizeEv
FNDA:0,_ZNKSt8_Rb_treeImSt4pairIKmmESt10_Select1stIS2_ESt4lessImESaIS2_EE4sizeEv
FN:1252,_ZNSt8_Rb_treeImSt4pairIKmmESt10_Select1stIS2_ESt4lessImESaIS2_EE5clearEv
FNDA:0,_ZNSt8_Rb_treeImSt4pairIKmmESt10_Select1stIS2_ESt4lessImESaIS2_EE5clearEv
FN:1845,_ZNSt8_Rb_treeImSt4pairIKmmESt10_Select1stIS2_ESt4lessImESaIS2_EE7_M_copyILb0ENS8_11_Alloc_nodeEEEPSt13_Rb_tree_nodeIS2_ESD_PSt18_Rb_tree_node_baseRT0_
FNDA:0,_ZNSt8_Rb_treeImSt4pairIKmmESt10_Select1stIS2_ESt4lessImESaIS2_EE7_M_copyILb0ENS8_11_Alloc_nodeEEEPSt13_Rb_tree_nodeIS2_ESD_PSt18_Rb_tree_node_baseRT0_
FN:1883,_ZNSt8_Rb_treeImSt4pairIKmmESt10_Select1stIS2_ESt4lessImESaIS2_EE8_M_eraseEPSt13_Rb_tree_nodeIS2_E
FNDA:0,_ZNSt8_Rb_treeImSt4pairIKmmESt10_Select1stIS2_ESt4lessImESaIS2_EE8_M_eraseEPSt13_Rb_tree_nodeIS2_E
FN:1900,_ZNSt8_Rb_treeImSt4pairIKmmESt10_Select1stIS2_ESt4lessImESaIS2_EE14_M_lower_boundEPSt13_Rb_tree_nodeIS2_EPSt18_Rb_tree_node_baseRS1_
FNDA:0,_ZNSt8_Rb_treeImSt4pairIKmmESt10_Select1stIS2_ESt4lessImESaIS2_EE14_M_lower_boundEPSt13_Rb_tree_nodeIS2_EPSt18_Rb_tree_node_baseRS1_
FN:1932,_ZNSt8_Rb_treeImSt4pairIKmmESt10_Select1stIS2_ESt4lessImESaIS2_EE14_M_upper_boundEPSt13_Rb_tree_nodeIS2_EPSt18_Rb_tree_node_baseRS1_
FNDA:0,_ZNSt8_Rb_treeImSt4pairIKmmESt10_Select1stIS2_ESt4lessImESaIS2_EE14_M_upper_boundEPSt13_Rb_tree_nodeIS2_EPSt18_Rb_tree_node_baseRS1_
FN:1966,_ZNSt8_Rb_treeImSt4pairIKmmESt10_Select1stIS2_ESt4lessImESaIS2_EE11equal_rangeERS1_
FNDA:0,_ZNSt8_Rb_treeImSt4pairIKmmESt10_Select1stIS2_ESt4lessImESaIS2_EE11equal_rangeERS1_
FN:2480,_ZNSt8_Rb_treeImSt4pairIKmmESt10_Select1stIS2_ESt4lessImESaIS2_EE12_M_erase_auxESt23_Rb_tree_const_iteratorIS2_E
FNDA:0,_ZNSt8_Rb_treeImSt4pairIKmmESt10_Select1stIS2_ESt4lessImESaIS2_EE12_M_erase_auxESt23_Rb_tree_const_iteratorIS2_E
FN:2494,_ZNSt8_Rb_treeImSt4pairIKmmESt10_Select1stIS2_ESt4lessImESaIS2_EE12_M_erase_auxESt23_Rb_tree_const_iteratorIS2_ESA_
FNDA:0,_ZNSt8_Rb_treeImSt4pairIKmmESt10_Select1stIS2_ESt4lessImESaIS2_EE12_M_erase_auxESt23_Rb_tree_const_iteratorIS2_ESA_
FN:2507,_ZNSt8_Rb_treeImSt4pairIKmmESt10_Select1stIS2_ESt4lessImESaIS2_EE5eraseERS1_
FNDA:0,_ZNSt8_Rb_treeImSt4pairIKmmESt10_Select1stIS2_ESt4lessImESaIS2_EE5eraseERS1_
DA:112,0
DA:114,0
DA:115,0
DA:126,0
DA:128,0
DA:129,0
DA:146,0
DA:150,0
DA:152,0
DA:154,0
DA:173,0
DA:174,0
DA:175,0
DA:176,0
DA:177,0
DA:206,0
DA:208,0
DA:209,0
DA:210,0
DA:211,0
DA:212,0
DA:234,0
DA:235,0
DA:238,0
DA:239,0
DA:273,0
DA:274,0
DA:350,0
DA:351,0
DA:373,0
DA:375,0
DA:376,0
DA:377,0
DA:396,0
DA:397,0
DA:401,0
DA:402,0
DA:523,0
DA:524,0
DA:528,0
DA:529,0
DA:547,0
DA:548,0
DA:560,0
DA:561,0
DA:564,0
DA:565,0
DA:590,0
DA:594,0
DA:595,0
DA:605,0
DA:609,0
DA:611,0
DA:612,0
DA:613,0
DA:618,0
DA:623,0
DA:624,0
DA:626,0
DA:629,0
DA:631,0
DA:632,0
DA:633,0
DA:637,0
DA:645,0
DA:646,0
DA:647,0
DA:648,0
DA:649,0
DA:667,0
DA:671,0
DA:672,0
DA:674,0
DA:676,0
DA:677,0
DA:678,0
DA:710,0
DA:711,0
DA:714,0
DA:715,0
DA:718,0
DA:719,0
DA:726,0
DA:727,0
DA:734,0
DA:735,0
DA:738,0
DA:739,0
DA:749,0
DA:750,0
DA:757,0
DA:775,0
DA:779,0
DA:780,0
DA:787,0
DA:788,0
DA:799,0
DA:800,0
DA:807,0
DA:808,0
DA:887,0
DA:890,0
DA:891,0
DA:892,0
DA:893,0
DA:894,0
DA:898,0
DA:900,0
DA:901,0
DA:928,0
DA:935,0
DA:936,0
DA:938,0
DA:939,0
DA:940,0
DA:983,0
DA:984,0
DA:995,0
DA:996,0
DA:1003,0
DA:1004,0
DA:1031,0
DA:1032,0
DA:1252,0
DA:1254,0
DA:1255,0
DA:1256,0
DA:1845,0
DA:1849,0
DA:1850,0
DA:1854,0
DA:1855,0
DA:1856,0
DA:1857,0
DA:1858,0
DA:1860,0
DA:1862,0
DA:1863,0
DA:1864,0
DA:1865,0
DA:1866,0
DA:1868,0
DA:1869,0
DA:1872,0
DA:1874,0
DA:1875,0
DA:1877,0
DA:1883,0
DA:1887,0
DA:1889,0
DA:1890,0
DA:1891,0
DA:1892,0
DA:1894,0
DA:1900,0
DA:1904,0
DA:1905,0
DA:1906,0
DA:1908,0
DA:1909,0
DA:1932,0
DA:1936,0
DA:1937,0
DA:1938,0
DA:1940,0
DA:1941,0
DA:1966,0
DA:1969,0
DA:1970,0
DA:1971,0
DA:1973,0
DA:1974,0
DA:1975,0
DA:1976,0
DA:1979,0
DA:1980,0
DA:1981,0
DA:1982,0
DA:1983,0
DA:1984,0
DA:1985,0
DA:1988,0
DA:1989,0
DA:2480,0
DA:2485,0
DA:2486,0
DA:2487,0
DA:2488,0
DA:2489,0
DA:2494,0
DA:2497,0
DA:2498,0
DA:2500,0
DA:2501,0
DA:2502,0
DA:2507,0
DA:2510,0
DA:2511,0
DA:2512,0
DA:2513,0
end_of_record
SF:/usr/include/c++/11/bits/stl_uninitialized.h
FN:85,_ZNSt20__uninitialized_copyILb0EE13__uninit_copyIPK4EdgePS2_EET0_T_S7_S6_
FNDA:128,_ZNSt20__uninitialized_copyILb0EE13__uninit_copyIPK4EdgePS2_EET0_T_S7_S6_
FN:85,_ZNSt20__uninitialized_copyILb0EE13__uninit_copyIN9__gnu_cxx17__normal_iteratorIPK4EdgeSt6vectorIS4_SaIS4_EEEEPS4_EET0_T_SD_SC_
FNDA:0,_ZNSt20__uninitialized_copyILb0EE13__uninit_copyIN9__gnu_cxx17__normal_iteratorIPK4EdgeSt6vectorIS4_SaIS4_EEEEPS4_EET0_T_SD_SC_
FN:126,_ZSt18uninitialized_copyIPK4EdgePS0_ET0_T_S5_S4_
FNDA:128,_ZSt18uninitialized_copyIPK4EdgePS0_ET0_T_S5_S4_
FN:126,_ZSt18uninitialized_copyIN9__gnu_cxx17__normal_iteratorIPK4EdgeSt6vectorIS2_SaIS2_EEEEPS2_ET0_T_SB_SA_
FNDA:0,_ZSt18uninitialized_copyIN9__gnu_cxx17__normal_iteratorIPK4EdgeSt6vectorIS2_SaIS2_EEEEPS2_ET0_T_SB_SA_
FN:331,_ZSt22__uninitialized_copy_aIPK4EdgePS0_S0_ET0_T_S5_S4_RSaIT1_E
FNDA:128,_ZSt22__uninitialized_copy_aIPK4EdgePS0_S0_ET0_T_S5_S4_RSaIT1_E
FN:331,_ZSt22__uninitialized_copy_aIN9__gnu_cxx17__normal_iteratorIPK4EdgeSt6vectorIS2_SaIS2_EEEEPS2_S2_ET0_T_SB_SA_RSaIT1_E
FNDA:0,_ZSt22__uninitialized_copy_aIN9__gnu_cxx17__normal_iteratorIPK4EdgeSt6vectorIS2_SaIS2_EEEEPS2_S2_ET0_T_SB_SA_RSaIT1_E
FN:349,_ZSt34__uninitialized_move_if_noexcept_aIP4EdgeS1_SaIS0_EET0_T_S4_S3_RT1_
FNDA:128,_ZSt34__uninitialized_move_if_noexcept_aIP4EdgeS1_SaIS0_EET0_T_S4_S3_RT1_
DA:85,128
DA:88,128
DA:91,161
DA:92,33
DA:93,128
DA:95,0
DA:97,0
DA:98,0
DA:85,0
DA:88,0
DA:91,0
DA:92,0
DA:93,0
DA:95,0
DA:97,0
DA:98,0
DA:126,128
DA:145,128
DA:151,128
DA:126,0
DA:145,0
DA:151,0
DA:331,128
DA:333,128
DA:331,0
DA:333,0
DA:349,128
DA:355,128
DA:356,128
end_of_record
SF:/usr/include/c++/11/bits/stl_map.h
FN:185,_ZNSt3mapImmSt4lessImESaISt4pairIKmmEEEC2Ev
FNDA:0,_ZNSt3mapImmSt4lessImESaISt4pairIKmmEEEC2Ev
FN:207,_ZNSt3mapImmSt4lessImESaISt4pairIKmmEEEC2ERKS6_
FNDA:0,_ZNSt3mapImmSt4lessImESaISt4pairIKmmEEEC2ERKS6_
FN:302,_ZNSt3mapImmSt4lessImESaISt4pairIKmmEEED2Ev
FNDA:0,_ZNSt3mapImmSt4lessImESaISt4pairIKmmEEED2Ev
FN:356,_ZNSt3mapImmSt4lessImESaISt4pairIKmmEEE5beginEv
FNDA:3,_ZNSt3mapImmSt4lessImESaISt4pairIKmmEEE5beginEv
FN:374,_ZNSt3mapImmSt4lessImESaISt4pairIKmmEEE3endEv
FNDA:0,_ZNSt3mapImmSt4lessImESaISt4pairIKmmEEE3endEv
FN:1068,_ZNSt3mapImmSt4lessImESaISt4pairIKmmEEE5eraseERS3_
FNDA:0,_ZNSt3mapImmSt4lessImESaISt4pairIKmmEEE5eraseERS3_
FN:1133,_ZNSt3mapImmSt4lessImESaISt4pairIKmmEEE5clearEv
FNDA:0,_ZNSt3mapImmSt4lessImESaISt4pairIKmmEEE5clearEv
DA:185,0
DA:207,0
DA:302,0
DA:356,3
DA:357,3
DA:374,0
DA:375,0
DA:1068,0
DA:1069,0
DA:1133,0
DA:1134,0
end_of_record
SF:/usr/include/c++/11/ext/alloc_traits.h
FN:97,_ZN9__gnu_cxx14__alloc_traitsISaISt13_Rb_tree_nodeISt4pairIKmmEEES5_E17_S_select_on_copyERKS6_
FNDA:0,_ZN9__gnu_cxx14__alloc_traitsISaISt13_Rb_tree_nodeISt4pairIKmmEEES5_E17_S_select_on_copyERKS6_
FN:97,_ZN9__gnu_cxx14__alloc_traitsISaI4EdgeES1_E17_S_select_on_copyERKS2_
FNDA:0,_ZN9__gnu_cxx14__alloc_traitsISaI4EdgeES1_E17_S_select_on_copyERKS2_
DA:97,0
DA:98,0
DA:97,0
DA:98,0
end_of_record
SF:/usr/include/c++/11/bits/stl_iterator.h
FN:1027,_ZN9__gnu_cxx17__normal_iteratorIPK4EdgeSt6vectorIS1_SaIS1_EEEC2ERKS3_
FNDA:0,_ZN9__gnu_cxx17__normal_iteratorIPK4EdgeSt6vectorIS1_SaIS1_EEEC2ERKS3_
FN:1027,_ZN9__gnu_cxx17__normal_iteratorIP4EdgeSt6vectorIS1_SaIS1_EEEC2ERKS2_
FNDA:276,_ZN9__gnu_cxx17__normal_iteratorIP4EdgeSt6vectorIS1_SaIS1_EEEC2ERKS2_
FN:1033,_ZN9__gnu_cxx17__normal_iteratorIPK4EdgeSt6vectorIS1_SaIS1_EEEC2IPS1_EERKNS0_IT_NS_11__enable_ifIXsrSt10__are_sameISA_S9_E7__valueES6_E6__typeEEE
FNDA:8,_ZN9__gnu_cxx17__normal_iteratorIPK4EdgeSt6vectorIS1_SaIS1_EEEC2IPS1_EERKNS0_IT_NS_11__enable_ifIXsrSt10__are_sameISA_S9_E7__valueES6_E6__typeEEE
FN:1042,_ZNK9__gnu_cxx17__normal_iteratorIP4EdgeSt6vectorIS1_SaIS1_EEEdeEv
FNDA:0,_ZNK9__gnu_cxx17__normal_iteratorIP4EdgeSt6vectorIS1_SaIS1_EEEdeEv
FN:1042,_ZNK9__gnu_cxx17__normal_iteratorIPK4EdgeSt6vectorIS1_SaIS1_EEEdeEv
FNDA:0,_ZNK9__gnu_cxx17__normal_iteratorIPK4EdgeSt6vectorIS1_SaIS1_EEEdeEv
FN:1052,_ZN9__gnu_cxx17__normal_iteratorIPK4EdgeSt6vectorIS1_SaIS1_EEEppEv
FNDA:0,_ZN9__gnu_cxx17__normal_iteratorIPK4EdgeSt6vectorIS1_SaIS1_EEEppEv
FN:1052,_ZN9__gnu_cxx17__normal_iteratorIP4EdgeSt6vectorIS1_SaIS1_EEEppEv
FNDA:0,_ZN9__gnu_cxx17__normal_iteratorIP4EdgeSt6vectorIS1_SaIS1_EEEppEv
FN:1090,_ZNK9__gnu_cxx17__normal_iteratorIP4EdgeSt6vectorIS1_SaIS1_EEEplEl
FNDA:18,_ZNK9__gnu_cxx17__normal_iteratorIP4EdgeSt6vectorIS1_SaIS1_EEEplEl
FN:1105,_ZNK9__gnu_cxx17__normal_iteratorIPK4EdgeSt6vectorIS1_SaIS1_EEE4baseEv
FNDA:0,_ZNK9__gnu_cxx17__normal_iteratorIPK4EdgeSt6vectorIS1_SaIS1_EEE4baseEv
FN:1105,_ZNK9__gnu_cxx17__normal_iteratorIP4EdgeSt6vectorIS1_SaIS1_EEE4baseEv
FNDA:0,_ZNK9__gnu_cxx17__normal_iteratorIP4EdgeSt6vectorIS1_SaIS1_EEE4baseEv
FN:1163,_ZN9__gnu_cxxeqIP4EdgeSt6vectorIS1_SaIS1_EEEEbRKNS_17__normal_iteratorIT_T0_EESB_
FNDA:34,_ZN9__gnu_cxxeqIP4EdgeSt6vectorIS1_SaIS1_EEEEbRKNS_17__normal_iteratorIT_T0_EESB_
FN:1179,_ZN9__gnu_cxxneIP4EdgeSt6vectorIS1_SaIS1_EEEEbRKNS_17__normal_iteratorIT_T0_EESB_
FNDA:0,_ZN9__gnu_cxxneIP4EdgeSt6vectorIS1_SaIS1_EEEEbRKNS_17__normal_iteratorIT_T0_EESB_
FN:1179,_ZN9__gnu_cxxneIPK4EdgeSt6vectorIS1_SaIS1_EEEEbRKNS_17__normal_iteratorIT_T0_EESC_
FNDA:0,_ZN9__gnu_cxxneIPK4EdgeSt6vectorIS1_SaIS1_EEEEbRKNS_17__normal_iteratorIT_T0_EESC_
FN:1268,_ZN9__gnu_cxxmiIPK4EdgeSt6vectorIS1_SaIS1_EEEENS_17__normal_iteratorIT_T0_E15difference_typeERKSA_SD_
FNDA:8,_ZN9__gnu_cxxmiIPK4EdgeSt6vectorIS1_SaIS1_EEEENS_17__normal_iteratorIT_T0_E15difference_typeERKSA_SD_
FN:1268,_ZN9__gnu_cxxmiIP4EdgeSt6vectorIS1_SaIS1_EEEENS_17__normal_iteratorIT_T0_E15difference_typeERKS9_SC_
FNDA:138,_ZN9__gnu_cxxmiIP4EdgeSt6vectorIS1_SaIS1_EEEENS_17__normal_iteratorIT_T0_E15difference_typeERKS9_SC_
FN:1291,_ZSt12__niter_baseIP4EdgeSt6vectorIS0_SaIS0_EEET_N9__gnu_cxx17__normal_iteratorIS5_T0_EE
FNDA:16,_ZSt12__niter_baseIP4EdgeSt6vectorIS0_SaIS0_EEET_N9__gnu_cxx17__normal_iteratorIS5_T0_EE
FN:1723,_ZSt32__make_move_if_noexcept_iteratorI4EdgePKS0_ET0_PT_
FNDA:256,_ZSt32__make_move_if_noexcept_iteratorI4EdgePKS0_ET0_PT_
DA:1027,0
DA:1028,0
DA:1027,276
DA:1028,276
DA:1033,8
DA:1037,8
DA:1042,0
DA:1043,0
DA:1042,0
DA:1043,0
DA:1052,0
DA:1054,0
DA:1055,0
DA:1052,0
DA:1054,0
DA:1055,0
DA:1090,18
DA:1091,18
DA:1105,0
DA:1106,0
DA:1105,0
DA:1106,0
DA:1163,34
DA:1166,34
DA:1179,0
DA:1182,0
DA:1179,0
DA:1182,0
DA:1268,138
DA:1271,138
DA:1268,8
DA:1271,8
DA:1291,16
DA:1293,16
DA:1723,256
DA:1724,256
end_of_record
SF:/usr/include/c++/11/bits/stl_vector.h
FN:97,_ZNSt12_Vector_baseI4EdgeSaIS0_EE17_Vector_impl_dataC2Ev
FNDA:0,_ZNSt12_Vector_baseI4EdgeSaIS0_EE17_Vector_impl_dataC2Ev
FN:131,_ZNSt12_Vector_baseI4EdgeSaIS0_EE12_Vector_implC2Ev
FNDA:0,_ZNSt12_Vector_baseI4EdgeSaIS0_EE12_Vector_implC2Ev
FN:136,_ZNSt12_Vector_baseI4EdgeSaIS0_EE12_Vector_implC2ERKS1_
FNDA:0,_ZNSt12_Vector_baseI4EdgeSaIS0_EE12_Vector_implC2ERKS1_
FN:276,_ZNSt12_Vector_baseI4EdgeSaIS0_EE19_M_get_Tp_allocatorEv
FNDA:0,_ZNSt12_Vector_baseI4EdgeSaIS0_EE19_M_get_Tp_allocatorEv
FN:280,_ZNKSt12_Vector_baseI4EdgeSaIS0_EE19_M_get_Tp_allocatorEv
FNDA:0,_ZNKSt12_Vector_baseI4EdgeSaIS0_EE19_M_get_Tp_allocatorEv
FN:288,_ZNSt12_Vector_baseI4EdgeSaIS0_EEC2Ev
FNDA:0,_ZNSt12_Vector_baseI4EdgeSaIS0_EEC2Ev
FN:303,_ZNSt12_Vector_baseI4EdgeSaIS0_EEC2EmRKS1_
FNDA:0,_ZNSt12_Vector_baseI4EdgeSaIS0_EEC2EmRKS1_
FN:333,_ZNSt12_Vector_baseI4EdgeSaIS0_EED2Ev
FNDA:0,_ZNSt12_Vector_baseI4EdgeSaIS0_EED2Ev
FN:343,_ZNSt12_Vector_baseI4EdgeSaIS0_EE11_M_allocateEm
FNDA:0,_ZNSt12_Vector_baseI4EdgeSaIS0_EE11_M_allocateEm
FN:350,_ZNSt12_Vector_baseI4EdgeSaIS0_EE13_M_deallocateEPS0_m
FNDA:0,_ZNSt12_Vector_baseI4EdgeSaIS0_EE13_M_deallocateEPS0_m
FN:359,_ZNSt12_Vector_baseI4EdgeSaIS0_EE17_M_create_storageEm
FNDA:0,_ZNSt12_Vector_baseI4EdgeSaIS0_EE17_M_create_storageEm
FN:487,_ZNSt6vectorI4EdgeSaIS0_EEC2Ev
FNDA:0,_ZNSt6vectorI4EdgeSaIS0_EEC2Ev
FN:553,_ZNSt6vectorI4EdgeSaIS0_EEC2ERKS2_
FNDA:0,_ZNSt6vectorI4EdgeSaIS0_EEC2ERKS2_
FN:678,_ZNSt6vectorI4EdgeSaIS0_EED2Ev
FNDA:0,_ZNSt6vectorI4EdgeSaIS0_EED2Ev
FN:811,_ZNSt6vectorI4EdgeSaIS0_EE5beginEv
FNDA:111,_ZNSt6vectorI4EdgeSaIS0_EE5beginEv
FN:820,_ZNKSt6vectorI4EdgeSaIS0_EE5beginEv
FNDA:0,_ZNKSt6vectorI4EdgeSaIS0_EE5beginEv
FN:829,_ZNSt6vectorI4EdgeSaIS0_EE3endEv
FNDA:147,_ZNSt6vectorI4EdgeSaIS0_EE3endEv
FN:838,_ZNKSt6vectorI4EdgeSaIS0_EE3endEv
FNDA:0,_ZNKSt6vectorI4EdgeSaIS0_EE3endEv
FN:884,_ZNKSt6vectorI4EdgeSaIS0_EE6cbeginEv
FNDA:4,_ZNKSt6vectorI4EdgeSaIS0_EE6cbeginEv
FN:918,_ZNKSt6vectorI4EdgeSaIS0_EE4sizeEv
FNDA:0,_ZNKSt6vectorI4EdgeSaIS0_EE4sizeEv
FN:923,_ZNKSt6vectorI4EdgeSaIS0_EE8max_sizeEv
FNDA:128,_ZNKSt6vectorI4EdgeSaIS0_EE8max_sizeEv
FN:1187,_ZNSt6vectorI4EdgeSaIS0_EE9push_backERKS0_
FNDA:84,_ZNSt6vectorI4EdgeSaIS0_EE9push_backERKS0_
FN:1457,_ZNSt6vectorI4EdgeSaIS0_EE5eraseEN9__gnu_cxx17__normal_iteratorIPKS0_S2_EES7_
FNDA:4,_ZNSt6vectorI4EdgeSaIS0_EE5eraseEN9__gnu_cxx17__normal_iteratorIPKS0_S2_EES7_
FN:1498,_ZNSt6vectorI4EdgeSaIS0_EE5clearEv
FNDA:12,_ZNSt6vectorI4EdgeSaIS0_EE5clearEv
FN:1756,_ZNKSt6vectorI4EdgeSaIS0_EE12_M_check_lenEmPKc
FNDA:64,_ZNKSt6vectorI4EdgeSaIS0_EE12_M_check_lenEmPKc
FN:1776,_ZNSt6vectorI4EdgeSaIS0_EE11_S_max_sizeERKS1_
FNDA:130,_ZNSt6vectorI4EdgeSaIS0_EE11_S_max_sizeERKS1_
FN:1792,_ZNSt6vectorI4EdgeSaIS0_EE15_M_erase_at_endEPS0_
FNDA:16,_ZNSt6vectorI4EdgeSaIS0_EE15_M_erase_at_endEPS0_
DA:97,0
DA:98,0
DA:99,0
DA:131,0
DA:133,0
DA:134,0
DA:136,0
DA:137,0
DA:138,0
DA:276,0
DA:277,0
DA:280,0
DA:281,0
DA:288,0
DA:303,0
DA:304,0
DA:305,0
DA:333,0
DA:335,0
DA:336,0
DA:337,0
DA:343,0
DA:346,0
DA:350,0
DA:353,0
DA:354,0
DA:355,0
DA:359,0
DA:361,0
DA:362,0
DA:363,0
DA:364,0
DA:487,0
DA:553,0
DA:555,0
DA:557,0
DA:558,0
DA:560,0
DA:561,0
DA:678,0
DA:680,0
DA:681,0
DA:683,0
DA:811,111
DA:812,111
DA:820,0
DA:821,0
DA:829,147
DA:830,147
DA:838,0
DA:839,0
DA:884,4
DA:885,4
DA:918,0
DA:919,0
DA:923,128
DA:924,128
DA:1187,84
DA:1189,84
DA:1192,20
DA:1194,20
DA:1198,64
DA:1199,84
DA:1457,4
DA:1459,4
DA:1460,4
DA:1461,8
DA:1498,12
DA:1499,12
DA:1756,64
DA:1758,64
DA:1759,0
DA:1761,64
DA:1762,64
DA:1776,130
DA:1781,130
DA:1783,130
DA:1784,130
DA:1792,16
DA:1794,16
DA:1796,16
DA:1797,16
DA:1798,16
DA:1801,16
end_of_record
SF:/usr/include/c++/11/ext/new_allocator.h
FN:79,_ZN9__gnu_cxx13new_allocatorI4EdgeEC2Ev
FNDA:0,_ZN9__gnu_cxx13new_allocatorI4EdgeEC2Ev
FN:79,_ZN9__gnu_cxx13new_allocatorISt13_Rb_tree_nodeISt4pairIKmmEEEC2Ev
FNDA:0,_ZN9__gnu_cxx13new_allocatorISt13_Rb_tree_nodeISt4pairIKmmEEEC2Ev
FN:82,_ZN9__gnu_cxx13new_allocatorISt13_Rb_tree_nodeISt4pairIKmmEEEC2ERKS6_
FNDA:0,_ZN9__gnu_cxx13new_allocatorISt13_Rb_tree_nodeISt4pairIKmmEEEC2ERKS6_
FN:82,_ZN9__gnu_cxx13new_allocatorI4EdgeEC2ERKS2_
FNDA:0,_ZN9__gnu_cxx13new_allocatorI4EdgeEC2ERKS2_
FN:89,_ZN9__gnu_cxx13new_allocatorI4EdgeED2Ev
FNDA:0,_ZN9__gnu_cxx13new_allocatorI4EdgeED2Ev
FN:89,_ZN9__gnu_cxx13new_allocatorISt13_Rb_tree_nodeISt4pairIKmmEEED2Ev
FNDA:0,_ZN9__gnu_cxx13new_allocatorISt13_Rb_tree_nodeISt4pairIKmmEEED2Ev
FN:103,_ZN9__gnu_cxx13new_allocatorISt13_Rb_tree_nodeISt4pairIKmmEEE8allocateEmPKv
FNDA:0,_ZN9__gnu_cxx13new_allocatorISt13_Rb_tree_nodeISt4pairIKmmEEE8allocateEmPKv
FN:103,_ZN9__gnu_cxx13new_allocatorI4EdgeE8allocateEmPKv
FNDA:0,_ZN9__gnu_cxx13new_allocatorI4EdgeE8allocateEmPKv
FN:132,_ZN9__gnu_cxx13new_allocatorI4EdgeE10deallocateEPS1_m
FNDA:0,_ZN9__gnu_cxx13new_allocatorI4EdgeE10deallocateEPS1_m
FN:132,_ZN9__gnu_cxx13new_allocatorISt13_Rb_tree_nodeISt4pairIKmmEEE10deallocateEPS5_m
FNDA:0,_ZN9__gnu_cxx13new_allocatorISt13_Rb_tree_nodeISt4pairIKmmEEE10deallocateEPS5_m
FN:154,_ZNK9__gnu_cxx13new_allocatorI4EdgeE8max_sizeEv
FNDA:130,_ZNK9__gnu_cxx13new_allocatorI4EdgeE8max_sizeEv
FN:160,_ZN9__gnu_cxx13new_allocatorI4EdgeE9constructIS1_JRKS1_EEEvPT_DpOT0_
FNDA:84,_ZN9__gnu_cxx13new_allocatorI4EdgeE9constructIS1_JRKS1_EEEvPT_DpOT0_
FN:160,_ZN9__gnu_cxx13new_allocatorISt13_Rb_tree_nodeISt4pairIKmmEEE9constructIS4_JRKS4_EEEvPT_DpOT0_
FNDA:0,_ZN9__gnu_cxx13new_allocatorISt13_Rb_tree_nodeISt4pairIKmmEEE9constructIS4_JRKS4_EEEvPT_DpOT0_
FN:166,_ZN9__gnu_cxx13new_allocatorISt13_Rb_tree_nodeISt4pairIKmmEEE7destroyIS4_EEvPT_
FNDA:0,_ZN9__gnu_cxx13new_allocatorISt13_Rb_tree_nodeISt4pairIKmmEEE7destroyIS4_EEvPT_
FN:166,_ZN9__gnu_cxx13new_allocatorI4EdgeE7destroyIS1_EEvPT_
FNDA:0,_ZN9__gnu_cxx13new_allocatorI4EdgeE7destroyIS1_EEvPT_
FN:197,_ZNK9__gnu_cxx13new_allocatorI4EdgeE11_M_max_sizeEv
FNDA:0,_ZNK9__gnu_cxx13new_allocatorI4EdgeE11_M_max_sizeEv
FN:197,_ZNK9__gnu_cxx13new_allocatorISt13_Rb_tree_nodeISt4pairIKmmEEE11_M_max_sizeEv
FNDA:0,_ZNK9__gnu_cxx13new_allocatorISt13_Rb_tree_nodeISt4pairIKmmEEE11_M_max_sizeEv
DA:79,0
DA:79,0
DA:82,0
DA:82,0
DA:89,0
DA:89,0
DA:103,0
DA:111,0
DA:115,0
DA:116,0
DA:117,0
DA:127,0
DA:103,0
DA:111,0
DA:115,0
DA:116,0
DA:117,0
DA:127,0
DA:132,0
DA:145,0
DA:132,0
DA:145,0
DA:154,130
DA:155,130
DA:160,0
DA:162,0
DA:160,84
DA:162,84
DA:166,0
DA:168,0
DA:166,0
DA:168,0
DA:197,0
DA:200,0
DA:197,0
DA:200,0
end_of_record
SF:/usr/include/c++/11/bits/stl_pair.h
FN:352,_ZNSt4pairISt17_Rb_tree_iteratorIS_IKmmEES3_EC2IS3_S3_Lb1EEEOT_OT0_
FNDA:0,_ZNSt4pairISt17_Rb_tree_iteratorIS_IKmmEES3_EC2IS3_S3_Lb1EEEOT_OT0_
DA:352,0
DA:353,0
end_of_record
SF:/usr/include/c++/11/bits/alloc_traits.h
FN:463,_ZNSt16allocator_traitsISaISt13_Rb_tree_nodeISt4pairIKmmEEEE8allocateERS5_m
FNDA:0,_ZNSt16allocator_traitsISaISt13_Rb_tree_nodeISt4pairIKmmEEEE8allocateERS5_m
FN:463,_ZNSt16allocator_traitsISaI4EdgeEE8allocateERS1_m
FNDA:0,_ZNSt16allocator_traitsISaI4EdgeEE8allocateERS1_m
FN:495,_ZNSt16allocator_traitsISaISt13_Rb_tree_nodeISt4pairIKmmEEEE10deallocateERS5_PS4_m
FNDA:0,_ZNSt16allocator_traitsISaISt13_Rb_tree_nodeISt4pairIKmmEEEE10deallocateERS5_PS4_m
FN:495,_ZNSt16allocator_traitsISaI4EdgeEE10deallocateERS1_PS0_m
FNDA:0,_ZNSt16allocator_traitsISaI4EdgeEE10deallocateERS1_PS0_m
FN:511,_ZNSt16allocator_traitsISaISt13_Rb_tree_nodeISt4pairIKmmEEEE9constructIS3_JRKS3_EEEvRS5_PT_DpOT0_
FNDA:0,_ZNSt16allocator_traitsISaISt13_Rb_tree_nodeISt4pairIKmmEEEE9constructIS3_JRKS3_EEEvRS5_PT_DpOT0_
FN:511,_ZNSt16allocator_traitsISaI4EdgeEE9constructIS0_JRKS0_EEEvRS1_PT_DpOT0_
FNDA:84,_ZNSt16allocator_traitsISaI4EdgeEE9constructIS0_JRKS0_EEEvRS1_PT_DpOT0_
FN:531,_ZNSt16allocator_traitsISaISt13_Rb_tree_nodeISt4pairIKmmEEEE7destroyIS3_EEvRS5_PT_
FNDA:0,_ZNSt16allocator_traitsISaISt13_Rb_tree_nodeISt4pairIKmmEEEE7destroyIS3_EEvRS5_PT_
FN:531,_ZNSt16allocator_traitsISaI4EdgeEE7destroyIS0_EEvRS1_PT_
FNDA:0,_ZNSt16allocator_traitsISaI4EdgeEE7destroyIS0_EEvRS1_PT_
FN:547,_ZNSt16allocator_traitsISaI4EdgeEE8max_sizeERKS1_
FNDA:130,_ZNSt16allocator_traitsISaI4EdgeEE8max_sizeERKS1_
FN:562,_ZNSt16allocator_traitsISaISt13_Rb_tree_nodeISt4pairIKmmEEEE37select_on_container_copy_constructionERKS5_
FNDA:0,_ZNSt16allocator_traitsISaISt13_Rb_tree_nodeISt4pairIKmmEEEE37select_on_container_copy_constructionERKS5_
FN:562,_ZNSt16allocator_traitsISaI4EdgeEE37select_on_container_copy_constructionERKS1_
FNDA:0,_ZNSt16allocator_traitsISaI4EdgeEE37select_on_container_copy_constructionERKS1_
FN:845,_ZSt8_DestroyIP4EdgeS0_EvT_S2_RSaIT0_E
FNDA:0,_ZSt8_DestroyIP4EdgeS0_EvT_S2_RSaIT0_E
DA:463,0
DA:464,0
DA:463,0
DA:464,0
DA:495,0
DA:496,0
DA:495,0
DA:496,0
DA:511,0
DA:516,0
DA:520,0
DA:511,84
DA:516,84
DA:520,84
DA:531,0
DA:535,0
DA:539,0
DA:531,0
DA:535,0
DA:539,0
DA:547,130
DA:550,130
DA:562,0
DA:563,0
DA:562,0
DA:563,0
DA:845,0
DA:848,0
DA:849,0
end_of_record
SF:/usr/include/c++/11/iostream
end_of_record
SF:/home/imri/OS-FinalProject/GraphObj/vertex.hpp
end_of_record
SF:/usr/include/c++/11/bits/move.h
FN:49,_ZSt11__addressofI4EdgeEPT_RS1_
FNDA:0,_ZSt11__addressofI4EdgeEPT_RS1_
FN:77,_ZSt7forwardIRKSt4pairIKmmEEOT_RNSt16remove_referenceIS5_E4typeE
FNDA:0,_ZSt7forwardIRKSt4pairIKmmEEOT_RNSt16remove_referenceIS5_E4typeE
FN:77,_ZSt7forwardISt17_Rb_tree_iteratorISt4pairIKmmEEEOT_RNSt16remove_referenceIS5_E4typeE
FNDA:0,_ZSt7forwardISt17_Rb_tree_iteratorISt4pairIKmmEEEOT_RNSt16remove_referenceIS5_E4typeE
FN:77,_ZSt7forwardIRK4EdgeEOT_RNSt16remove_referenceIS3_E4typeE
FNDA:0,_ZSt7forwardIRK4EdgeEOT_RNSt16remove_referenceIS3_E4typeE
FN:104,_ZSt4moveIR4EdgeEONSt16remove_referenceIT_E4typeEOS3_
FNDA:17,_ZSt4moveIR4EdgeEONSt16remove_referenceIT_E4typeEOS3_
DA:49,0
DA:50,0
DA:77,0
DA:78,0
DA:77,0
DA:78,0
DA:77,0
DA:78,0
DA:104,17
DA:105,17
end_of_record
SF:/home/imri/OS-FinalProject/GraphObj/vertex.cpp
FN:6,_ZN6VertexC2Em
FNDA:7,_ZN6VertexC2Em
FN:10,_ZN6Vertex5getIdEv
FNDA:245,_ZN6Vertex5getIdEv
FN:11,_ZNK6Vertex5getIdEv
FNDA:53,_ZNK6Vertex5getIdEv
FN:14,_ZN6Vertex7addEdgeE4Edge
FNDA:28,_ZN6Vertex7addEdgeE4Edge
FN:21,_ZN6Vertex10removeEdgeE4Edge
FNDA:4,_ZN6Vertex10removeEdgeE4Edge
FN:28,_ZN6Vertex14removeAllEdgesEv
FNDA:12,_ZN6Vertex14removeAllEdgesEv
FN:35,_ZN6Vertex5beginEv
FNDA:7,_ZN6Vertex5beginEv
FN:39,_ZN6Vertex3endEv
FNDA:7,_ZN6Vertex3endEv
FN:44,_ZNK6Vertex6getAdjEv
FNDA:0,_ZNK6Vertex6getAdjEv
FN:49,_ZN6Vertex6getAdjEv
FNDA:44,_ZN6Vertex6getAdjEv
FN:55,_ZN6Vertex8adjBeginEv
FNDA:3,_ZN6Vertex8adjBeginEv
FN:60,_ZN6Vertex6adjEndEv
FNDA:9,_ZN6Vertex6adjEndEv
FN:66,_ZNK6Vertex7hasEdgeES_
FNDA:0,_ZNK6Vertex7hasEdgeES_
FN:76,_ZNK6VertexeqERKS_
FNDA:63,_ZNK6VertexeqERKS_
FN:81,_ZN6VertexaSERKS_
FNDA:63,_ZN6VertexaSERKS_
FN:91,_ZlsRSoRK6Vertex
FNDA:0,_ZlsRSoRK6Vertex
DA:6,7
DA:10,245
DA:11,53
DA:14,28
DA:16,28
DA:17,28
DA:18,28
DA:21,4
DA:23,4
DA:24,4
DA:25,4
DA:28,12
DA:30,12
DA:31,12
DA:32,12
DA:35,7
DA:37,7
DA:39,7
DA:41,7
DA:44,0
DA:46,0
DA:49,44
DA:51,44
DA:55,3
DA:57,3
DA:60,9
DA:62,9
DA:66,0
DA:68,0
DA:70,0
DA:71,0
DA:72,0
DA:73,0
DA:76,63
DA:78,63
DA:81,63
DA:83,63
DA:84,116
DA:86,53
DA:87,53
DA:88,63
DA:91,0
DA:93,0
DA:94,0
end_of_record
SF:/usr/include/c++/11/bits/stl_iterator_base_types.h
FN:238,_ZSt19__iterator_categoryIN9__gnu_cxx17__normal_iteratorIP4EdgeSt6vectorIS2_SaIS2_EEEEENSt15iterator_traitsIT_E17iterator_categoryERKS9_
FNDA:32,_ZSt19__iterator_categoryIN9__gnu_cxx17__normal_iteratorIP4EdgeSt6vectorIS2_SaIS2_EEEEENSt15iterator_traitsIT_E17iterator_categoryERKS9_
DA:238,32
DA:239,32
end_of_record
SF:/usr/include/c++/11/bits/predefined_ops.h
FN:262,_ZN9__gnu_cxx5__ops16_Iter_equals_valIK4EdgeEC2ERS3_
FNDA:32,_ZN9__gnu_cxx5__ops16_Iter_equals_valIK4EdgeEC2ERS3_
FN:269,_ZN9__gnu_cxx5__ops16_Iter_equals_valIK4EdgeEclINS_17__normal_iteratorIPS2_St6vectorIS2_SaIS2_EEEEEEbT_
FNDA:16,_ZN9__gnu_cxx5__ops16_Iter_equals_valIK4EdgeEclINS_17__normal_iteratorIPS2_St6vectorIS2_SaIS2_EEEEEEbT_
FN:276,_ZN9__gnu_cxx5__ops17__iter_equals_valIK4EdgeEENS0_16_Iter_equals_valIT_EERS5_
FNDA:32,_ZN9__gnu_cxx5__ops17__iter_equals_valIK4EdgeEENS0_16_Iter_equals_valIT_EERS5_
DA:262,32
DA:263,32
DA:264,32
DA:269,16
DA:270,16
DA:276,32
DA:277,32
end_of_record
SF:/usr/include/c++/11/ext/aligned_buffer.h
FN:64,_ZN9__gnu_cxx16__aligned_membufISt4pairIKmmEE7_M_addrEv
FNDA:0,_ZN9__gnu_cxx16__aligned_membufISt4pairIKmmEE7_M_addrEv
FN:68,_ZNK9__gnu_cxx16__aligned_membufISt4pairIKmmEE7_M_addrEv
FNDA:0,_ZNK9__gnu_cxx16__aligned_membufISt4pairIKmmEE7_M_addrEv
FN:72,_ZN9__gnu_cxx16__aligned_membufISt4pairIKmmEE6_M_ptrEv
FNDA:0,_ZN9__gnu_cxx16__aligned_membufISt4pairIKmmEE6_M_ptrEv
FN:76,_ZNK9__gnu_cxx16__aligned_membufISt4pairIKmmEE6_M_ptrEv
FNDA:0,_ZNK9__gnu_cxx16__aligned_membufISt4pairIKmmEE6_M_ptrEv
DA:64,0
DA:65,0
DA:68,0
DA:69,0
DA:72,0
DA:73,0
DA:76,0
DA:77,0
end_of_record
SF:/home/imri/OS-FinalProject/GraphObj/edge.hpp
end_of_record
SF:/usr/include/c++/11/bits/stl_function.h
FN:399,_ZNKSt4lessImEclERKmS2_
FNDA:0,_ZNKSt4lessImEclERKmS2_
FN:1174,_ZNKSt10_Select1stISt4pairIKmmEEclERKS2_
FNDA:0,_ZNKSt10_Select1stISt4pairIKmmEEclERKS2_
DA:399,0
DA:400,0
DA:1174,0
DA:1175,0
end_of_record
TN:
SF:/usr/include/c++/11/bits/deque.tcc
FN:164,_ZNSt5dequeImSaImEE12emplace_backIJmEEERmDpOT_
FNDA:5,_ZNSt5dequeImSaImEE12emplace_backIJmEEERmDpOT_
FN:484,_ZNSt5dequeImSaImEE16_M_push_back_auxIJmEEEvDpOT_
FNDA:0,_ZNSt5dequeImSaImEE16_M_push_back_auxIJmEEEvDpOT_
FN:484,_ZNSt5dequeImSaImEE16_M_push_back_auxIJRKmEEEvDpOT_
FNDA:0,_ZNSt5dequeImSaImEE16_M_push_back_auxIJRKmEEEvDpOT_
FN:576,_ZNSt5dequeImSaImEE16_M_pop_front_auxEv
FNDA:0,_ZNSt5dequeImSaImEE16_M_pop_front_auxEv
FN:931,_ZNSt5dequeImSaImEE17_M_reallocate_mapEmb
FNDA:0,_ZNSt5dequeImSaImEE17_M_reallocate_mapEmb
DA:164,5
DA:167,5
DA:168,5
DA:170,5
DA:173,5
DA:176,0
DA:178,5
DA:484,0
DA:492,0
DA:493,0
DA:496,0
DA:497,0
DA:501,0
DA:507,0
DA:509,0
DA:516,0
DA:484,0
DA:492,0
DA:493,0
DA:496,0
DA:497,0
DA:501,0
DA:507,0
DA:509,0
DA:516,0
DA:576,0
DA:579,0
DA:581,0
DA:582,0
DA:583,0
DA:584,0
DA:931,0
DA:934,0
DA:935,0
DA:936,0
DA:939,0
DA:941,0
DA:942,0
DA:943,0
DA:944,0
DA:945,0
DA:946,0
DA:949,0
DA:950,0
DA:951,0
DA:955,0
DA:956,0
DA:959,0
DA:960,0
DA:961,0
DA:962,0
DA:963,0
DA:965,0
DA:967,0
DA:968,0
DA:971,0
DA:972,0
DA:973,0
end_of_record
SF:/usr/include/c++/11/bits/stl_vector.h
FN:97,_ZNSt12_Vector_baseIiSaIiEE17_Vector_impl_dataC2Ev
FNDA:16,_ZNSt12_Vector_baseIiSaIiEE17_Vector_impl_dataC2Ev
FN:97,_ZNSt12_Vector_baseISt6vectorImSaImEESaIS2_EE17_Vector_impl_dataC2Ev
FNDA:147,_ZNSt12_Vector_baseISt6vectorImSaImEESaIS2_EE17_Vector_impl_dataC2Ev
FN:97,_ZNSt12_Vector_baseI4EdgeSaIS0_EE17_Vector_impl_dataC2Ev
FNDA:0,_ZNSt12_Vector_baseI4EdgeSaIS0_EE17_Vector_impl_dataC2Ev
FN:97,_ZNSt12_Vector_baseImSaImEE17_Vector_impl_dataC2Ev
FNDA:152,_ZNSt12_Vector_baseImSaImEE17_Vector_impl_dataC2Ev
FN:109,_ZNSt12_Vector_baseISt6vectorImSaImEESaIS2_EE17_Vector_impl_data12_M_copy_dataERKS5_
FNDA:144,_ZNSt12_Vector_baseISt6vectorImSaImEESaIS2_EE17_Vector_impl_data12_M_copy_dataERKS5_
FN:117,_ZNSt12_Vector_baseISt6vectorImSaImEESaIS2_EE17_Vector_impl_data12_M_swap_dataERS5_
FNDA:48,_ZNSt12_Vector_baseISt6vectorImSaImEESaIS2_EE17_Vector_impl_data12_M_swap_dataERS5_
FN:131,_ZNSt12_Vector_baseI4EdgeSaIS0_EE12_Vector_implC2Ev
FNDA:39,_ZNSt12_Vector_baseI4EdgeSaIS0_EE12_Vector_implC2Ev
FN:131,_ZNSt12_Vector_baseIiSaIiEE12_Vector_implC2Ev
FNDA:13,_ZNSt12_Vector_baseIiSaIiEE12_Vector_implC2Ev
FN:131,_ZNSt12_Vector_baseISt6vectorImSaImEESaIS2_EE12_Vector_implC2Ev
FNDA:30,_ZNSt12_Vector_baseISt6vectorImSaImEESaIS2_EE12_Vector_implC2Ev
FN:136,_ZNSt12_Vector_baseISt6vectorImSaImEESaIS2_EE12_Vector_implC2ERKS3_
FNDA:69,_ZNSt12_Vector_baseISt6vectorImSaImEESaIS2_EE12_Vector_implC2ERKS3_
FN:136,_ZNSt12_Vector_baseImSaImEE12_Vector_implC2ERKS0_
FNDA:152,_ZNSt12_Vector_baseImSaImEE12_Vector_implC2ERKS0_
FN:136,_ZNSt12_Vector_baseI4EdgeSaIS0_EE12_Vector_implC2ERKS1_
FNDA:0,_ZNSt12_Vector_baseI4EdgeSaIS0_EE12_Vector_implC2ERKS1_
FN:276,_ZNSt12_Vector_baseImSaImEE19_M_get_Tp_allocatorEv
FNDA:304,_ZNSt12_Vector_baseImSaImEE19_M_get_Tp_allocatorEv
FN:276,_ZNSt12_Vector_baseIiSaIiEE19_M_get_Tp_allocatorEv
FNDA:81,_ZNSt12_Vector_baseIiSaIiEE19_M_get_Tp_allocatorEv
FN:276,_ZNSt12_Vector_baseISt6vectorImSaImEESaIS2_EE19_M_get_Tp_allocatorEv
FNDA:192,_ZNSt12_Vector_baseISt6vectorImSaImEESaIS2_EE19_M_get_Tp_allocatorEv
FN:276,_ZNSt12_Vector_baseI4EdgeSaIS0_EE19_M_get_Tp_allocatorEv
FNDA:0,_ZNSt12_Vector_baseI4EdgeSaIS0_EE19_M_get_Tp_allocatorEv
FN:280,_ZNKSt12_Vector_baseIiSaIiEE19_M_get_Tp_allocatorEv
FNDA:62,_ZNKSt12_Vector_baseIiSaIiEE19_M_get_Tp_allocatorEv
FN:280,_ZNKSt12_Vector_baseI4EdgeSaIS0_EE19_M_get_Tp_allocatorEv
FNDA:0,_ZNKSt12_Vector_baseI4EdgeSaIS0_EE19_M_get_Tp_allocatorEv
FN:280,_ZNKSt12_Vector_baseImSaImEE19_M_get_Tp_allocatorEv
FNDA:135,_ZNKSt12_Vector_baseImSaImEE19_M_get_Tp_allocatorEv
FN:280,_ZNKSt12_Vector_baseISt6vectorImSaImEESaIS2_EE19_M_get_Tp_allocatorEv
FNDA:56,_ZNKSt12_Vector_baseISt6vectorImSaImEESaIS2_EE19_M_get_Tp_allocatorEv
FN:284,_ZNKSt12_Vector_baseISt6vectorImSaImEESaIS2_EE13get_allocatorEv
FNDA:24,_ZNKSt12_Vector_baseISt6vectorImSaImEESaIS2_EE13get_allocatorEv
FN:288,_ZNSt12_Vector_baseIiSaIiEEC2Ev
FNDA:13,_ZNSt12_Vector_baseIiSaIiEEC2Ev
FN:288,_ZNSt12_Vector_baseISt6vectorImSaImEESaIS2_EEC2Ev
FNDA:30,_ZNSt12_Vector_baseISt6vectorImSaImEESaIS2_EEC2Ev
FN:288,_ZNSt12_Vector_baseI4EdgeSaIS0_EEC2Ev
FNDA:39,_ZNSt12_Vector_baseI4EdgeSaIS0_EEC2Ev
FN:293,_ZNSt12_Vector_baseISt6vectorImSaImEESaIS2_EEC2ERKS3_
FNDA:24,_ZNSt12_Vector_baseISt6vectorImSaImEESaIS2_EEC2ERKS3_
FN:303,_ZNSt12_Vector_baseI4EdgeSaIS0_EEC2EmRKS1_
FNDA:0,_ZNSt12_Vector_baseI4EdgeSaIS0_EEC2EmRKS1_
FN:303,_ZNSt12_Vector_baseImSaImEEC2EmRKS0_
FNDA:152,_ZNSt12_Vector_baseImSaImEEC2EmRKS0_
FN:303,_ZNSt12_Vector_baseISt6vectorImSaImEESaIS2_EEC2EmRKS3_
FNDA:45,_ZNSt12_Vector_baseISt6vectorImSaImEESaIS2_EEC2EmRKS3_
FN:333,_ZNSt12_Vector_baseISt6vectorImSaImEESaIS2_EED2Ev
FNDA:99,_ZNSt12_Vector_baseISt6vectorImSaImEESaIS2_EED2Ev
FN:333,_ZNSt12_Vector_baseImSaImEED2Ev
FNDA:152,_ZNSt12_Vector_baseImSaImEED2Ev
FN:333,_ZNSt12_Vector_baseIiSaIiEED2Ev
FNDA:16,_ZNSt12_Vector_baseIiSaIiEED2Ev
FN:333,_ZNSt12_Vector_baseI4EdgeSaIS0_EED2Ev
FNDA:0,_ZNSt12_Vector_baseI4EdgeSaIS0_EED2Ev
FN:343,_ZNSt12_Vector_baseIiSaIiEE11_M_allocateEm
FNDA:34,_ZNSt12_Vector_baseIiSaIiEE11_M_allocateEm
FN:343,_ZNSt12_Vector_baseI4EdgeSaIS0_EE11_M_allocateEm
FNDA:0,_ZNSt12_Vector_baseI4EdgeSaIS0_EE11_M_allocateEm
FN:343,_ZNSt12_Vector_baseImSaImEE11_M_allocateEm
FNDA:152,_ZNSt12_Vector_baseImSaImEE11_M_allocateEm
FN:343,_ZNSt12_Vector_baseISt6vectorImSaImEESaIS2_EE11_M_allocateEm
FNDA:45,_ZNSt12_Vector_baseISt6vectorImSaImEESaIS2_EE11_M_allocateEm
FN:350,_ZNSt12_Vector_baseISt6vectorImSaImEESaIS2_EE13_M_deallocateEPS2_m
FNDA:99,_ZNSt12_Vector_baseISt6vectorImSaImEESaIS2_EE13_M_deallocateEPS2_m
FN:350,_ZNSt12_Vector_baseIiSaIiEE13_M_deallocateEPim
FNDA:47,_ZNSt12_Vector_baseIiSaIiEE13_M_deallocateEPim
FN:350,_ZNSt12_Vector_baseI4EdgeSaIS0_EE13_M_deallocateEPS0_m
FNDA:0,_ZNSt12_Vector_baseI4EdgeSaIS0_EE13_M_deallocateEPS0_m
FN:350,_ZNSt12_Vector_baseImSaImEE13_M_deallocateEPmm
FNDA:152,_ZNSt12_Vector_baseImSaImEE13_M_deallocateEPmm
FN:359,_ZNSt12_Vector_baseI4EdgeSaIS0_EE17_M_create_storageEm
FNDA:0,_ZNSt12_Vector_baseI4EdgeSaIS0_EE17_M_create_storageEm
FN:359,_ZNSt12_Vector_baseImSaImEE17_M_create_storageEm
FNDA:152,_ZNSt12_Vector_baseImSaImEE17_M_create_storageEm
FN:359,_ZNSt12_Vector_baseISt6vectorImSaImEESaIS2_EE17_M_create_storageEm
FNDA:45,_ZNSt12_Vector_baseISt6vectorImSaImEESaIS2_EE17_M_create_storageEm
FN:453,_ZNSt6vectorIiSaIiEE14_S_do_relocateEPiS2_S2_RS0_St17integral_constantIbLb1EE
FNDA:62,_ZNSt6vectorIiSaIiEE14_S_do_relocateEPiS2_S2_RS0_St17integral_constantIbLb1EE
FN:465,_ZNSt6vectorIiSaIiEE11_S_relocateEPiS2_S2_RS0_
FNDA:62,_ZNSt6vectorIiSaIiEE11_S_relocateEPiS2_S2_RS0_
FN:487,_ZNSt6vectorIS_ImSaImEESaIS1_EEC2Ev
FNDA:30,_ZNSt6vectorIS_ImSaImEESaIS1_EEC2Ev
FN:487,_ZNSt6vectorIiSaIiEEC2Ev
FNDA:13,_ZNSt6vectorIiSaIiEEC2Ev
FN:487,_ZNSt6vectorI4EdgeSaIS0_EEC2Ev
FNDA:39,_ZNSt6vectorI4EdgeSaIS0_EEC2Ev
FN:497,_ZNSt6vectorIS_ImSaImEESaIS1_EEC2ERKS2_
FNDA:24,_ZNSt6vectorIS_ImSaImEESaIS1_EEC2ERKS2_
FN:522,_ZNSt6vectorIS_ImSaImEESaIS1_EEC2EmRKS1_RKS2_
FNDA:13,_ZNSt6vectorIS_ImSaImEESaIS1_EEC2EmRKS1_RKS2_
FN:522,_ZNSt6vectorImSaImEEC2EmRKmRKS0_
FNDA:13,_ZNSt6vectorImSaImEEC2EmRKmRKS0_
FN:553,_ZNSt6vectorIS_ImSaImEESaIS1_EEC2ERKS3_
FNDA:32,_ZNSt6vectorIS_ImSaImEESaIS1_EEC2ERKS3_
FN:553,_ZNSt6vectorI4EdgeSaIS0_EEC2ERKS2_
FNDA:0,_ZNSt6vectorI4EdgeSaIS0_EEC2ERKS2_
FN:553,_ZNSt6vectorImSaImEEC2ERKS1_
FNDA:135,_ZNSt6vectorImSaImEEC2ERKS1_
FN:678,_ZNSt6vectorImSaImEED2Ev
FNDA:152,_ZNSt6vectorImSaImEED2Ev
FN:678,_ZNSt6vectorIiSaIiEED2Ev
FNDA:16,_ZNSt6vectorIiSaIiEED2Ev
FN:678,_ZNSt6vectorI4EdgeSaIS0_EED2Ev
FNDA:0,_ZNSt6vectorI4EdgeSaIS0_EED2Ev
FN:678,_ZNSt6vectorIS_ImSaImEESaIS1_EED2Ev
FNDA:99,_ZNSt6vectorIS_ImSaImEESaIS1_EED2Ev
FN:709,_ZNSt6vectorIS_ImSaImEESaIS1_EEaSEOS3_
FNDA:24,_ZNSt6vectorIS_ImSaImEESaIS1_EEaSEOS3_
FN:811,_ZNSt6vectorIiSaIiEE5beginEv
FNDA:71,_ZNSt6vectorIiSaIiEE5beginEv
FN:820,_ZNKSt6vectorImSaImEE5beginEv
FNDA:135,_ZNKSt6vectorImSaImEE5beginEv
FN:820,_ZNKSt6vectorIS_ImSaImEESaIS1_EE5beginEv
FNDA:48,_ZNKSt6vectorIS_ImSaImEESaIS1_EE5beginEv
FN:820,_ZNKSt6vectorI4EdgeSaIS0_EE5beginEv
FNDA:0,_ZNKSt6vectorI4EdgeSaIS0_EE5beginEv
FN:829,_ZNSt6vectorIiSaIiEE3endEv
FNDA:71,_ZNSt6vectorIiSaIiEE3endEv
FN:838,_ZNKSt6vectorI4EdgeSaIS0_EE3endEv
FNDA:0,_ZNKSt6vectorI4EdgeSaIS0_EE3endEv
FN:838,_ZNKSt6vectorImSaImEE3endEv
FNDA:135,_ZNKSt6vectorImSaImEE3endEv
FN:838,_ZNKSt6vectorIS_ImSaImEESaIS1_EE3endEv
FNDA:48,_ZNKSt6vectorIS_ImSaImEESaIS1_EE3endEv
FN:847,_ZNSt6vectorIiSaIiEE6rbeginEv
FNDA:12,_ZNSt6vectorIiSaIiEE6rbeginEv
FN:865,_ZNSt6vectorIiSaIiEE4rendEv
FNDA:40,_ZNSt6vectorIiSaIiEE4rendEv
FN:918,_ZNKSt6vectorImSaImEE4sizeEv
FNDA:135,_ZNKSt6vectorImSaImEE4sizeEv
FN:918,_ZNKSt6vectorIS_ImSaImEESaIS1_EE4sizeEv
FNDA:68,_ZNKSt6vectorIS_ImSaImEESaIS1_EE4sizeEv
FN:918,_ZNKSt6vectorIiSaIiEE4sizeEv
FNDA:124,_ZNKSt6vectorIiSaIiEE4sizeEv
FN:918,_ZNKSt6vectorI4EdgeSaIS0_EE4sizeEv
FNDA:0,_ZNKSt6vectorI4EdgeSaIS0_EE4sizeEv
FN:923,_ZNKSt6vectorIiSaIiEE8max_sizeEv
FNDA:62,_ZNKSt6vectorIiSaIiEE8max_sizeEv
FN:1007,_ZNKSt6vectorIS_ImSaImEESaIS1_EE5emptyEv
FNDA:16,_ZNKSt6vectorIS_ImSaImEESaIS1_EE5emptyEv
FN:1043,_ZNSt6vectorImSaImEEixEm
FNDA:754,_ZNSt6vectorImSaImEEixEm
FN:1043,_ZNSt6vectorIS_ImSaImEESaIS1_EEixEm
FNDA:683,_ZNSt6vectorIS_ImSaImEESaIS1_EEixEm
FN:1061,_ZNKSt6vectorImSaImEEixEm
FNDA:116,_ZNKSt6vectorImSaImEEixEm
FN:1061,_ZNKSt6vectorIS_ImSaImEESaIS1_EEixEm
FNDA:116,_ZNKSt6vectorIS_ImSaImEESaIS1_EEixEm
FN:1143,_ZNSt6vectorIiSaIiEE4backEv
FNDA:28,_ZNSt6vectorIiSaIiEE4backEv
FN:1203,_ZNSt6vectorIiSaIiEE9push_backEOi
FNDA:28,_ZNSt6vectorIiSaIiEE9push_backEOi
FN:1498,_ZNSt6vectorImSaImEE5clearEv
FNDA:0,_ZNSt6vectorImSaImEE5clearEv
FN:1498,_ZNSt6vectorIS_ImSaImEESaIS1_EE5clearEv
FNDA:32,_ZNSt6vectorIS_ImSaImEESaIS1_EE5clearEv
FN:1593,_ZNSt6vectorIS_ImSaImEESaIS1_EE18_M_fill_initializeEmRKS1_
FNDA:13,_ZNSt6vectorIS_ImSaImEESaIS1_EE18_M_fill_initializeEmRKS1_
FN:1593,_ZNSt6vectorImSaImEE18_M_fill_initializeEmRKm
FNDA:13,_ZNSt6vectorImSaImEE18_M_fill_initializeEmRKm
FN:1756,_ZNKSt6vectorIiSaIiEE12_M_check_lenEmPKc
FNDA:31,_ZNKSt6vectorIiSaIiEE12_M_check_lenEmPKc
FN:1767,_ZNSt6vectorImSaImEE17_S_check_init_lenEmRKS0_
FNDA:17,_ZNSt6vectorImSaImEE17_S_check_init_lenEmRKS0_
FN:1767,_ZNSt6vectorIS_ImSaImEESaIS1_EE17_S_check_init_lenEmRKS2_
FNDA:13,_ZNSt6vectorIS_ImSaImEESaIS1_EE17_S_check_init_lenEmRKS2_
FN:1776,_ZNSt6vectorIS_ImSaImEESaIS1_EE11_S_max_sizeERKS2_
FNDA:13,_ZNSt6vectorIS_ImSaImEESaIS1_EE11_S_max_sizeERKS2_
FN:1776,_ZNSt6vectorIiSaIiEE11_S_max_sizeERKS0_
FNDA:65,_ZNSt6vectorIiSaIiEE11_S_max_sizeERKS0_
FN:1776,_ZNSt6vectorImSaImEE11_S_max_sizeERKS0_
FNDA:17,_ZNSt6vectorImSaImEE11_S_max_sizeERKS0_
FN:1792,_ZNSt6vectorIS_ImSaImEESaIS1_EE15_M_erase_at_endEPS1_
FNDA:32,_ZNSt6vectorIS_ImSaImEESaIS1_EE15_M_erase_at_endEPS1_
FN:1792,_ZNSt6vectorImSaImEE15_M_erase_at_endEPm
FNDA:0,_ZNSt6vectorImSaImEE15_M_erase_at_endEPm
FN:1815,_ZNSt6vectorIS_ImSaImEESaIS1_EE14_M_move_assignEOS3_St17integral_constantIbLb1EE
FNDA:24,_ZNSt6vectorIS_ImSaImEESaIS1_EE14_M_move_assignEOS3_St17integral_constantIbLb1EE
DA:97,152
DA:98,152
DA:99,152
DA:97,0
DA:98,0
DA:99,0
DA:97,16
DA:98,16
DA:99,16
DA:97,147
DA:98,147
DA:99,147
DA:109,144
DA:111,144
DA:112,144
DA:113,144
DA:114,144
DA:117,48
DA:121,48
DA:122,48
DA:123,48
DA:124,48
DA:125,48
DA:131,39
DA:133,39
DA:134,39
DA:131,13
DA:133,13
DA:134,13
DA:131,30
DA:133,30
DA:134,30
DA:136,69
DA:137,69
DA:138,69
DA:136,152
DA:137,152
DA:138,152
DA:136,0
DA:137,0
DA:138,0
DA:276,81
DA:277,81
DA:276,304
DA:277,304
DA:276,0
DA:277,0
DA:276,192
DA:277,192
DA:280,135
DA:281,135
DA:280,62
DA:281,62
DA:280,56
DA:281,56
DA:280,0
DA:281,0
DA:284,24
DA:285,24
DA:288,39
DA:288,13
DA:288,30
DA:293,24
DA:294,24
DA:303,45
DA:304,45
DA:305,45
DA:303,152
DA:304,152
DA:305,152
DA:303,0
DA:304,0
DA:305,0
DA:333,152
DA:335,152
DA:336,152
DA:337,152
DA:333,0
DA:335,0
DA:336,0
DA:337,0
DA:333,16
DA:335,16
DA:336,16
DA:337,16
DA:333,99
DA:335,99
DA:336,99
DA:337,99
DA:343,34
DA:346,34
DA:343,45
DA:346,45
DA:343,152
DA:346,152
DA:343,0
DA:346,0
DA:350,152
DA:353,152
DA:354,152
DA:355,152
DA:350,0
DA:353,0
DA:354,0
DA:355,0
DA:350,47
DA:353,47
DA:354,34
DA:355,47
DA:350,99
DA:353,99
DA:354,45
DA:355,99
DA:359,45
DA:361,45
DA:362,45
DA:363,45
DA:364,45
DA:359,152
DA:361,152
DA:362,152
DA:363,152
DA:364,152
DA:359,0
DA:361,0
DA:362,0
DA:363,0
DA:364,0
DA:453,62
DA:456,62
DA:465,62
DA:469,62
DA:487,39
DA:487,13
DA:487,30
DA:497,24
DA:498,24
DA:522,13
DA:524,13
DA:525,13
DA:522,13
DA:524,13
DA:525,13
DA:553,135
DA:555,135
DA:557,135
DA:558,135
DA:560,135
DA:561,135
DA:553,32
DA:555,32
DA:557,32
DA:558,32
DA:560,32
DA:561,32
DA:553,0
DA:555,0
DA:557,0
DA:558,0
DA:560,0
DA:561,0
DA:678,16
DA:680,16
DA:681,16
DA:683,16
DA:678,152
DA:680,152
DA:681,152
DA:683,152
DA:678,0
DA:680,0
DA:681,0
DA:683,0
DA:678,99
DA:680,99
DA:681,99
DA:683,99
DA:709,24
DA:711,24
DA:714,24
DA:715,24
DA:811,71
DA:812,71
DA:820,135
DA:821,135
DA:820,48
DA:821,48
DA:820,0
DA:821,0
DA:829,71
DA:830,71
DA:838,135
DA:839,135
DA:838,48
DA:839,48
DA:838,0
DA:839,0
DA:847,12
DA:848,12
DA:865,40
DA:866,40
DA:918,135
DA:919,135
DA:918,124
DA:919,124
DA:918,0
DA:919,0
DA:918,68
DA:919,68
DA:923,62
DA:924,62
DA:1007,16
DA:1008,16
DA:1043,754
DA:1046,754
DA:1043,683
DA:1046,683
DA:1061,116
DA:1064,116
DA:1061,116
DA:1064,116
DA:1143,28
DA:1146,28
DA:1203,28
DA:1204,28
DA:1498,32
DA:1499,32
DA:1498,0
DA:1499,0
DA:1593,13
DA:1595,13
DA:1596,13
DA:1597,13
DA:1598,13
DA:1593,13
DA:1595,13
DA:1596,13
DA:1597,13
DA:1598,13
DA:1756,31
DA:1758,31
DA:1759,0
DA:1761,31
DA:1762,31
DA:1767,13
DA:1769,13
DA:1770,0
DA:1772,13
DA:1767,17
DA:1769,17
DA:1770,0
DA:1772,17
DA:1776,65
DA:1781,65
DA:1783,65
DA:1784,65
DA:1776,13
DA:1781,13
DA:1783,13
DA:1784,13
DA:1776,17
DA:1781,17
DA:1783,17
DA:1784,17
DA:1792,32
DA:1794,32
DA:1796,0
DA:1797,0
DA:1798,0
DA:1801,32
DA:1792,0
DA:1794,0
DA:1796,0
DA:1797,0
DA:1798,0
DA:1801,0
DA:1815,24
DA:1817,24
DA:1818,24
DA:1819,24
DA:1820,24
DA:1821,24
end_of_record
SF:/usr/include/c++/11/ext/new_allocator.h
FN:79,_ZN9__gnu_cxx13new_allocatorI4EdgeEC2Ev
FNDA:41,_ZN9__gnu_cxx13new_allocatorI4EdgeEC2Ev
FN:79,_ZN9__gnu_cxx13new_allocatorIcEC2Ev
FNDA:0,_ZN9__gnu_cxx13new_allocatorIcEC2Ev
FN:79,_ZN9__gnu_cxx13new_allocatorIbEC2Ev
FNDA:6,_ZN9__gnu_cxx13new_allocatorIbEC2Ev
FN:79,_ZN9__gnu_cxx13new_allocatorImEC2Ev
FNDA:28,_ZN9__gnu_cxx13new_allocatorImEC2Ev
FN:79,_ZN9__gnu_cxx13new_allocatorISt6vectorImSaImEEEC2Ev
FNDA:43,_ZN9__gnu_cxx13new_allocatorISt6vectorImSaImEEEC2Ev
FN:79,_ZN9__gnu_cxx13new_allocatorISt13_Rb_tree_nodeISt4pairIKi6VertexEEEC2Ev
FNDA:7,_ZN9__gnu_cxx13new_allocatorISt13_Rb_tree_nodeISt4pairIKi6VertexEEEC2Ev
FN:79,_ZN9__gnu_cxx13new_allocatorINSt8__detail10_Hash_nodeI4EdgeLb1EEEEC2Ev
FNDA:7,_ZN9__gnu_cxx13new_allocatorINSt8__detail10_Hash_nodeI4EdgeLb1EEEEC2Ev
FN:79,_ZN9__gnu_cxx13new_allocatorIiEC2Ev
FNDA:16,_ZN9__gnu_cxx13new_allocatorIiEC2Ev
FN:79,_ZN9__gnu_cxx13new_allocatorIPmEC2Ev
FNDA:10,_ZN9__gnu_cxx13new_allocatorIPmEC2Ev
FN:79,_ZN9__gnu_cxx13new_allocatorIPNSt8__detail15_Hash_node_baseEEC2Ev
FNDA:24,_ZN9__gnu_cxx13new_allocatorIPNSt8__detail15_Hash_node_baseEEC2Ev
FN:79,_ZN9__gnu_cxx13new_allocatorISt13_Rb_tree_nodeISt4pairIKmmEEEC2Ev
FNDA:38,_ZN9__gnu_cxx13new_allocatorISt13_Rb_tree_nodeISt4pairIKmmEEEC2Ev
FN:82,_ZN9__gnu_cxx13new_allocatorI4EdgeEC2ERKS2_
FNDA:0,_ZN9__gnu_cxx13new_allocatorI4EdgeEC2ERKS2_
FN:82,_ZN9__gnu_cxx13new_allocatorImEC2ERKS1_
FNDA:310,_ZN9__gnu_cxx13new_allocatorImEC2ERKS1_
FN:82,_ZN9__gnu_cxx13new_allocatorISt13_Rb_tree_nodeISt4pairIKmmEEEC2ERKS6_
FNDA:0,_ZN9__gnu_cxx13new_allocatorISt13_Rb_tree_nodeISt4pairIKmmEEEC2ERKS6_
FN:82,_ZN9__gnu_cxx13new_allocatorIcEC2ERKS1_
FNDA:0,_ZN9__gnu_cxx13new_allocatorIcEC2ERKS1_
FN:82,_ZN9__gnu_cxx13new_allocatorISt6vectorImSaImEEEC2ERKS4_
FNDA:138,_ZN9__gnu_cxx13new_allocatorISt6vectorImSaImEEEC2ERKS4_
FN:89,_ZN9__gnu_cxx13new_allocatorISt13_Rb_tree_nodeISt4pairIKmmEEED2Ev
FNDA:0,_ZN9__gnu_cxx13new_allocatorISt13_Rb_tree_nodeISt4pairIKmmEEED2Ev
FN:89,_ZN9__gnu_cxx13new_allocatorIPmED2Ev
FNDA:10,_ZN9__gnu_cxx13new_allocatorIPmED2Ev
FN:89,_ZN9__gnu_cxx13new_allocatorIPNSt8__detail15_Hash_node_baseEED2Ev
FNDA:24,_ZN9__gnu_cxx13new_allocatorIPNSt8__detail15_Hash_node_baseEED2Ev
FN:89,_ZN9__gnu_cxx13new_allocatorI4EdgeED2Ev
FNDA:0,_ZN9__gnu_cxx13new_allocatorI4EdgeED2Ev
FN:89,_ZN9__gnu_cxx13new_allocatorIiED2Ev
FNDA:22,_ZN9__gnu_cxx13new_allocatorIiED2Ev
FN:89,_ZN9__gnu_cxx13new_allocatorISt6vectorImSaImEEED2Ev
FNDA:181,_ZN9__gnu_cxx13new_allocatorISt6vectorImSaImEEED2Ev
FN:89,_ZN9__gnu_cxx13new_allocatorImED2Ev
FNDA:338,_ZN9__gnu_cxx13new_allocatorImED2Ev
FN:89,_ZN9__gnu_cxx13new_allocatorIcED2Ev
FNDA:0,_ZN9__gnu_cxx13new_allocatorIcED2Ev
FN:89,_ZN9__gnu_cxx13new_allocatorINSt8__detail10_Hash_nodeI4EdgeLb1EEEED2Ev
FNDA:7,_ZN9__gnu_cxx13new_allocatorINSt8__detail10_Hash_nodeI4EdgeLb1EEEED2Ev
FN:89,_ZN9__gnu_cxx13new_allocatorISt13_Rb_tree_nodeISt4pairIKi6VertexEEED2Ev
FNDA:7,_ZN9__gnu_cxx13new_allocatorISt13_Rb_tree_nodeISt4pairIKi6VertexEEED2Ev
FN:89,_ZN9__gnu_cxx13new_allocatorIbED2Ev
FNDA:6,_ZN9__gnu_cxx13new_allocatorIbED2Ev
FN:103,_ZN9__gnu_cxx13new_allocatorIiE8allocateEmPKv
FNDA:34,_ZN9__gnu_cxx13new_allocatorIiE8allocateEmPKv
FN:103,_ZN9__gnu_cxx13new_allocatorISt13_Rb_tree_nodeISt4pairIKmmEEE8allocateEmPKv
FNDA:0,_ZN9__gnu_cxx13new_allocatorISt13_Rb_tree_nodeISt4pairIKmmEEE8allocateEmPKv
FN:103,_ZN9__gnu_cxx13new_allocatorImE8allocateEmPKv
FNDA:163,_ZN9__gnu_cxx13new_allocatorImE8allocateEmPKv
FN:103,_ZN9__gnu_cxx13new_allocatorIPNSt8__detail15_Hash_node_baseEE8allocateEmPKv
FNDA:12,_ZN9__gnu_cxx13new_allocatorIPNSt8__detail15_Hash_node_baseEE8allocateEmPKv
FN:103,_ZN9__gnu_cxx13new_allocatorIPmE8allocateEmPKv
FNDA:5,_ZN9__gnu_cxx13new_allocatorIPmE8allocateEmPKv
FN:103,_ZN9__gnu_cxx13new_allocatorISt6vectorImSaImEEE8allocateEmPKv
FNDA:45,_ZN9__gnu_cxx13new_allocatorISt6vectorImSaImEEE8allocateEmPKv
FN:103,_ZN9__gnu_cxx13new_allocatorINSt8__detail10_Hash_nodeI4EdgeLb1EEEE8allocateEmPKv
FNDA:14,_ZN9__gnu_cxx13new_allocatorINSt8__detail10_Hash_nodeI4EdgeLb1EEEE8allocateEmPKv
FN:103,_ZN9__gnu_cxx13new_allocatorISt13_Rb_tree_nodeISt4pairIKi6VertexEEE8allocateEmPKv
FNDA:19,_ZN9__gnu_cxx13new_allocatorISt13_Rb_tree_nodeISt4pairIKi6VertexEEE8allocateEmPKv
FN:103,_ZN9__gnu_cxx13new_allocatorI4EdgeE8allocateEmPKv
FNDA:0,_ZN9__gnu_cxx13new_allocatorI4EdgeE8allocateEmPKv
FN:132,_ZN9__gnu_cxx13new_allocatorISt6vectorImSaImEEE10deallocateEPS3_m
FNDA:45,_ZN9__gnu_cxx13new_allocatorISt6vectorImSaImEEE10deallocateEPS3_m
FN:132,_ZN9__gnu_cxx13new_allocatorIiE10deallocateEPim
FNDA:34,_ZN9__gnu_cxx13new_allocatorIiE10deallocateEPim
FN:132,_ZN9__gnu_cxx13new_allocatorImE10deallocateEPmm
FNDA:163,_ZN9__gnu_cxx13new_allocatorImE10deallocateEPmm
FN:132,_ZN9__gnu_cxx13new_allocatorIPmE10deallocateEPS1_m
FNDA:5,_ZN9__gnu_cxx13new_allocatorIPmE10deallocateEPS1_m
FN:132,_ZN9__gnu_cxx13new_allocatorI4EdgeE10deallocateEPS1_m
FNDA:0,_ZN9__gnu_cxx13new_allocatorI4EdgeE10deallocateEPS1_m
FN:132,_ZN9__gnu_cxx13new_allocatorISt13_Rb_tree_nodeISt4pairIKmmEEE10deallocateEPS5_m
FNDA:0,_ZN9__gnu_cxx13new_allocatorISt13_Rb_tree_nodeISt4pairIKmmEEE10deallocateEPS5_m
FN:132,_ZN9__gnu_cxx13new_allocatorIPNSt8__detail15_Hash_node_baseEE10deallocateEPS3_m
FNDA:12,_ZN9__gnu_cxx13new_allocatorIPNSt8__detail15_Hash_node_baseEE10deallocateEPS3_m
FN:132,_ZN9__gnu_cxx13new_allocatorINSt8__detail10_Hash_nodeI4EdgeLb1EEEE10deallocateEPS4_m
FNDA:14,_ZN9__gnu_cxx13new_allocatorINSt8__detail10_Hash_nodeI4EdgeLb1EEEE10deallocateEPS4_m
FN:132,_ZN9__gnu_cxx13new_allocatorISt13_Rb_tree_nodeISt4pairIKi6VertexEEE10deallocateEPS6_m
FNDA:19,_ZN9__gnu_cxx13new_allocatorISt13_Rb_tree_nodeISt4pairIKi6VertexEEE10deallocateEPS6_m
FN:154,_ZNK9__gnu_cxx13new_allocatorISt6vectorImSaImEEE8max_sizeEv
FNDA:13,_ZNK9__gnu_cxx13new_allocatorISt6vectorImSaImEEE8max_sizeEv
FN:154,_ZNK9__gnu_cxx13new_allocatorIiE8max_sizeEv
FNDA:65,_ZNK9__gnu_cxx13new_allocatorIiE8max_sizeEv
FN:154,_ZNK9__gnu_cxx13new_allocatorImE8max_sizeEv
FNDA:17,_ZNK9__gnu_cxx13new_allocatorImE8max_sizeEv
FN:160,_ZN9__gnu_cxx13new_allocatorISt13_Rb_tree_nodeISt4pairIKi6VertexEEE9constructIS5_JRKSt21piecewise_construct_tSt5tupleIJOiEESC_IJEEEEEvPT_DpOT0_
FNDA:7,_ZN9__gnu_cxx13new_allocatorISt13_Rb_tree_nodeISt4pairIKi6VertexEEE9constructIS5_JRKSt21piecewise_construct_tSt5tupleIJOiEESC_IJEEEEEvPT_DpOT0_
FN:160,_ZN9__gnu_cxx13new_allocatorISt13_Rb_tree_nodeISt4pairIKi6VertexEEE9constructIS5_JRKSt21piecewise_construct_tSt5tupleIJRS3_EESC_IJEEEEEvPT_DpOT0_
FNDA:12,_ZN9__gnu_cxx13new_allocatorISt13_Rb_tree_nodeISt4pairIKi6VertexEEE9constructIS5_JRKSt21piecewise_construct_tSt5tupleIJRS3_EESC_IJEEEEEvPT_DpOT0_
FN:160,_ZN9__gnu_cxx13new_allocatorImE9constructImJmEEEvPT_DpOT0_
FNDA:5,_ZN9__gnu_cxx13new_allocatorImE9constructImJmEEEvPT_DpOT0_
FN:160,_ZN9__gnu_cxx13new_allocatorISt13_Rb_tree_nodeISt4pairIKmmEEE9constructIS4_JRKS4_EEEvPT_DpOT0_
FNDA:0,_ZN9__gnu_cxx13new_allocatorISt13_Rb_tree_nodeISt4pairIKmmEEE9constructIS4_JRKS4_EEEvPT_DpOT0_
FN:160,_ZN9__gnu_cxx13new_allocatorINSt8__detail10_Hash_nodeI4EdgeLb1EEEE9constructIS3_JRKS3_EEEvPT_DpOT0_
FNDA:14,_ZN9__gnu_cxx13new_allocatorINSt8__detail10_Hash_nodeI4EdgeLb1EEEE9constructIS3_JRKS3_EEEvPT_DpOT0_
FN:160,_ZN9__gnu_cxx13new_allocatorIiE9constructIiJiEEEvPT_DpOT0_
FNDA:28,_ZN9__gnu_cxx13new_allocatorIiE9constructIiJiEEEvPT_DpOT0_
FN:160,_ZN9__gnu_cxx13new_allocatorImE9constructImJRKmEEEvPT_DpOT0_
FNDA:9,_ZN9__gnu_cxx13new_allocatorImE9constructImJRKmEEEvPT_DpOT0_
FN:160,_ZN9__gnu_cxx13new_allocatorISt13_Rb_tree_nodeISt4pairIKmmEEE9constructIS4_JRKSt21piecewise_construct_tSt5tupleIJRS3_EESB_IJEEEEEvPT_DpOT0_
FNDA:28,_ZN9__gnu_cxx13new_allocatorISt13_Rb_tree_nodeISt4pairIKmmEEE9constructIS4_JRKSt21piecewise_construct_tSt5tupleIJRS3_EESB_IJEEEEEvPT_DpOT0_
FN:166,_ZN9__gnu_cxx13new_allocatorINSt8__detail10_Hash_nodeI4EdgeLb1EEEE7destroyIS3_EEvPT_
FNDA:14,_ZN9__gnu_cxx13new_allocatorINSt8__detail10_Hash_nodeI4EdgeLb1EEEE7destroyIS3_EEvPT_
FN:166,_ZN9__gnu_cxx13new_allocatorImE7destroyImEEvPT_
FNDA:14,_ZN9__gnu_cxx13new_allocatorImE7destroyImEEvPT_
FN:166,_ZN9__gnu_cxx13new_allocatorISt13_Rb_tree_nodeISt4pairIKmmEEE7destroyIS4_EEvPT_
FNDA:0,_ZN9__gnu_cxx13new_allocatorISt13_Rb_tree_nodeISt4pairIKmmEEE7destroyIS4_EEvPT_
FN:166,_ZN9__gnu_cxx13new_allocatorISt13_Rb_tree_nodeISt4pairIKi6VertexEEE7destroyIS5_EEvPT_
FNDA:19,_ZN9__gnu_cxx13new_allocatorISt13_Rb_tree_nodeISt4pairIKi6VertexEEE7destroyIS5_EEvPT_
FN:197,_ZNK9__gnu_cxx13new_allocatorISt13_Rb_tree_nodeISt4pairIKmmEEE11_M_max_sizeEv
FNDA:0,_ZNK9__gnu_cxx13new_allocatorISt13_Rb_tree_nodeISt4pairIKmmEEE11_M_max_sizeEv
FN:197,_ZNK9__gnu_cxx13new_allocatorISt6vectorImSaImEEE11_M_max_sizeEv
FNDA:58,_ZNK9__gnu_cxx13new_allocatorISt6vectorImSaImEEE11_M_max_sizeEv
FN:197,_ZNK9__gnu_cxx13new_allocatorIiE11_M_max_sizeEv
FNDA:99,_ZNK9__gnu_cxx13new_allocatorIiE11_M_max_sizeEv
FN:197,_ZNK9__gnu_cxx13new_allocatorISt13_Rb_tree_nodeISt4pairIKi6VertexEEE11_M_max_sizeEv
FNDA:19,_ZNK9__gnu_cxx13new_allocatorISt13_Rb_tree_nodeISt4pairIKi6VertexEEE11_M_max_sizeEv
FN:197,_ZNK9__gnu_cxx13new_allocatorIPNSt8__detail15_Hash_node_baseEE11_M_max_sizeEv
FNDA:12,_ZNK9__gnu_cxx13new_allocatorIPNSt8__detail15_Hash_node_baseEE11_M_max_sizeEv
FN:197,_ZNK9__gnu_cxx13new_allocatorI4EdgeE11_M_max_sizeEv
FNDA:0,_ZNK9__gnu_cxx13new_allocatorI4EdgeE11_M_max_sizeEv
FN:197,_ZNK9__gnu_cxx13new_allocatorImE11_M_max_sizeEv
FNDA:180,_ZNK9__gnu_cxx13new_allocatorImE11_M_max_sizeEv
FN:197,_ZNK9__gnu_cxx13new_allocatorINSt8__detail10_Hash_nodeI4EdgeLb1EEEE11_M_max_sizeEv
FNDA:14,_ZNK9__gnu_cxx13new_allocatorINSt8__detail10_Hash_nodeI4EdgeLb1EEEE11_M_max_sizeEv
FN:197,_ZNK9__gnu_cxx13new_allocatorIPmE11_M_max_sizeEv
FNDA:5,_ZNK9__gnu_cxx13new_allocatorIPmE11_M_max_sizeEv
DA:79,38
DA:79,41
DA:79,24
DA:79,10
DA:79,16
DA:79,7
DA:79,7
DA:79,43
DA:79,28
DA:79,6
DA:79,0
DA:82,0
DA:82,310
DA:82,0
DA:82,0
DA:82,138
DA:89,24
DA:89,10
DA:89,0
DA:89,0
DA:89,22
DA:89,338
DA:89,181
DA:89,7
DA:89,7
DA:89,6
DA:89,0
DA:103,12
DA:111,12
DA:115,0
DA:116,0
DA:117,0
DA:127,12
DA:103,14
DA:111,14
DA:115,0
DA:116,0
DA:117,0
DA:127,14
DA:103,34
DA:111,34
DA:115,0
DA:116,0
DA:117,0
DA:127,34
DA:103,0
DA:111,0
DA:115,0
DA:116,0
DA:117,0
DA:127,0
DA:103,45
DA:111,45
DA:115,0
DA:116,0
DA:117,0
DA:127,45
DA:103,19
DA:111,19
DA:115,0
DA:116,0
DA:117,0
DA:127,19
DA:103,0
DA:111,0
DA:115,0
DA:116,0
DA:117,0
DA:127,0
DA:103,5
DA:111,5
DA:115,0
DA:116,0
DA:117,0
DA:127,5
DA:103,163
DA:111,163
DA:115,0
DA:116,0
DA:117,0
DA:127,163
DA:132,14
DA:145,14
DA:132,0
DA:145,0
DA:132,12
DA:145,12
DA:132,19
DA:145,19
DA:132,0
DA:145,0
DA:132,5
DA:145,5
DA:132,163
DA:145,163
DA:132,34
DA:145,34
DA:132,45
DA:145,45
DA:154,65
DA:155,65
DA:154,13
DA:155,13
DA:154,17
DA:155,17
DA:160,0
DA:162,0
DA:160,14
DA:162,14
DA:160,28
DA:162,28
DA:160,12
DA:162,12
DA:160,7
DA:162,7
DA:160,5
DA:162,5
DA:160,28
DA:162,28
DA:160,9
DA:162,9
DA:166,0
DA:168,0
DA:166,14
DA:168,14
DA:166,19
DA:168,19
DA:166,14
DA:168,14
DA:197,12
DA:200,12
DA:197,14
DA:200,14
DA:197,99
DA:200,99
DA:197,0
DA:200,0
DA:197,58
DA:200,58
DA:197,19
DA:200,19
DA:197,0
DA:200,0
DA:197,5
DA:200,5
DA:197,180
DA:200,180
end_of_record
SF:/usr/include/c++/11/bits/alloc_traits.h
FN:463,_ZNSt16allocator_traitsISaIPNSt8__detail15_Hash_node_baseEEE8allocateERS3_m
FNDA:12,_ZNSt16allocator_traitsISaIPNSt8__detail15_Hash_node_baseEEE8allocateERS3_m
FN:463,_ZNSt16allocator_traitsISaIPmEE8allocateERS1_m
FNDA:5,_ZNSt16allocator_traitsISaIPmEE8allocateERS1_m
FN:463,_ZNSt16allocator_traitsISaI4EdgeEE8allocateERS1_m
FNDA:0,_ZNSt16allocator_traitsISaI4EdgeEE8allocateERS1_m
FN:463,_ZNSt16allocator_traitsISaISt13_Rb_tree_nodeISt4pairIKi6VertexEEEE8allocateERS6_m
FNDA:19,_ZNSt16allocator_traitsISaISt13_Rb_tree_nodeISt4pairIKi6VertexEEEE8allocateERS6_m
FN:463,_ZNSt16allocator_traitsISaImEE8allocateERS0_m
FNDA:163,_ZNSt16allocator_traitsISaImEE8allocateERS0_m
FN:463,_ZNSt16allocator_traitsISaISt6vectorImSaImEEEE8allocateERS3_m
FNDA:45,_ZNSt16allocator_traitsISaISt6vectorImSaImEEEE8allocateERS3_m
FN:463,_ZNSt16allocator_traitsISaISt13_Rb_tree_nodeISt4pairIKmmEEEE8allocateERS5_m
FNDA:0,_ZNSt16allocator_traitsISaISt13_Rb_tree_nodeISt4pairIKmmEEEE8allocateERS5_m
FN:463,_ZNSt16allocator_traitsISaIiEE8allocateERS0_m
FNDA:34,_ZNSt16allocator_traitsISaIiEE8allocateERS0_m
FN:463,_ZNSt16allocator_traitsISaINSt8__detail10_Hash_nodeI4EdgeLb1EEEEE8allocateERS4_m
FNDA:14,_ZNSt16allocator_traitsISaINSt8__detail10_Hash_nodeI4EdgeLb1EEEEE8allocateERS4_m
FN:495,_ZNSt16allocator_traitsISaINSt8__detail10_Hash_nodeI4EdgeLb1EEEEE10deallocateERS4_PS3_m
FNDA:14,_ZNSt16allocator_traitsISaINSt8__detail10_Hash_nodeI4EdgeLb1EEEEE10deallocateERS4_PS3_m
FN:495,_ZNSt16allocator_traitsISaImEE10deallocateERS0_Pmm
FNDA:163,_ZNSt16allocator_traitsISaImEE10deallocateERS0_Pmm
FN:495,_ZNSt16allocator_traitsISaIiEE10deallocateERS0_Pim
FNDA:34,_ZNSt16allocator_traitsISaIiEE10deallocateERS0_Pim
FN:495,_ZNSt16allocator_traitsISaISt6vectorImSaImEEEE10deallocateERS3_PS2_m
FNDA:45,_ZNSt16allocator_traitsISaISt6vectorImSaImEEEE10deallocateERS3_PS2_m
FN:495,_ZNSt16allocator_traitsISaISt13_Rb_tree_nodeISt4pairIKmmEEEE10deallocateERS5_PS4_m
FNDA:0,_ZNSt16allocator_traitsISaISt13_Rb_tree_nodeISt4pairIKmmEEEE10deallocateERS5_PS4_m
FN:495,_ZNSt16allocator_traitsISaIPmEE10deallocateERS1_PS0_m
FNDA:5,_ZNSt16allocator_traitsISaIPmEE10deallocateERS1_PS0_m
FN:495,_ZNSt16allocator_traitsISaIPNSt8__detail15_Hash_node_baseEEE10deallocateERS3_PS2_m
FNDA:12,_ZNSt16allocator_traitsISaIPNSt8__detail15_Hash_node_baseEEE10deallocateERS3_PS2_m
FN:495,_ZNSt16allocator_traitsISaISt13_Rb_tree_nodeISt4pairIKi6VertexEEEE10deallocateERS6_PS5_m
FNDA:19,_ZNSt16allocator_traitsISaISt13_Rb_tree_nodeISt4pairIKi6VertexEEEE10deallocateERS6_PS5_m
FN:495,_ZNSt16allocator_traitsISaI4EdgeEE10deallocateERS1_PS0_m
FNDA:0,_ZNSt16allocator_traitsISaI4EdgeEE10deallocateERS1_PS0_m
FN:511,_ZNSt16allocator_traitsISaIiEE9constructIiJiEEEvRS0_PT_DpOT0_
FNDA:28,_ZNSt16allocator_traitsISaIiEE9constructIiJiEEEvRS0_PT_DpOT0_
FN:511,_ZNSt16allocator_traitsISaImEE9constructImJRKmEEEvRS0_PT_DpOT0_
FNDA:9,_ZNSt16allocator_traitsISaImEE9constructImJRKmEEEvRS0_PT_DpOT0_
FN:511,_ZNSt16allocator_traitsISaImEE9constructImJmEEEvRS0_PT_DpOT0_
FNDA:5,_ZNSt16allocator_traitsISaImEE9constructImJmEEEvRS0_PT_DpOT0_
FN:511,_ZNSt16allocator_traitsISaISt13_Rb_tree_nodeISt4pairIKmmEEEE9constructIS3_JRKS3_EEEvRS5_PT_DpOT0_
FNDA:0,_ZNSt16allocator_traitsISaISt13_Rb_tree_nodeISt4pairIKmmEEEE9constructIS3_JRKS3_EEEvRS5_PT_DpOT0_
FN:511,_ZNSt16allocator_traitsISaISt13_Rb_tree_nodeISt4pairIKi6VertexEEEE9constructIS4_JRKSt21piecewise_construct_tSt5tupleIJOiEESC_IJEEEEEvRS6_PT_DpOT0_
FNDA:7,_ZNSt16allocator_traitsISaISt13_Rb_tree_nodeISt4pairIKi6VertexEEEE9constructIS4_JRKSt21piecewise_construct_tSt5tupleIJOiEESC_IJEEEEEvRS6_PT_DpOT0_
FN:511,_ZNSt16allocator_traitsISaISt13_Rb_tree_nodeISt4pairIKi6VertexEEEE9constructIS4_JRKSt21piecewise_construct_tSt5tupleIJRS2_EESC_IJEEEEEvRS6_PT_DpOT0_
FNDA:12,_ZNSt16allocator_traitsISaISt13_Rb_tree_nodeISt4pairIKi6VertexEEEE9constructIS4_JRKSt21piecewise_construct_tSt5tupleIJRS2_EESC_IJEEEEEvRS6_PT_DpOT0_
FN:511,_ZNSt16allocator_traitsISaINSt8__detail10_Hash_nodeI4EdgeLb1EEEEE9constructIS2_JRKS2_EEEvRS4_PT_DpOT0_
FNDA:14,_ZNSt16allocator_traitsISaINSt8__detail10_Hash_nodeI4EdgeLb1EEEEE9constructIS2_JRKS2_EEEvRS4_PT_DpOT0_
FN:511,_ZNSt16allocator_traitsISaISt13_Rb_tree_nodeISt4pairIKmmEEEE9constructIS3_JRKSt21piecewise_construct_tSt5tupleIJRS2_EESB_IJEEEEEvRS5_PT_DpOT0_
FNDA:28,_ZNSt16allocator_traitsISaISt13_Rb_tree_nodeISt4pairIKmmEEEE9constructIS3_JRKSt21piecewise_construct_tSt5tupleIJRS2_EESB_IJEEEEEvRS5_PT_DpOT0_
FN:531,_ZNSt16allocator_traitsISaImEE7destroyImEEvRS0_PT_
FNDA:14,_ZNSt16allocator_traitsISaImEE7destroyImEEvRS0_PT_
FN:531,_ZNSt16allocator_traitsISaISt13_Rb_tree_nodeISt4pairIKi6VertexEEEE7destroyIS4_EEvRS6_PT_
FNDA:19,_ZNSt16allocator_traitsISaISt13_Rb_tree_nodeISt4pairIKi6VertexEEEE7destroyIS4_EEvRS6_PT_
FN:531,_ZNSt16allocator_traitsISaINSt8__detail10_Hash_nodeI4EdgeLb1EEEEE7destroyIS2_EEvRS4_PT_
FNDA:14,_ZNSt16allocator_traitsISaINSt8__detail10_Hash_nodeI4EdgeLb1EEEEE7destroyIS2_EEvRS4_PT_
FN:531,_ZNSt16allocator_traitsISaISt13_Rb_tree_nodeISt4pairIKmmEEEE7destroyIS3_EEvRS5_PT_
FNDA:0,_ZNSt16allocator_traitsISaISt13_Rb_tree_nodeISt4pairIKmmEEEE7destroyIS3_EEvRS5_PT_
FN:547,_ZNSt16allocator_traitsISaImEE8max_sizeERKS0_
FNDA:17,_ZNSt16allocator_traitsISaImEE8max_sizeERKS0_
FN:547,_ZNSt16allocator_traitsISaIiEE8max_sizeERKS0_
FNDA:65,_ZNSt16allocator_traitsISaIiEE8max_sizeERKS0_
FN:547,_ZNSt16allocator_traitsISaISt6vectorImSaImEEEE8max_sizeERKS3_
FNDA:13,_ZNSt16allocator_traitsISaISt6vectorImSaImEEEE8max_sizeERKS3_
FN:562,_ZNSt16allocator_traitsISaISt6vectorImSaImEEEE37select_on_container_copy_constructionERKS3_
FNDA:32,_ZNSt16allocator_traitsISaISt6vectorImSaImEEEE37select_on_container_copy_constructionERKS3_
FN:562,_ZNSt16allocator_traitsISaIcEE37select_on_container_copy_constructionERKS0_
FNDA:0,_ZNSt16allocator_traitsISaIcEE37select_on_container_copy_constructionERKS0_
FN:562,_ZNSt16allocator_traitsISaI4EdgeEE37select_on_container_copy_constructionERKS1_
FNDA:0,_ZNSt16allocator_traitsISaI4EdgeEE37select_on_container_copy_constructionERKS1_
FN:562,_ZNSt16allocator_traitsISaISt13_Rb_tree_nodeISt4pairIKmmEEEE37select_on_container_copy_constructionERKS5_
FNDA:0,_ZNSt16allocator_traitsISaISt13_Rb_tree_nodeISt4pairIKmmEEEE37select_on_container_copy_constructionERKS5_
FN:562,_ZNSt16allocator_traitsISaImEE37select_on_container_copy_constructionERKS0_
FNDA:135,_ZNSt16allocator_traitsISaImEE37select_on_container_copy_constructionERKS0_
FN:710,_ZSt15__alloc_on_moveISaISt6vectorImSaImEEEEvRT_S5_
FNDA:24,_ZSt15__alloc_on_moveISaISt6vectorImSaImEEEEvRT_S5_
FN:845,_ZSt8_DestroyIPiiEvT_S1_RSaIT0_E
FNDA:16,_ZSt8_DestroyIPiiEvT_S1_RSaIT0_E
FN:845,_ZSt8_DestroyIPmmEvT_S1_RSaIT0_E
FNDA:152,_ZSt8_DestroyIPmmEvT_S1_RSaIT0_E
FN:845,_ZSt8_DestroyIP4EdgeS0_EvT_S2_RSaIT0_E
FNDA:0,_ZSt8_DestroyIP4EdgeS0_EvT_S2_RSaIT0_E
FN:845,_ZSt8_DestroyIPSt6vectorImSaImEES2_EvT_S4_RSaIT0_E
FNDA:99,_ZSt8_DestroyIPSt6vectorImSaImEES2_EvT_S4_RSaIT0_E
DA:463,12
DA:464,12
DA:463,14
DA:464,14
DA:463,34
DA:464,34
DA:463,0
DA:464,0
DA:463,45
DA:464,45
DA:463,19
DA:464,19
DA:463,0
DA:464,0
DA:463,5
DA:464,5
DA:463,163
DA:464,163
DA:495,14
DA:496,14
DA:495,0
DA:496,0
DA:495,12
DA:496,12
DA:495,19
DA:496,19
DA:495,0
DA:496,0
DA:495,5
DA:496,5
DA:495,163
DA:496,163
DA:495,34
DA:496,34
DA:495,45
DA:496,45
DA:511,0
DA:516,0
DA:520,0
DA:511,14
DA:516,14
DA:520,14
DA:511,28
DA:516,28
DA:520,28
DA:511,12
DA:516,12
DA:520,12
DA:511,7
DA:516,7
DA:520,7
DA:511,5
DA:516,5
DA:520,5
DA:511,28
DA:516,28
DA:520,28
DA:511,9
DA:516,9
DA:520,9
DA:531,0
DA:535,0
DA:539,0
DA:531,14
DA:535,14
DA:539,14
DA:531,19
DA:535,19
DA:539,19
DA:531,14
DA:535,14
DA:539,14
DA:547,65
DA:550,65
DA:547,13
DA:550,13
DA:547,17
DA:550,17
DA:562,135
DA:563,135
DA:562,0
DA:563,0
DA:562,0
DA:563,0
DA:562,32
DA:563,32
DA:562,0
DA:563,0
DA:710,24
DA:716,24
DA:720,24
DA:845,16
DA:848,16
DA:849,16
DA:845,152
DA:848,152
DA:849,152
DA:845,0
DA:848,0
DA:849,0
DA:845,99
DA:848,99
DA:849,99
end_of_record
SF:/usr/include/c++/11/bits/stl_pair.h
FN:266,_ZNSt4pairISt6vectorIS0_ImSaImEESaIS2_EES4_EC2IS4_S4_Lb1EEERKS4_S8_
FNDA:4,_ZNSt4pairISt6vectorIS0_ImSaImEESaIS2_EES4_EC2IS4_S4_Lb1EEERKS4_S8_
FN:322,_ZNSt4pairIPSt18_Rb_tree_node_baseS1_EC2IRS1_Lb1EEEOT_RKS1_
FNDA:0,_ZNSt4pairIPSt18_Rb_tree_node_baseS1_EC2IRS1_Lb1EEEOT_RKS1_
FN:336,_ZNSt4pairIPSt18_Rb_tree_node_baseS1_EC2IRS1_Lb1EEERKS1_OT_
FNDA:19,_ZNSt4pairIPSt18_Rb_tree_node_baseS1_EC2IRS1_Lb1EEERKS1_OT_
FN:352,_ZNSt4pairIPSt18_Rb_tree_node_baseS1_EC2IRPSt13_Rb_tree_nodeIS_IKmmEERS1_Lb1EEEOT_OT0_
FNDA:19,_ZNSt4pairIPSt18_Rb_tree_node_baseS1_EC2IRPSt13_Rb_tree_nodeIS_IKmmEERS1_Lb1EEEOT_OT0_
FN:352,_ZNSt4pairIPSt18_Rb_tree_node_baseS1_EC2IRPSt13_Rb_tree_nodeIS_IKi6VertexEERS1_Lb1EEEOT_OT0_
FNDA:7,_ZNSt4pairIPSt18_Rb_tree_node_baseS1_EC2IRPSt13_Rb_tree_nodeIS_IKi6VertexEERS1_Lb1EEEOT_OT0_
FN:352,_ZNSt4pairISt17_Rb_tree_iteratorIS_IKmmEES3_EC2IS3_S3_Lb1EEEOT_OT0_
FNDA:8,_ZNSt4pairISt17_Rb_tree_iteratorIS_IKmmEES3_EC2IS3_S3_Lb1EEEOT_OT0_
FN:352,_ZNSt4pairINSt8__detail14_Node_iteratorI4EdgeLb1ELb1EEEbEC2IRS3_bLb1EEEOT_OT0_
FNDA:14,_ZNSt4pairINSt8__detail14_Node_iteratorI4EdgeLb1ELb1EEEbEC2IRS3_bLb1EEEOT_OT0_
FN:352,_ZNSt4pairINSt8__detail14_Node_iteratorI4EdgeLb1ELb1EEEbEC2IS3_bLb1EEEOT_OT0_
FNDA:0,_ZNSt4pairINSt8__detail14_Node_iteratorI4EdgeLb1ELb1EEEbEC2IS3_bLb1EEEOT_OT0_
FN:352,_ZNSt4pairIPSt18_Rb_tree_node_baseS1_EC2IRS1_S4_Lb1EEEOT_OT0_
FNDA:8,_ZNSt4pairIPSt18_Rb_tree_node_baseS1_EC2IRS1_S4_Lb1EEEOT_OT0_
FN:352,_ZNSt4pairISt6vectorIS0_ImSaImEESaIS2_EES4_EC2IRS4_S7_Lb1EEEOT_OT0_
FNDA:4,_ZNSt4pairISt6vectorIS0_ImSaImEESaIS2_EES4_EC2IRS4_S7_Lb1EEEOT_OT0_
FN:567,_ZSt9make_pairIRKSt6vectorIS0_ImSaImEESaIS2_EES6_ESt4pairINSt25__strip_reference_wrapperINSt5decayIT_E4typeEE6__typeENS8_INS9_IT0_E4typeEE6__typeEEOSA_OSF_
FNDA:4,_ZSt9make_pairIRKSt6vectorIS0_ImSaImEESaIS2_EES6_ESt4pairINSt25__strip_reference_wrapperINSt5decayIT_E4typeEE6__typeENS8_INS9_IT0_E4typeEE6__typeEEOSA_OSF_
DA:266,4
DA:267,4
DA:322,0
DA:323,0
DA:336,19
DA:337,19
DA:352,19
DA:353,19
DA:352,7
DA:353,7
DA:352,8
DA:353,8
DA:352,14
DA:353,14
DA:352,0
DA:353,0
DA:352,8
DA:353,8
DA:352,4
DA:353,4
DA:567,4
DA:572,4
end_of_record
SF:/usr/include/c++/11/bits/stl_uninitialized.h
FN:85,_ZNSt20__uninitialized_copyILb0EE13__uninit_copyIN9__gnu_cxx17__normal_iteratorIPK4EdgeSt6vectorIS4_SaIS4_EEEEPS4_EET0_T_SD_SC_
FNDA:0,_ZNSt20__uninitialized_copyILb0EE13__uninit_copyIN9__gnu_cxx17__normal_iteratorIPK4EdgeSt6vectorIS4_SaIS4_EEEEPS4_EET0_T_SD_SC_
FN:85,_ZNSt20__uninitialized_copyILb0EE13__uninit_copyIN9__gnu_cxx17__normal_iteratorIPKSt6vectorImSaImEES4_IS6_SaIS6_EEEEPS6_EET0_T_SE_SD_
FNDA:32,_ZNSt20__uninitialized_copyILb0EE13__uninit_copyIN9__gnu_cxx17__normal_iteratorIPKSt6vectorImSaImEES4_IS6_SaIS6_EEEEPS6_EET0_T_SE_SD_
FN:108,_ZNSt20__uninitialized_copyILb1EE13__uninit_copyIN9__gnu_cxx17__normal_iteratorIPKmSt6vectorImSaImEEEEPmEET0_T_SC_SB_
FNDA:135,_ZNSt20__uninitialized_copyILb1EE13__uninit_copyIN9__gnu_cxx17__normal_iteratorIPKmSt6vectorImSaImEEEEPmEET0_T_SC_SB_
FN:126,_ZSt18uninitialized_copyIN9__gnu_cxx17__normal_iteratorIPKmSt6vectorImSaImEEEEPmET0_T_SA_S9_
FNDA:135,_ZSt18uninitialized_copyIN9__gnu_cxx17__normal_iteratorIPKmSt6vectorImSaImEEEEPmET0_T_SA_S9_
FN:126,_ZSt18uninitialized_copyIN9__gnu_cxx17__normal_iteratorIPK4EdgeSt6vectorIS2_SaIS2_EEEEPS2_ET0_T_SB_SA_
FNDA:0,_ZSt18uninitialized_copyIN9__gnu_cxx17__normal_iteratorIPK4EdgeSt6vectorIS2_SaIS2_EEEEPS2_ET0_T_SB_SA_
FN:126,_ZSt18uninitialized_copyIN9__gnu_cxx17__normal_iteratorIPKSt6vectorImSaImEES2_IS4_SaIS4_EEEEPS4_ET0_T_SC_SB_
FNDA:32,_ZSt18uninitialized_copyIN9__gnu_cxx17__normal_iteratorIPKSt6vectorImSaImEES2_IS4_SaIS4_EEEEPS4_ET0_T_SC_SB_
FN:230,_ZNSt22__uninitialized_fill_nILb0EE15__uninit_fill_nIPSt6vectorImSaImEEmS4_EET_S6_T0_RKT1_
FNDA:13,_ZNSt22__uninitialized_fill_nILb0EE15__uninit_fill_nIPSt6vectorImSaImEEmS4_EET_S6_T0_RKT1_
FN:253,_ZNSt22__uninitialized_fill_nILb1EE15__uninit_fill_nIPmmmEET_S3_T0_RKT1_
FNDA:13,_ZNSt22__uninitialized_fill_nILb1EE15__uninit_fill_nIPmmmEET_S3_T0_RKT1_
FN:273,_ZSt20uninitialized_fill_nIPSt6vectorImSaImEEmS2_ET_S4_T0_RKT1_
FNDA:13,_ZSt20uninitialized_fill_nIPSt6vectorImSaImEEmS2_ET_S4_T0_RKT1_
FN:273,_ZSt20uninitialized_fill_nIPmmmET_S1_T0_RKT1_
FNDA:13,_ZSt20uninitialized_fill_nIPmmmET_S1_T0_RKT1_
FN:331,_ZSt22__uninitialized_copy_aIN9__gnu_cxx17__normal_iteratorIPKmSt6vectorImSaImEEEEPmmET0_T_SA_S9_RSaIT1_E
FNDA:135,_ZSt22__uninitialized_copy_aIN9__gnu_cxx17__normal_iteratorIPKmSt6vectorImSaImEEEEPmmET0_T_SA_S9_RSaIT1_E
FN:331,_ZSt22__uninitialized_copy_aIN9__gnu_cxx17__normal_iteratorIPKSt6vectorImSaImEES2_IS4_SaIS4_EEEEPS4_S4_ET0_T_SC_SB_RSaIT1_E
FNDA:32,_ZSt22__uninitialized_copy_aIN9__gnu_cxx17__normal_iteratorIPKSt6vectorImSaImEES2_IS4_SaIS4_EEEEPS4_S4_ET0_T_SC_SB_RSaIT1_E
FN:331,_ZSt22__uninitialized_copy_aIN9__gnu_cxx17__normal_iteratorIPK4EdgeSt6vectorIS2_SaIS2_EEEEPS2_S2_ET0_T_SB_SA_RSaIT1_E
FNDA:0,_ZSt22__uninitialized_copy_aIN9__gnu_cxx17__normal_iteratorIPK4EdgeSt6vectorIS2_SaIS2_EEEEPS2_S2_ET0_T_SB_SA_RSaIT1_E
FN:408,_ZSt24__uninitialized_fill_n_aIPSt6vectorImSaImEEmS2_S2_ET_S4_T0_RKT1_RSaIT2_E
FNDA:13,_ZSt24__uninitialized_fill_n_aIPSt6vectorImSaImEEmS2_S2_ET_S4_T0_RKT1_RSaIT2_E
FN:408,_ZSt24__uninitialized_fill_n_aIPmmmmET_S1_T0_RKT1_RSaIT2_E
FNDA:13,_ZSt24__uninitialized_fill_n_aIPmmmmET_S1_T0_RKT1_RSaIT2_E
FN:1006,_ZSt14__relocate_a_1IiiENSt9enable_ifIXsrSt24__is_bitwise_relocatableIT_vE5valueEPS2_E4typeES4_S4_S4_RSaIT0_E
FNDA:62,_ZSt14__relocate_a_1IiiENSt9enable_ifIXsrSt24__is_bitwise_relocatableIT_vE5valueEPS2_E4typeES4_S4_S4_RSaIT0_E
FN:1040,_ZSt12__relocate_aIPiS0_SaIiEET0_T_S3_S2_RT1_
FNDA:62,_ZSt12__relocate_aIPiS0_SaIiEET0_T_S3_S2_RT1_
DA:85,32
DA:88,32
DA:91,128
DA:92,96
DA:93,32
DA:95,0
DA:97,0
DA:98,0
DA:85,0
DA:88,0
DA:91,0
DA:92,0
DA:93,0
DA:95,0
DA:97,0
DA:98,0
DA:108,135
DA:110,135
DA:126,135
DA:145,135
DA:151,135
DA:126,32
DA:145,32
DA:151,32
DA:126,0
DA:145,0
DA:151,0
DA:230,13
DA:233,13
DA:236,52
DA:237,39
DA:238,13
DA:240,0
DA:242,0
DA:243,0
DA:253,13
DA:255,13
DA:273,13
DA:293,13
DA:297,13
DA:273,13
DA:293,13
DA:297,13
DA:331,135
DA:333,135
DA:331,32
DA:333,32
DA:331,0
DA:333,0
DA:408,13
DA:410,13
DA:408,13
DA:410,13
DA:1006,62
DA:1009,62
DA:1010,62
DA:1011,18
DA:1012,62
DA:1040,62
DA:1046,62
DA:1048,62
end_of_record
SF:/usr/include/c++/11/bits/stl_map.h
FN:185,_ZNSt3mapIi6VertexSt4lessIiESaISt4pairIKiS0_EEEC2Ev
FNDA:7,_ZNSt3mapIi6VertexSt4lessIiESaISt4pairIKiS0_EEEC2Ev
FN:185,_ZNSt3mapImmSt4lessImESaISt4pairIKmmEEEC2Ev
FNDA:38,_ZNSt3mapImmSt4lessImESaISt4pairIKmmEEEC2Ev
FN:207,_ZNSt3mapImmSt4lessImESaISt4pairIKmmEEEC2ERKS6_
FNDA:0,_ZNSt3mapImmSt4lessImESaISt4pairIKmmEEEC2ERKS6_
FN:302,_ZNSt3mapIi6VertexSt4lessIiESaISt4pairIKiS0_EEED2Ev
FNDA:7,_ZNSt3mapIi6VertexSt4lessIiESaISt4pairIKiS0_EEED2Ev
FN:302,_ZNSt3mapImmSt4lessImESaISt4pairIKmmEEED2Ev
FNDA:0,_ZNSt3mapImmSt4lessImESaISt4pairIKmmEEED2Ev
FN:356,_ZNSt3mapIi6VertexSt4lessIiESaISt4pairIKiS0_EEE5beginEv
FNDA:5,_ZNSt3mapIi6VertexSt4lessIiESaISt4pairIKiS0_EEE5beginEv
FN:365,_ZNKSt3mapIi6VertexSt4lessIiESaISt4pairIKiS0_EEE5beginEv
FNDA:4,_ZNKSt3mapIi6VertexSt4lessIiESaISt4pairIKiS0_EEE5beginEv
FN:374,_ZNSt3mapImmSt4lessImESaISt4pairIKmmEEE3endEv
FNDA:37,_ZNSt3mapImmSt4lessImESaISt4pairIKmmEEE3endEv
FN:374,_ZNSt3mapIi6VertexSt4lessIiESaISt4pairIKiS0_EEE3endEv
FNDA:152,_ZNSt3mapIi6VertexSt4lessIiESaISt4pairIKiS0_EEE3endEv
FN:383,_ZNKSt3mapIi6VertexSt4lessIiESaISt4pairIKiS0_EEE3endEv
FNDA:4,_ZNKSt3mapIi6VertexSt4lessIiESaISt4pairIKiS0_EEE3endEv
FN:470,_ZNKSt3mapIi6VertexSt4lessIiESaISt4pairIKiS0_EEE4sizeEv
FNDA:58,_ZNKSt3mapIi6VertexSt4lessIiESaISt4pairIKiS0_EEE4sizeEv
FN:492,_ZNSt3mapImmSt4lessImESaISt4pairIKmmEEEixERS3_
FNDA:28,_ZNSt3mapImmSt4lessImESaISt4pairIKmmEEEixERS3_
FN:492,_ZNSt3mapIi6VertexSt4lessIiESaISt4pairIKiS0_EEEixERS4_
FNDA:44,_ZNSt3mapIi6VertexSt4lessIiESaISt4pairIKiS0_EEEixERS4_
FN:512,_ZNSt3mapIi6VertexSt4lessIiESaISt4pairIKiS0_EEEixEOi
FNDA:103,_ZNSt3mapIi6VertexSt4lessIiESaISt4pairIKiS0_EEEixEOi
FN:546,_ZNKSt3mapIi6VertexSt4lessIiESaISt4pairIKiS0_EEE2atERS4_
FNDA:0,_ZNKSt3mapIi6VertexSt4lessIiESaISt4pairIKiS0_EEE2atERS4_
FN:1068,_ZNSt3mapImmSt4lessImESaISt4pairIKmmEEE5eraseERS3_
FNDA:8,_ZNSt3mapImmSt4lessImESaISt4pairIKmmEEE5eraseERS3_
FN:1133,_ZNSt3mapImmSt4lessImESaISt4pairIKmmEEE5clearEv
FNDA:24,_ZNSt3mapImmSt4lessImESaISt4pairIKmmEEE5clearEv
FN:1142,_ZNKSt3mapIi6VertexSt4lessIiESaISt4pairIKiS0_EEE8key_compEv
FNDA:132,_ZNKSt3mapIi6VertexSt4lessIiESaISt4pairIKiS0_EEE8key_compEv
FN:1142,_ZNKSt3mapImmSt4lessImESaISt4pairIKmmEEE8key_compEv
FNDA:2,_ZNKSt3mapImmSt4lessImESaISt4pairIKmmEEE8key_compEv
FN:1194,_ZNKSt3mapIi6VertexSt4lessIiESaISt4pairIKiS0_EEE4findERS4_
FNDA:0,_ZNKSt3mapIi6VertexSt4lessIiESaISt4pairIKiS0_EEE4findERS4_
FN:1258,_ZNSt3mapIi6VertexSt4lessIiESaISt4pairIKiS0_EEE11lower_boundERS4_
FNDA:147,_ZNSt3mapIi6VertexSt4lessIiESaISt4pairIKiS0_EEE11lower_boundERS4_
FN:1258,_ZNSt3mapImmSt4lessImESaISt4pairIKmmEEE11lower_boundERS3_
FNDA:28,_ZNSt3mapImmSt4lessImESaISt4pairIKmmEEE11lower_boundERS3_
FN:1283,_ZNKSt3mapIi6VertexSt4lessIiESaISt4pairIKiS0_EEE11lower_boundERS4_
FNDA:0,_ZNKSt3mapIi6VertexSt4lessIiESaISt4pairIKiS0_EEE11lower_boundERS4_
DA:185,38
DA:185,7
DA:207,0
DA:302,0
DA:302,7
DA:356,5
DA:357,5
DA:365,4
DA:366,4
DA:374,37
DA:375,37
DA:374,152
DA:375,152
DA:383,4
DA:384,4
DA:470,58
DA:471,58
DA:492,28
DA:497,28
DA:499,28
DA:501,28
DA:502,28
DA:503,28
DA:507,28
DA:492,44
DA:497,44
DA:499,44
DA:501,12
DA:502,12
DA:503,12
DA:507,44
DA:512,103
DA:517,103
DA:519,103
DA:520,7
DA:521,7
DA:522,7
DA:523,103
DA:546,0
DA:548,0
DA:549,0
DA:550,0
DA:551,0
DA:1068,8
DA:1069,8
DA:1133,24
DA:1134,24
DA:1142,2
DA:1143,2
DA:1142,132
DA:1143,132
DA:1194,0
DA:1195,0
DA:1258,28
DA:1259,28
DA:1258,147
DA:1259,147
DA:1283,0
DA:1284,0
end_of_record
SF:/usr/include/c++/11/bits/charconv.h
FN:47,_ZNSt8__detail14__to_chars_lenImEEjT_i
FNDA:63,_ZNSt8__detail14__to_chars_lenImEEjT_i
FN:47,_ZNSt8__detail14__to_chars_lenIjEEjT_i
FNDA:60,_ZNSt8__detail14__to_chars_lenIjEEjT_i
FN:72,_ZNSt8__detail18__to_chars_10_implImEEvPcjT_
FNDA:63,_ZNSt8__detail18__to_chars_10_implImEEvPcjT_
FN:72,_ZNSt8__detail18__to_chars_10_implIjEEvPcjT_
FNDA:60,_ZNSt8__detail18__to_chars_10_implIjEEvPcjT_
DA:47,63
DA:52,63
DA:53,63
DA:54,63
DA:55,63
DA:58,63
DA:59,0
DA:60,0
DA:61,0
DA:62,0
DA:63,0
DA:47,60
DA:52,60
DA:53,60
DA:54,60
DA:55,60
DA:58,60
DA:59,0
DA:60,0
DA:61,0
DA:62,0
DA:63,0
DA:72,63
DA:83,63
DA:84,63
DA:86,0
DA:87,0
DA:88,0
DA:89,0
DA:90,0
DA:92,63
DA:94,0
DA:95,0
DA:96,0
DA:99,63
DA:100,63
DA:72,60
DA:83,60
DA:84,60
DA:86,0
DA:87,0
DA:88,0
DA:89,0
DA:90,0
DA:92,60
DA:94,0
DA:95,0
DA:96,0
DA:99,60
DA:100,60
end_of_record
SF:/usr/include/c++/11/ext/alloc_traits.h
FN:97,_ZN9__gnu_cxx14__alloc_traitsISaImEmE17_S_select_on_copyERKS1_
FNDA:135,_ZN9__gnu_cxx14__alloc_traitsISaImEmE17_S_select_on_copyERKS1_
FN:97,_ZN9__gnu_cxx14__alloc_traitsISaISt13_Rb_tree_nodeISt4pairIKmmEEES5_E17_S_select_on_copyERKS6_
FNDA:0,_ZN9__gnu_cxx14__alloc_traitsISaISt13_Rb_tree_nodeISt4pairIKmmEEES5_E17_S_select_on_copyERKS6_
FN:97,_ZN9__gnu_cxx14__alloc_traitsISaIcEcE17_S_select_on_copyERKS1_
FNDA:0,_ZN9__gnu_cxx14__alloc_traitsISaIcEcE17_S_select_on_copyERKS1_
FN:97,_ZN9__gnu_cxx14__alloc_traitsISaISt6vectorImSaImEEES3_E17_S_select_on_copyERKS4_
FNDA:32,_ZN9__gnu_cxx14__alloc_traitsISaISt6vectorImSaImEEES3_E17_S_select_on_copyERKS4_
FN:97,_ZN9__gnu_cxx14__alloc_traitsISaI4EdgeES1_E17_S_select_on_copyERKS2_
FNDA:0,_ZN9__gnu_cxx14__alloc_traitsISaI4EdgeES1_E17_S_select_on_copyERKS2_
DA:97,135
DA:98,135
DA:97,0
DA:98,0
DA:97,0
DA:98,0
DA:97,32
DA:98,32
DA:97,0
DA:98,0
end_of_record
SF:/usr/include/c++/11/bits/unordered_set.h
FN:135,_ZNSt13unordered_setI4EdgeSt4hashIS0_ESt8equal_toIS0_ESaIS0_EEC2Ev
FNDA:7,_ZNSt13unordered_setI4EdgeSt4hashIS0_ESt8equal_toIS0_ESaIS0_EEC2Ev
FN:304,_ZNKSt13unordered_setI4EdgeSt4hashIS0_ESt8equal_toIS0_ESaIS0_EE4sizeEv
FNDA:6,_ZNKSt13unordered_setI4EdgeSt4hashIS0_ESt8equal_toIS0_ESaIS0_EE4sizeEv
FN:320,_ZNSt13unordered_setI4EdgeSt4hashIS0_ESt8equal_toIS0_ESaIS0_EE5beginEv
FNDA:3,_ZNSt13unordered_setI4EdgeSt4hashIS0_ESt8equal_toIS0_ESaIS0_EE5beginEv
FN:320,_ZNSt13unordered_setI6VertexSt4hashIS0_ESt8equal_toIS0_ESaIS0_EE5beginEv
FNDA:6,_ZNSt13unordered_setI6VertexSt4hashIS0_ESt8equal_toIS0_ESaIS0_EE5beginEv
FN:324,_ZNKSt13unordered_setI4EdgeSt4hashIS0_ESt8equal_toIS0_ESaIS0_EE5beginEv
FNDA:13,_ZNKSt13unordered_setI4EdgeSt4hashIS0_ESt8equal_toIS0_ESaIS0_EE5beginEv
FN:334,_ZNSt13unordered_setI4EdgeSt4hashIS0_ESt8equal_toIS0_ESaIS0_EE3endEv
FNDA:9,_ZNSt13unordered_setI4EdgeSt4hashIS0_ESt8equal_toIS0_ESaIS0_EE3endEv
FN:334,_ZNSt13unordered_setI6VertexSt4hashIS0_ESt8equal_toIS0_ESaIS0_EE3endEv
FNDA:6,_ZNSt13unordered_setI6VertexSt4hashIS0_ESt8equal_toIS0_ESaIS0_EE3endEv
FN:338,_ZNKSt13unordered_setI4EdgeSt4hashIS0_ESt8equal_toIS0_ESaIS0_EE3endEv
FNDA:13,_ZNKSt13unordered_setI4EdgeSt4hashIS0_ESt8equal_toIS0_ESaIS0_EE3endEv
FN:421,_ZNSt13unordered_setI4EdgeSt4hashIS0_ESt8equal_toIS0_ESaIS0_EE6insertERKS0_
FNDA:14,_ZNSt13unordered_setI4EdgeSt4hashIS0_ESt8equal_toIS0_ESaIS0_EE6insertERKS0_
FN:545,_ZNSt13unordered_setI4EdgeSt4hashIS0_ESt8equal_toIS0_ESaIS0_EE5eraseERKS0_
FNDA:4,_ZNSt13unordered_setI4EdgeSt4hashIS0_ESt8equal_toIS0_ESaIS0_EE5eraseERKS0_
FN:650,_ZNSt13unordered_setI6VertexSt4hashIS0_ESt8equal_toIS0_ESaIS0_EE4findERKS0_
FNDA:0,_ZNSt13unordered_setI6VertexSt4hashIS0_ESt8equal_toIS0_ESaIS0_EE4findERKS0_
DA:135,7
DA:304,6
DA:305,6
DA:320,3
DA:321,3
DA:320,6
DA:321,6
DA:324,13
DA:325,13
DA:334,9
DA:335,9
DA:334,6
DA:335,6
DA:338,13
DA:339,13
DA:421,14
DA:422,14
DA:545,4
DA:546,4
DA:650,0
DA:651,0
end_of_record
SF:/usr/include/c++/11/bits/hashtable.h
FN:297,_ZNSt10_HashtableI4EdgeS0_SaIS0_ENSt8__detail9_IdentityESt8equal_toIS0_ESt4hashIS0_ENS2_18_Mod_range_hashingENS2_20_Default_ranged_hashENS2_20_Prime_rehash_policyENS2_17_Hashtable_traitsILb1ELb1ELb1EEEE12_Scoped_nodeC2EPNS2_10_Hash_nodeIS0_Lb1EEEPNS2_16_Hashtable_allocISaISG_EEE
FNDA:14,_ZNSt10_HashtableI4EdgeS0_SaIS0_ENSt8__detail9_IdentityESt8equal_toIS0_ESt4hashIS0_ENS2_18_Mod_range_hashingENS2_20_Default_ranged_hashENS2_20_Prime_rehash_policyENS2_17_Hashtable_traitsILb1ELb1ELb1EEEE12_Scoped_nodeC2EPNS2_10_Hash_nodeIS0_Lb1EEEPNS2_16_Hashtable_allocISaISG_EEE
FN:308,_ZNSt10_HashtableI4EdgeS0_SaIS0_ENSt8__detail9_IdentityESt8equal_toIS0_ESt4hashIS0_ENS2_18_Mod_range_hashingENS2_20_Default_ranged_hashENS2_20_Prime_rehash_policyENS2_17_Hashtable_traitsILb1ELb1ELb1EEEE12_Scoped_nodeD2Ev
FNDA:14,_ZNSt10_HashtableI4EdgeS0_SaIS0_ENSt8__detail9_IdentityESt8equal_toIS0_ESt4hashIS0_ENS2_18_Mod_range_hashingENS2_20_Default_ranged_hashENS2_20_Prime_rehash_policyENS2_17_Hashtable_traitsILb1ELb1ELb1EEEE12_Scoped_nodeD2Ev
FN:421,_ZNKSt10_HashtableI4EdgeS0_SaIS0_ENSt8__detail9_IdentityESt8equal_toIS0_ESt4hashIS0_ENS2_18_Mod_range_hashingENS2_20_Default_ranged_hashENS2_20_Prime_rehash_policyENS2_17_Hashtable_traitsILb1ELb1ELb1EEEE21_M_uses_single_bucketEPPNS2_15_Hash_node_baseE
FNDA:13,_ZNKSt10_HashtableI4EdgeS0_SaIS0_ENSt8__detail9_IdentityESt8equal_toIS0_ESt4hashIS0_ENS2_18_Mod_range_hashingENS2_20_Default_ranged_hashENS2_20_Prime_rehash_policyENS2_17_Hashtable_traitsILb1ELb1ELb1EEEE21_M_uses_single_bucketEPPNS2_15_Hash_node_baseE
FN:432,_ZNSt10_HashtableI4EdgeS0_SaIS0_ENSt8__detail9_IdentityESt8equal_toIS0_ESt4hashIS0_ENS2_18_Mod_range_hashingENS2_20_Default_ranged_hashENS2_20_Prime_rehash_policyENS2_17_Hashtable_traitsILb1ELb1ELb1EEEE19_M_allocate_bucketsEm
FNDA:6,_ZNSt10_HashtableI4EdgeS0_SaIS0_ENSt8__detail9_IdentityESt8equal_toIS0_ESt4hashIS0_ENS2_18_Mod_range_hashingENS2_20_Default_ranged_hashENS2_20_Prime_rehash_policyENS2_17_Hashtable_traitsILb1ELb1ELb1EEEE19_M_allocate_bucketsEm
FN:444,_ZNSt10_HashtableI4EdgeS0_SaIS0_ENSt8__detail9_IdentityESt8equal_toIS0_ESt4hashIS0_ENS2_18_Mod_range_hashingENS2_20_Default_ranged_hashENS2_20_Prime_rehash_policyENS2_17_Hashtable_traitsILb1ELb1ELb1EEEE21_M_deallocate_bucketsEPPNS2_15_Hash_node_baseEm
FNDA:13,_ZNSt10_HashtableI4EdgeS0_SaIS0_ENSt8__detail9_IdentityESt8equal_toIS0_ESt4hashIS0_ENS2_18_Mod_range_hashingENS2_20_Default_ranged_hashENS2_20_Prime_rehash_policyENS2_17_Hashtable_traitsILb1ELb1ELb1EEEE21_M_deallocate_bucketsEPPNS2_15_Hash_node_baseEm
FN:453,_ZNSt10_HashtableI4EdgeS0_SaIS0_ENSt8__detail9_IdentityESt8equal_toIS0_ESt4hashIS0_ENS2_18_Mod_range_hashingENS2_20_Default_ranged_hashENS2_20_Prime_rehash_policyENS2_17_Hashtable_traitsILb1ELb1ELb1EEEE21_M_deallocate_bucketsEv
FNDA:13,_ZNSt10_HashtableI4EdgeS0_SaIS0_ENSt8__detail9_IdentityESt8equal_toIS0_ESt4hashIS0_ENS2_18_Mod_range_hashingENS2_20_Default_ranged_hashENS2_20_Prime_rehash_policyENS2_17_Hashtable_traitsILb1ELb1ELb1EEEE21_M_deallocate_bucketsEv
FN:462,_ZNKSt10_HashtableI6VertexS0_SaIS0_ENSt8__detail9_IdentityESt8equal_toIS0_ESt4hashIS0_ENS2_18_Mod_range_hashingENS2_20_Default_ranged_hashENS2_20_Prime_rehash_policyENS2_17_Hashtable_traitsILb1ELb1ELb1EEEE8_M_beginEv
FNDA:24,_ZNKSt10_HashtableI6VertexS0_SaIS0_ENSt8__detail9_IdentityESt8equal_toIS0_ESt4hashIS0_ENS2_18_Mod_range_hashingENS2_20_Default_ranged_hashENS2_20_Prime_rehash_policyENS2_17_Hashtable_traitsILb1ELb1ELb1EEEE8_M_beginEv
FN:462,_ZNKSt10_HashtableI4EdgeS0_SaIS0_ENSt8__detail9_IdentityESt8equal_toIS0_ESt4hashIS0_ENS2_18_Mod_range_hashingENS2_20_Default_ranged_hashENS2_20_Prime_rehash_policyENS2_17_Hashtable_traitsILb1ELb1ELb1EEEE8_M_beginEv
FNDA:29,_ZNKSt10_HashtableI4EdgeS0_SaIS0_ENSt8__detail9_IdentityESt8equal_toIS0_ESt4hashIS0_ENS2_18_Mod_range_hashingENS2_20_Default_ranged_hashENS2_20_Prime_rehash_policyENS2_17_Hashtable_traitsILb1ELb1ELb1EEEE8_M_beginEv
FN:528,_ZNSt10_HashtableI4EdgeS0_SaIS0_ENSt8__detail9_IdentityESt8equal_toIS0_ESt4hashIS0_ENS2_18_Mod_range_hashingENS2_20_Default_ranged_hashENS2_20_Prime_rehash_policyENS2_17_Hashtable_traitsILb1ELb1ELb1EEEEC2Ev
FNDA:7,_ZNSt10_HashtableI4EdgeS0_SaIS0_ENSt8__detail9_IdentityESt8equal_toIS0_ESt4hashIS0_ENS2_18_Mod_range_hashingENS2_20_Default_ranged_hashENS2_20_Prime_rehash_policyENS2_17_Hashtable_traitsILb1ELb1ELb1EEEEC2Ev
FN:621,_ZNSt10_HashtableI4EdgeS0_SaIS0_ENSt8__detail9_IdentityESt8equal_toIS0_ESt4hashIS0_ENS2_18_Mod_range_hashingENS2_20_Default_ranged_hashENS2_20_Prime_rehash_policyENS2_17_Hashtable_traitsILb1ELb1ELb1EEEE5beginEv
FNDA:3,_ZNSt10_HashtableI4EdgeS0_SaIS0_ENSt8__detail9_IdentityESt8equal_toIS0_ESt4hashIS0_ENS2_18_Mod_range_hashingENS2_20_Default_ranged_hashENS2_20_Prime_rehash_policyENS2_17_Hashtable_traitsILb1ELb1ELb1EEEE5beginEv
FN:621,_ZNSt10_HashtableI6VertexS0_SaIS0_ENSt8__detail9_IdentityESt8equal_toIS0_ESt4hashIS0_ENS2_18_Mod_range_hashingENS2_20_Default_ranged_hashENS2_20_Prime_rehash_policyENS2_17_Hashtable_traitsILb1ELb1ELb1EEEE5beginEv
FNDA:6,_ZNSt10_HashtableI6VertexS0_SaIS0_ENSt8__detail9_IdentityESt8equal_toIS0_ESt4hashIS0_ENS2_18_Mod_range_hashingENS2_20_Default_ranged_hashENS2_20_Prime_rehash_policyENS2_17_Hashtable_traitsILb1ELb1ELb1EEEE5beginEv
FN:625,_ZNKSt10_HashtableI4EdgeS0_SaIS0_ENSt8__detail9_IdentityESt8equal_toIS0_ESt4hashIS0_ENS2_18_Mod_range_hashingENS2_20_Default_ranged_hashENS2_20_Prime_rehash_policyENS2_17_Hashtable_traitsILb1ELb1ELb1EEEE5beginEv
FNDA:13,_ZNKSt10_HashtableI4EdgeS0_SaIS0_ENSt8__detail9_IdentityESt8equal_toIS0_ESt4hashIS0_ENS2_18_Mod_range_hashingENS2_20_Default_ranged_hashENS2_20_Prime_rehash_policyENS2_17_Hashtable_traitsILb1ELb1ELb1EEEE5beginEv
FN:629,_ZNSt10_HashtableI4EdgeS0_SaIS0_ENSt8__detail9_IdentityESt8equal_toIS0_ESt4hashIS0_ENS2_18_Mod_range_hashingENS2_20_Default_ranged_hashENS2_20_Prime_rehash_policyENS2_17_Hashtable_traitsILb1ELb1ELb1EEEE3endEv
FNDA:9,_ZNSt10_HashtableI4EdgeS0_SaIS0_ENSt8__detail9_IdentityESt8equal_toIS0_ESt4hashIS0_ENS2_18_Mod_range_hashingENS2_20_Default_ranged_hashENS2_20_Prime_rehash_policyENS2_17_Hashtable_traitsILb1ELb1ELb1EEEE3endEv
FN:629,_ZNSt10_HashtableI6VertexS0_SaIS0_ENSt8__detail9_IdentityESt8equal_toIS0_ESt4hashIS0_ENS2_18_Mod_range_hashingENS2_20_Default_ranged_hashENS2_20_Prime_rehash_policyENS2_17_Hashtable_traitsILb1ELb1ELb1EEEE3endEv
FNDA:6,_ZNSt10_HashtableI6VertexS0_SaIS0_ENSt8__detail9_IdentityESt8equal_toIS0_ESt4hashIS0_ENS2_18_Mod_range_hashingENS2_20_Default_ranged_hashENS2_20_Prime_rehash_policyENS2_17_Hashtable_traitsILb1ELb1ELb1EEEE3endEv
FN:633,_ZNKSt10_HashtableI4EdgeS0_SaIS0_ENSt8__detail9_IdentityESt8equal_toIS0_ESt4hashIS0_ENS2_18_Mod_range_hashingENS2_20_Default_ranged_hashENS2_20_Prime_rehash_policyENS2_17_Hashtable_traitsILb1ELb1ELb1EEEE3endEv
FNDA:13,_ZNKSt10_HashtableI4EdgeS0_SaIS0_ENSt8__detail9_IdentityESt8equal_toIS0_ESt4hashIS0_ENS2_18_Mod_range_hashingENS2_20_Default_ranged_hashENS2_20_Prime_rehash_policyENS2_17_Hashtable_traitsILb1ELb1ELb1EEEE3endEv
FN:645,_ZNKSt10_HashtableI4EdgeS0_SaIS0_ENSt8__detail9_IdentityESt8equal_toIS0_ESt4hashIS0_ENS2_18_Mod_range_hashingENS2_20_Default_ranged_hashENS2_20_Prime_rehash_policyENS2_17_Hashtable_traitsILb1ELb1ELb1EEEE4sizeEv
FNDA:6,_ZNKSt10_HashtableI4EdgeS0_SaIS0_ENSt8__detail9_IdentityESt8equal_toIS0_ESt4hashIS0_ENS2_18_Mod_range_hashingENS2_20_Default_ranged_hashENS2_20_Prime_rehash_policyENS2_17_Hashtable_traitsILb1ELb1ELb1EEEE4sizeEv
FN:790,_ZNKSt10_HashtableI6VertexS0_SaIS0_ENSt8__detail9_IdentityESt8equal_toIS0_ESt4hashIS0_ENS2_18_Mod_range_hashingENS2_20_Default_ranged_hashENS2_20_Prime_rehash_policyENS2_17_Hashtable_traitsILb1ELb1ELb1EEEE15_M_bucket_indexERKNS2_16_Hash_node_valueIS0_Lb1EEE
FNDA:11,_ZNKSt10_HashtableI6VertexS0_SaIS0_ENSt8__detail9_IdentityESt8equal_toIS0_ESt4hashIS0_ENS2_18_Mod_range_hashingENS2_20_Default_ranged_hashENS2_20_Prime_rehash_policyENS2_17_Hashtable_traitsILb1ELb1ELb1EEEE15_M_bucket_indexERKNS2_16_Hash_node_valueIS0_Lb1EEE
FN:790,_ZNKSt10_HashtableI4EdgeS0_SaIS0_ENSt8__detail9_IdentityESt8equal_toIS0_ESt4hashIS0_ENS2_18_Mod_range_hashingENS2_20_Default_ranged_hashENS2_20_Prime_rehash_policyENS2_17_Hashtable_traitsILb1ELb1ELb1EEEE15_M_bucket_indexERKNS2_16_Hash_node_valueIS0_Lb1EEE
FNDA:8,_ZNKSt10_HashtableI4EdgeS0_SaIS0_ENSt8__detail9_IdentityESt8equal_toIS0_ESt4hashIS0_ENS2_18_Mod_range_hashingENS2_20_Default_ranged_hashENS2_20_Prime_rehash_policyENS2_17_Hashtable_traitsILb1ELb1ELb1EEEE15_M_bucket_indexERKNS2_16_Hash_node_valueIS0_Lb1EEE
FN:794,_ZNKSt10_HashtableI4EdgeS0_SaIS0_ENSt8__detail9_IdentityESt8equal_toIS0_ESt4hashIS0_ENS2_18_Mod_range_hashingENS2_20_Default_ranged_hashENS2_20_Prime_rehash_policyENS2_17_Hashtable_traitsILb1ELb1ELb1EEEE15_M_bucket_indexEm
FNDA:24,_ZNKSt10_HashtableI4EdgeS0_SaIS0_ENSt8__detail9_IdentityESt8equal_toIS0_ESt4hashIS0_ENS2_18_Mod_range_hashingENS2_20_Default_ranged_hashENS2_20_Prime_rehash_policyENS2_17_Hashtable_traitsILb1ELb1ELb1EEEE15_M_bucket_indexEm
FN:794,_ZNKSt10_HashtableI6VertexS0_SaIS0_ENSt8__detail9_IdentityESt8equal_toIS0_ESt4hashIS0_ENS2_18_Mod_range_hashingENS2_20_Default_ranged_hashENS2_20_Prime_rehash_policyENS2_17_Hashtable_traitsILb1ELb1ELb1EEEE15_M_bucket_indexEm
FNDA:10,_ZNKSt10_HashtableI6VertexS0_SaIS0_ENSt8__detail9_IdentityESt8equal_toIS0_ESt4hashIS0_ENS2_18_Mod_range_hashingENS2_20_Default_ranged_hashENS2_20_Prime_rehash_policyENS2_17_Hashtable_traitsILb1ELb1ELb1EEEE15_M_bucket_indexEm
FN:807,_ZNKSt10_HashtableI6VertexS0_SaIS0_ENSt8__detail9_IdentityESt8equal_toIS0_ESt4hashIS0_ENS2_18_Mod_range_hashingENS2_20_Default_ranged_hashENS2_20_Prime_rehash_policyENS2_17_Hashtable_traitsILb1ELb1ELb1EEEE12_M_find_nodeEmRKS0_m
FNDA:7,_ZNKSt10_HashtableI6VertexS0_SaIS0_ENSt8__detail9_IdentityESt8equal_toIS0_ESt4hashIS0_ENS2_18_Mod_range_hashingENS2_20_Default_ranged_hashENS2_20_Prime_rehash_policyENS2_17_Hashtable_traitsILb1ELb1ELb1EEEE12_M_find_nodeEmRKS0_m
FN:807,_ZNKSt10_HashtableI4EdgeS0_SaIS0_ENSt8__detail9_IdentityESt8equal_toIS0_ESt4hashIS0_ENS2_18_Mod_range_hashingENS2_20_Default_ranged_hashENS2_20_Prime_rehash_policyENS2_17_Hashtable_traitsILb1ELb1ELb1EEEE12_M_find_nodeEmRKS0_m
FNDA:14,_ZNKSt10_HashtableI4EdgeS0_SaIS0_ENSt8__detail9_IdentityESt8equal_toIS0_ESt4hashIS0_ENS2_18_Mod_range_hashingENS2_20_Default_ranged_hashENS2_20_Prime_rehash_policyENS2_17_Hashtable_traitsILb1ELb1ELb1EEEE12_M_find_nodeEmRKS0_m
FN:937,_ZNSt10_HashtableI4EdgeS0_SaIS0_ENSt8__detail9_IdentityESt8equal_toIS0_ESt4hashIS0_ENS2_18_Mod_range_hashingENS2_20_Default_ranged_hashENS2_20_Prime_rehash_policyENS2_17_Hashtable_traitsILb1ELb1ELb1EEEE5eraseERKS0_
FNDA:4,_ZNSt10_HashtableI4EdgeS0_SaIS0_ENSt8__detail9_IdentityESt8equal_toIS0_ESt4hashIS0_ENS2_18_Mod_range_hashingENS2_20_Default_ranged_hashENS2_20_Prime_rehash_policyENS2_17_Hashtable_traitsILb1ELb1ELb1EEEE5eraseERKS0_
FN:1528,_ZNSt10_HashtableI4EdgeS0_SaIS0_ENSt8__detail9_IdentityESt8equal_toIS0_ESt4hashIS0_ENS2_18_Mod_range_hashingENS2_20_Default_ranged_hashENS2_20_Prime_rehash_policyENS2_17_Hashtable_traitsILb1ELb1ELb1EEEED2Ev
FNDA:7,_ZNSt10_HashtableI4EdgeS0_SaIS0_ENSt8__detail9_IdentityESt8equal_toIS0_ESt4hashIS0_ENS2_18_Mod_range_hashingENS2_20_Default_ranged_hashENS2_20_Prime_rehash_policyENS2_17_Hashtable_traitsILb1ELb1ELb1EEEED2Ev
FN:1588,_ZNSt10_HashtableI6VertexS0_SaIS0_ENSt8__detail9_IdentityESt8equal_toIS0_ESt4hashIS0_ENS2_18_Mod_range_hashingENS2_20_Default_ranged_hashENS2_20_Prime_rehash_policyENS2_17_Hashtable_traitsILb1ELb1ELb1EEEE4findERKS0_
FNDA:0,_ZNSt10_HashtableI6VertexS0_SaIS0_ENSt8__detail9_IdentityESt8equal_toIS0_ESt4hashIS0_ENS2_18_Mod_range_hashingENS2_20_Default_ranged_hashENS2_20_Prime_rehash_policyENS2_17_Hashtable_traitsILb1ELb1ELb1EEEE4findERKS0_
FN:1827,_ZNKSt10_HashtableI6VertexS0_SaIS0_ENSt8__detail9_IdentityESt8equal_toIS0_ESt4hashIS0_ENS2_18_Mod_range_hashingENS2_20_Default_ranged_hashENS2_20_Prime_rehash_policyENS2_17_Hashtable_traitsILb1ELb1ELb1EEEE19_M_find_before_nodeEmRKS0_m
FNDA:7,_ZNKSt10_HashtableI6VertexS0_SaIS0_ENSt8__detail9_IdentityESt8equal_toIS0_ESt4hashIS0_ENS2_18_Mod_range_hashingENS2_20_Default_ranged_hashENS2_20_Prime_rehash_policyENS2_17_Hashtable_traitsILb1ELb1ELb1EEEE19_M_find_before_nodeEmRKS0_m
FN:1827,_ZNKSt10_HashtableI4EdgeS0_SaIS0_ENSt8__detail9_IdentityESt8equal_toIS0_ESt4hashIS0_ENS2_18_Mod_range_hashingENS2_20_Default_ranged_hashENS2_20_Prime_rehash_policyENS2_17_Hashtable_traitsILb1ELb1ELb1EEEE19_M_find_before_nodeEmRKS0_m
FNDA:18,_ZNKSt10_HashtableI4EdgeS0_SaIS0_ENSt8__detail9_IdentityESt8equal_toIS0_ESt4hashIS0_ENS2_18_Mod_range_hashingENS2_20_Default_ranged_hashENS2_20_Prime_rehash_policyENS2_17_Hashtable_traitsILb1ELb1ELb1EEEE19_M_find_before_nodeEmRKS0_m
FN:1886,_ZNSt10_HashtableI4EdgeS0_SaIS0_ENSt8__detail9_IdentityESt8equal_toIS0_ESt4hashIS0_ENS2_18_Mod_range_hashingENS2_20_Default_ranged_hashENS2_20_Prime_rehash_policyENS2_17_Hashtable_traitsILb1ELb1ELb1EEEE22_M_insert_bucket_beginEmPNS2_10_Hash_nodeIS0_Lb1EEE
FNDA:14,_ZNSt10_HashtableI4EdgeS0_SaIS0_ENSt8__detail9_IdentityESt8equal_toIS0_ESt4hashIS0_ENS2_18_Mod_range_hashingENS2_20_Default_ranged_hashENS2_20_Prime_rehash_policyENS2_17_Hashtable_traitsILb1ELb1ELb1EEEE22_M_insert_bucket_beginEmPNS2_10_Hash_nodeIS0_Lb1EEE
FN:1919,_ZNSt10_HashtableI4EdgeS0_SaIS0_ENSt8__detail9_IdentityESt8equal_toIS0_ESt4hashIS0_ENS2_18_Mod_range_hashingENS2_20_Default_ranged_hashENS2_20_Prime_rehash_policyENS2_17_Hashtable_traitsILb1ELb1ELb1EEEE22_M_remove_bucket_beginEmPNS2_10_Hash_nodeIS0_Lb1EEEm
FNDA:2,_ZNSt10_HashtableI4EdgeS0_SaIS0_ENSt8__detail9_IdentityESt8equal_toIS0_ESt4hashIS0_ENS2_18_Mod_range_hashingENS2_20_Default_ranged_hashENS2_20_Prime_rehash_policyENS2_17_Hashtable_traitsILb1ELb1ELb1EEEE22_M_remove_bucket_beginEmPNS2_10_Hash_nodeIS0_Lb1EEEm
FN:2008,_ZNSt10_HashtableI4EdgeS0_SaIS0_ENSt8__detail9_IdentityESt8equal_toIS0_ESt4hashIS0_ENS2_18_Mod_range_hashingENS2_20_Default_ranged_hashENS2_20_Prime_rehash_policyENS2_17_Hashtable_traitsILb1ELb1ELb1EEEE21_M_insert_unique_nodeEmmPNS2_10_Hash_nodeIS0_Lb1EEEm
FNDA:14,_ZNSt10_HashtableI4EdgeS0_SaIS0_ENSt8__detail9_IdentityESt8equal_toIS0_ESt4hashIS0_ENS2_18_Mod_range_hashingENS2_20_Default_ranged_hashENS2_20_Prime_rehash_policyENS2_17_Hashtable_traitsILb1ELb1ELb1EEEE21_M_insert_unique_nodeEmmPNS2_10_Hash_nodeIS0_Lb1EEEm
FN:2095,_ZNSt10_HashtableI4EdgeS0_SaIS0_ENSt8__detail9_IdentityESt8equal_toIS0_ESt4hashIS0_ENS2_18_Mod_range_hashingENS2_20_Default_ranged_hashENS2_20_Prime_rehash_policyENS2_17_Hashtable_traitsILb1ELb1ELb1EEEE9_M_insertIRKS0_NS2_10_AllocNodeISaINS2_10_Hash_nodeIS0_Lb1EEEEEEEESt4pairINS2_14_Node_iteratorIS0_Lb1ELb1EEEbEOT_RKT0_St17integral_constantIbLb1EE
FNDA:14,_ZNSt10_HashtableI4EdgeS0_SaIS0_ENSt8__detail9_IdentityESt8equal_toIS0_ESt4hashIS0_ENS2_18_Mod_range_hashingENS2_20_Default_ranged_hashENS2_20_Prime_rehash_policyENS2_17_Hashtable_traitsILb1ELb1ELb1EEEE9_M_insertIRKS0_NS2_10_AllocNodeISaINS2_10_Hash_nodeIS0_Lb1EEEEEEEESt4pairINS2_14_Node_iteratorIS0_Lb1ELb1EEEbEOT_RKT0_St17integral_constantIbLb1EE
FN:2166,_ZNSt10_HashtableI4EdgeS0_SaIS0_ENSt8__detail9_IdentityESt8equal_toIS0_ESt4hashIS0_ENS2_18_Mod_range_hashingENS2_20_Default_ranged_hashENS2_20_Prime_rehash_policyENS2_17_Hashtable_traitsILb1ELb1ELb1EEEE8_M_eraseEmPNS2_15_Hash_node_baseEPNS2_10_Hash_nodeIS0_Lb1EEE
FNDA:2,_ZNSt10_HashtableI4EdgeS0_SaIS0_ENSt8__detail9_IdentityESt8equal_toIS0_ESt4hashIS0_ENS2_18_Mod_range_hashingENS2_20_Default_ranged_hashENS2_20_Prime_rehash_policyENS2_17_Hashtable_traitsILb1ELb1ELb1EEEE8_M_eraseEmPNS2_15_Hash_node_baseEPNS2_10_Hash_nodeIS0_Lb1EEE
FN:2194,_ZNSt10_HashtableI4EdgeS0_SaIS0_ENSt8__detail9_IdentityESt8equal_toIS0_ESt4hashIS0_ENS2_18_Mod_range_hashingENS2_20_Default_ranged_hashENS2_20_Prime_rehash_policyENS2_17_Hashtable_traitsILb1ELb1ELb1EEEE8_M_eraseESt17integral_constantIbLb1EERKS0_
FNDA:4,_ZNSt10_HashtableI4EdgeS0_SaIS0_ENSt8__detail9_IdentityESt8equal_toIS0_ESt4hashIS0_ENS2_18_Mod_range_hashingENS2_20_Default_ranged_hashENS2_20_Prime_rehash_policyENS2_17_Hashtable_traitsILb1ELb1ELb1EEEE8_M_eraseESt17integral_constantIbLb1EERKS0_
FN:2316,_ZNSt10_HashtableI4EdgeS0_SaIS0_ENSt8__detail9_IdentityESt8equal_toIS0_ESt4hashIS0_ENS2_18_Mod_range_hashingENS2_20_Default_ranged_hashENS2_20_Prime_rehash_policyENS2_17_Hashtable_traitsILb1ELb1ELb1EEEE5clearEv
FNDA:7,_ZNSt10_HashtableI4EdgeS0_SaIS0_ENSt8__detail9_IdentityESt8equal_toIS0_ESt4hashIS0_ENS2_18_Mod_range_hashingENS2_20_Default_ranged_hashENS2_20_Prime_rehash_policyENS2_17_Hashtable_traitsILb1ELb1ELb1EEEE5clearEv
FN:2355,_ZNSt10_HashtableI4EdgeS0_SaIS0_ENSt8__detail9_IdentityESt8equal_toIS0_ESt4hashIS0_ENS2_18_Mod_range_hashingENS2_20_Default_ranged_hashENS2_20_Prime_rehash_policyENS2_17_Hashtable_traitsILb1ELb1ELb1EEEE9_M_rehashEmRKm
FNDA:6,_ZNSt10_HashtableI4EdgeS0_SaIS0_ENSt8__detail9_IdentityESt8equal_toIS0_ESt4hashIS0_ENS2_18_Mod_range_hashingENS2_20_Default_ranged_hashENS2_20_Prime_rehash_policyENS2_17_Hashtable_traitsILb1ELb1ELb1EEEE9_M_rehashEmRKm
FN:2378,_ZNSt10_HashtableI4EdgeS0_SaIS0_ENSt8__detail9_IdentityESt8equal_toIS0_ESt4hashIS0_ENS2_18_Mod_range_hashingENS2_20_Default_ranged_hashENS2_20_Prime_rehash_policyENS2_17_Hashtable_traitsILb1ELb1ELb1EEEE13_M_rehash_auxEmSt17integral_constantIbLb1EE
FNDA:6,_ZNSt10_HashtableI4EdgeS0_SaIS0_ENSt8__detail9_IdentityESt8equal_toIS0_ESt4hashIS0_ENS2_18_Mod_range_hashingENS2_20_Default_ranged_hashENS2_20_Prime_rehash_policyENS2_17_Hashtable_traitsILb1ELb1ELb1EEEE13_M_rehash_auxEmSt17integral_constantIbLb1EE
DA:297,14
DA:298,14
DA:308,14
DA:421,13
DA:422,13
DA:432,6
DA:434,6
DA:436,0
DA:437,0
DA:440,6
DA:444,13
DA:446,13
DA:447,7
DA:449,6
DA:453,13
DA:454,13
DA:462,24
DA:463,24
DA:462,29
DA:463,29
DA:528,7
DA:621,3
DA:622,3
DA:621,6
DA:622,6
DA:625,13
DA:626,13
DA:629,9
DA:630,9
DA:629,6
DA:630,6
DA:633,13
DA:634,13
DA:645,6
DA:646,6
DA:790,8
DA:791,8
DA:790,11
DA:791,11
DA:794,24
DA:795,24
DA:794,10
DA:795,10
DA:807,14
DA:810,14
DA:811,14
DA:812,0
DA:813,14
DA:807,7
DA:810,7
DA:811,7
DA:812,0
DA:813,7
DA:937,4
DA:938,4
DA:1528,7
DA:1532,7
DA:1533,7
DA:1534,7
DA:1588,0
DA:1593,0
DA:1594,0
DA:1595,0
DA:1827,18
DA:1833,18
DA:1834,18
DA:1835,16
DA:1837,2
DA:1838,0
DA:1840,2
DA:1841,2
DA:1843,0
DA:1844,0
DA:1845,0
DA:1848,0
DA:1827,7
DA:1833,7
DA:1834,7
DA:1835,7
DA:1837,0
DA:1838,0
DA:1840,0
DA:1841,0
DA:1843,0
DA:1844,0
DA:1845,0
DA:1848,0
DA:1886,14
DA:1890,14
DA:1894,0
DA:1895,0
DA:1902,14
DA:1903,14
DA:1905,14
DA:1908,8
DA:1910,14
DA:1912,14
DA:1919,2
DA:1924,2
DA:1928,2
DA:1929,0
DA:1932,2
DA:1933,0
DA:1934,2
DA:1936,2
DA:2008,14
DA:2014,14
DA:2016,14
DA:2019,14
DA:2021,6
DA:2022,6
DA:2025,14
DA:2028,14
DA:2029,14
DA:2030,14
DA:2095,14
DA:2101,14
DA:2102,14
DA:2103,14
DA:2105,14
DA:2106,0
DA:2108,14
DA:2110,14
DA:2111,14
DA:2112,14
DA:2113,14
DA:2166,2
DA:2171,2
DA:2172,2
DA:2173,2
DA:2174,0
DA:2176,0
DA:2177,0
DA:2178,0
DA:2181,2
DA:2182,2
DA:2183,2
DA:2184,2
DA:2186,2
DA:2194,4
DA:2199,4
DA:2200,4
DA:2203,4
DA:2204,4
DA:2205,2
DA:2208,2
DA:2209,2
DA:2210,2
DA:2316,7
DA:2320,7
DA:2321,7
DA:2322,7
DA:2323,7
DA:2324,7
DA:2325,7
DA:2355,6
DA:2361,6
DA:2363,0
DA:2367,0
DA:2368,0
DA:2370,6
DA:2378,6
DA:2382,6
DA:2383,6
DA:2384,6
DA:2385,6
DA:2386,6
DA:2388,0
DA:2390,0
DA:2391,0
DA:2393,0
DA:2394,0
DA:2395,0
DA:2396,0
DA:2397,0
DA:2398,0
DA:2402,0
DA:2403,0
DA:2406,0
DA:2409,6
DA:2410,6
DA:2411,6
DA:2412,6
end_of_record
SF:/usr/include/c++/11/bits/stl_iterator.h
FN:184,_ZNSt16reverse_iteratorIN9__gnu_cxx17__normal_iteratorIPiSt6vectorIiSaIiEEEEEC2ES6_
FNDA:52,_ZNSt16reverse_iteratorIN9__gnu_cxx17__normal_iteratorIPiSt6vectorIiSaIiEEEEEC2ES6_
FN:190,_ZNSt16reverse_iteratorIN9__gnu_cxx17__normal_iteratorIPiSt6vectorIiSaIiEEEEEC2ERKS7_
FNDA:28,_ZNSt16reverse_iteratorIN9__gnu_cxx17__normal_iteratorIPiSt6vectorIiSaIiEEEEEC2ERKS7_
FN:228,_ZNKSt16reverse_iteratorIN9__gnu_cxx17__normal_iteratorIPiSt6vectorIiSaIiEEEEE4baseEv
FNDA:80,_ZNKSt16reverse_iteratorIN9__gnu_cxx17__normal_iteratorIPiSt6vectorIiSaIiEEEEE4baseEv
FN:242,_ZNKSt16reverse_iteratorIN9__gnu_cxx17__normal_iteratorIPiSt6vectorIiSaIiEEEEEdeEv
FNDA:28,_ZNKSt16reverse_iteratorIN9__gnu_cxx17__normal_iteratorIPiSt6vectorIiSaIiEEEEEdeEv
FN:285,_ZNSt16reverse_iteratorIN9__gnu_cxx17__normal_iteratorIPiSt6vectorIiSaIiEEEEEppEi
FNDA:28,_ZNSt16reverse_iteratorIN9__gnu_cxx17__normal_iteratorIPiSt6vectorIiSaIiEEEEEppEi
FN:420,_ZSteqIN9__gnu_cxx17__normal_iteratorIPiSt6vectorIiSaIiEEEEEbRKSt16reverse_iteratorIT_ESB_
FNDA:40,_ZSteqIN9__gnu_cxx17__normal_iteratorIPiSt6vectorIiSaIiEEEEEbRKSt16reverse_iteratorIT_ESB_
FN:432,_ZStneIN9__gnu_cxx17__normal_iteratorIPiSt6vectorIiSaIiEEEEEbRKSt16reverse_iteratorIT_ESB_
FNDA:40,_ZStneIN9__gnu_cxx17__normal_iteratorIPiSt6vectorIiSaIiEEEEEbRKSt16reverse_iteratorIT_ESB_
FN:1027,_ZN9__gnu_cxx17__normal_iteratorIPKmSt6vectorImSaImEEEC2ERKS2_
FNDA:270,_ZN9__gnu_cxx17__normal_iteratorIPKmSt6vectorImSaImEEEC2ERKS2_
FN:1027,_ZN9__gnu_cxx17__normal_iteratorIPK4EdgeSt6vectorIS1_SaIS1_EEEC2ERKS3_
FNDA:0,_ZN9__gnu_cxx17__normal_iteratorIPK4EdgeSt6vectorIS1_SaIS1_EEEC2ERKS3_
FN:1027,_ZN9__gnu_cxx17__normal_iteratorIPKSt6vectorImSaImEES1_IS3_SaIS3_EEEC2ERKS5_
FNDA:96,_ZN9__gnu_cxx17__normal_iteratorIPKSt6vectorImSaImEES1_IS3_SaIS3_EEEC2ERKS5_
FN:1027,_ZN9__gnu_cxx17__normal_iteratorIPiSt6vectorIiSaIiEEEC2ERKS1_
FNDA:170,_ZN9__gnu_cxx17__normal_iteratorIPiSt6vectorIiSaIiEEEC2ERKS1_
FN:1042,_ZNK9__gnu_cxx17__normal_iteratorIPKSt6vectorImSaImEES1_IS3_SaIS3_EEEdeEv
FNDA:96,_ZNK9__gnu_cxx17__normal_iteratorIPKSt6vectorImSaImEES1_IS3_SaIS3_EEEdeEv
FN:1042,_ZNK9__gnu_cxx17__normal_iteratorIP4EdgeSt6vectorIS1_SaIS1_EEEdeEv
FNDA:43,_ZNK9__gnu_cxx17__normal_iteratorIP4EdgeSt6vectorIS1_SaIS1_EEEdeEv
FN:1042,_ZNK9__gnu_cxx17__normal_iteratorIPK4EdgeSt6vectorIS1_SaIS1_EEEdeEv
FNDA:0,_ZNK9__gnu_cxx17__normal_iteratorIPK4EdgeSt6vectorIS1_SaIS1_EEEdeEv
FN:1042,_ZNK9__gnu_cxx17__normal_iteratorIPiSt6vectorIiSaIiEEEdeEv
FNDA:56,_ZNK9__gnu_cxx17__normal_iteratorIPiSt6vectorIiSaIiEEEdeEv
FN:1052,_ZN9__gnu_cxx17__normal_iteratorIP4EdgeSt6vectorIS1_SaIS1_EEEppEv
FNDA:27,_ZN9__gnu_cxx17__normal_iteratorIP4EdgeSt6vectorIS1_SaIS1_EEEppEv
FN:1052,_ZN9__gnu_cxx17__normal_iteratorIPK4EdgeSt6vectorIS1_SaIS1_EEEppEv
FNDA:0,_ZN9__gnu_cxx17__normal_iteratorIPK4EdgeSt6vectorIS1_SaIS1_EEEppEv
FN:1052,_ZN9__gnu_cxx17__normal_iteratorIPKSt6vectorImSaImEES1_IS3_SaIS3_EEEppEv
FNDA:96,_ZN9__gnu_cxx17__normal_iteratorIPKSt6vectorImSaImEES1_IS3_SaIS3_EEEppEv
FN:1066,_ZN9__gnu_cxx17__normal_iteratorIPiSt6vectorIiSaIiEEEmmEv
FNDA:56,_ZN9__gnu_cxx17__normal_iteratorIPiSt6vectorIiSaIiEEEmmEv
FN:1100,_ZNK9__gnu_cxx17__normal_iteratorIPiSt6vectorIiSaIiEEEmiEl
FNDA:28,_ZNK9__gnu_cxx17__normal_iteratorIPiSt6vectorIiSaIiEEEmiEl
FN:1105,_ZNK9__gnu_cxx17__normal_iteratorIP4EdgeSt6vectorIS1_SaIS1_EEE4baseEv
FNDA:572,_ZNK9__gnu_cxx17__normal_iteratorIP4EdgeSt6vectorIS1_SaIS1_EEE4baseEv
FN:1105,_ZNK9__gnu_cxx17__normal_iteratorIPKSt6vectorImSaImEES1_IS3_SaIS3_EEE4baseEv
FNDA:288,_ZNK9__gnu_cxx17__normal_iteratorIPKSt6vectorImSaImEES1_IS3_SaIS3_EEE4baseEv
FN:1105,_ZNK9__gnu_cxx17__normal_iteratorIPKmSt6vectorImSaImEEE4baseEv
FNDA:270,_ZNK9__gnu_cxx17__normal_iteratorIPKmSt6vectorImSaImEEE4baseEv
FN:1105,_ZNK9__gnu_cxx17__normal_iteratorIPiSt6vectorIiSaIiEEE4baseEv
FNDA:204,_ZNK9__gnu_cxx17__normal_iteratorIPiSt6vectorIiSaIiEEE4baseEv
FN:1105,_ZNK9__gnu_cxx17__normal_iteratorIPK4EdgeSt6vectorIS1_SaIS1_EEE4baseEv
FNDA:0,_ZNK9__gnu_cxx17__normal_iteratorIPK4EdgeSt6vectorIS1_SaIS1_EEE4baseEv
FN:1163,_ZN9__gnu_cxxeqIPKSt6vectorImSaImEES1_IS3_SaIS3_EEEEbRKNS_17__normal_iteratorIT_T0_EESD_
FNDA:16,_ZN9__gnu_cxxeqIPKSt6vectorImSaImEES1_IS3_SaIS3_EEEEbRKNS_17__normal_iteratorIT_T0_EESD_
FN:1163,_ZN9__gnu_cxxeqIPiSt6vectorIiSaIiEEEEbRKNS_17__normal_iteratorIT_T0_EESA_
FNDA:40,_ZN9__gnu_cxxeqIPiSt6vectorIiSaIiEEEEbRKNS_17__normal_iteratorIT_T0_EESA_
FN:1179,_ZN9__gnu_cxxneIPK4EdgeSt6vectorIS1_SaIS1_EEEEbRKNS_17__normal_iteratorIT_T0_EESC_
FNDA:0,_ZN9__gnu_cxxneIPK4EdgeSt6vectorIS1_SaIS1_EEEEbRKNS_17__normal_iteratorIT_T0_EESC_
FN:1179,_ZN9__gnu_cxxneIPKSt6vectorImSaImEES1_IS3_SaIS3_EEEEbRKNS_17__normal_iteratorIT_T0_EESD_
FNDA:128,_ZN9__gnu_cxxneIPKSt6vectorImSaImEES1_IS3_SaIS3_EEEEbRKNS_17__normal_iteratorIT_T0_EESD_
FN:1179,_ZN9__gnu_cxxneIP4EdgeSt6vectorIS1_SaIS1_EEEEbRKNS_17__normal_iteratorIT_T0_EESB_
FNDA:36,_ZN9__gnu_cxxneIP4EdgeSt6vectorIS1_SaIS1_EEEEbRKNS_17__normal_iteratorIT_T0_EESB_
FN:1268,_ZN9__gnu_cxxmiIPiSt6vectorIiSaIiEEEENS_17__normal_iteratorIT_T0_E15difference_typeERKS8_SB_
FNDA:31,_ZN9__gnu_cxxmiIPiSt6vectorIiSaIiEEEENS_17__normal_iteratorIT_T0_E15difference_typeERKS8_SB_
FN:1291,_ZSt12__niter_baseIPKmSt6vectorImSaImEEET_N9__gnu_cxx17__normal_iteratorIS5_T0_EE
FNDA:270,_ZSt12__niter_baseIPKmSt6vectorImSaImEEET_N9__gnu_cxx17__normal_iteratorIS5_T0_EE
DA:184,52
DA:190,28
DA:191,28
DA:228,80
DA:229,80
DA:242,28
DA:244,28
DA:245,28
DA:285,28
DA:287,28
DA:288,28
DA:289,28
DA:420,40
DA:422,40
DA:432,40
DA:434,40
DA:1027,270
DA:1028,270
DA:1027,170
DA:1028,170
DA:1027,96
DA:1028,96
DA:1027,0
DA:1028,0
DA:1042,96
DA:1043,96
DA:1042,0
DA:1043,0
DA:1042,56
DA:1043,56
DA:1042,43
DA:1043,43
DA:1052,96
DA:1054,96
DA:1055,96
DA:1052,0
DA:1054,0
DA:1055,0
DA:1052,27
DA:1054,27
DA:1055,27
DA:1066,56
DA:1068,56
DA:1069,56
DA:1100,28
DA:1101,28
DA:1105,270
DA:1106,270
DA:1105,0
DA:1106,0
DA:1105,204
DA:1106,204
DA:1105,288
DA:1106,288
DA:1105,572
DA:1106,572
DA:1163,40
DA:1166,40
DA:1163,16
DA:1166,16
DA:1179,128
DA:1182,128
DA:1179,0
DA:1182,0
DA:1179,36
DA:1182,36
DA:1268,31
DA:1271,31
DA:1291,270
DA:1293,270
end_of_record
SF:/usr/include/c++/11/bits/stl_algobase.h
FN:230,_ZSt3minImERKT_S2_S2_
FNDA:415,_ZSt3minImERKT_S2_S2_
FN:254,_ZSt3maxImERKT_S2_S2_
FNDA:195,_ZSt3maxImERKT_S2_S2_
FN:313,_ZSt12__niter_baseIPmET_S1_
FNDA:135,_ZSt12__niter_baseIPmET_S1_
FN:313,_ZSt12__niter_baseIPiET_S1_
FNDA:186,_ZSt12__niter_baseIPiET_S1_
FN:313,_ZSt12__niter_baseIPPmET_S2_
FNDA:0,_ZSt12__niter_baseIPPmET_S2_
FN:335,_ZSt12__niter_wrapIPmET_RKS1_S1_
FNDA:135,_ZSt12__niter_wrapIPmET_RKS1_S1_
FN:335,_ZSt12__niter_wrapIPPmET_RKS2_S2_
FNDA:0,_ZSt12__niter_wrapIPPmET_RKS2_S2_
FN:420,_ZNSt11__copy_moveILb0ELb1ESt26random_access_iterator_tagE8__copy_mIPmEEPT_PKS4_S7_S5_
FNDA:0,_ZNSt11__copy_moveILb0ELb1ESt26random_access_iterator_tagE8__copy_mIPmEEPT_PKS4_S7_S5_
FN:420,_ZNSt11__copy_moveILb0ELb1ESt26random_access_iterator_tagE8__copy_mImEEPT_PKS3_S6_S4_
FNDA:135,_ZNSt11__copy_moveILb0ELb1ESt26random_access_iterator_tagE8__copy_mImEEPT_PKS3_S6_S4_
FN:486,_ZSt14__copy_move_a2ILb0EPKmPmET1_T0_S4_S3_
FNDA:135,_ZSt14__copy_move_a2ILb0EPKmPmET1_T0_S4_S3_
FN:486,_ZSt14__copy_move_a2ILb0EPPmS1_ET1_T0_S3_S2_
FNDA:0,_ZSt14__copy_move_a2ILb0EPPmS1_ET1_T0_S3_S2_
FN:521,_ZSt14__copy_move_a1ILb0EPKmPmET1_T0_S4_S3_
FNDA:135,_ZSt14__copy_move_a1ILb0EPKmPmET1_T0_S4_S3_
FN:521,_ZSt14__copy_move_a1ILb0EPPmS1_ET1_T0_S3_S2_
FNDA:0,_ZSt14__copy_move_a1ILb0EPPmS1_ET1_T0_S3_S2_
FN:527,_ZSt13__copy_move_aILb0EPPmS1_ET1_T0_S3_S2_
FNDA:0,_ZSt13__copy_move_aILb0EPPmS1_ET1_T0_S3_S2_
FN:527,_ZSt13__copy_move_aILb0EN9__gnu_cxx17__normal_iteratorIPKmSt6vectorImSaImEEEEPmET1_T0_SA_S9_
FNDA:135,_ZSt13__copy_move_aILb0EN9__gnu_cxx17__normal_iteratorIPKmSt6vectorImSaImEEEEPmET1_T0_SA_S9_
FN:611,_ZSt4copyIN9__gnu_cxx17__normal_iteratorIPKmSt6vectorImSaImEEEEPmET0_T_SA_S9_
FNDA:135,_ZSt4copyIN9__gnu_cxx17__normal_iteratorIPKmSt6vectorImSaImEEEEPmET0_T_SA_S9_
FN:611,_ZSt4copyIPPmS1_ET0_T_S3_S2_
FNDA:0,_ZSt4copyIPPmS1_ET0_T_S3_S2_
FN:731,_ZNSt20__copy_move_backwardILb0ELb1ESt26random_access_iterator_tagE13__copy_move_bIPmEEPT_PKS4_S7_S5_
FNDA:0,_ZNSt20__copy_move_backwardILb0ELb1ESt26random_access_iterator_tagE13__copy_move_bIPmEEPT_PKS4_S7_S5_
FN:750,_ZSt23__copy_move_backward_a2ILb0EPPmS1_ET1_T0_S3_S2_
FNDA:0,_ZSt23__copy_move_backward_a2ILb0EPPmS1_ET1_T0_S3_S2_
FN:768,_ZSt23__copy_move_backward_a1ILb0EPPmS1_ET1_T0_S3_S2_
FNDA:0,_ZSt23__copy_move_backward_a1ILb0EPPmS1_ET1_T0_S3_S2_
FN:796,_ZSt22__copy_move_backward_aILb0EPPmS1_ET1_T0_S3_S2_
FNDA:0,_ZSt22__copy_move_backward_aILb0EPPmS1_ET1_T0_S3_S2_
FN:848,_ZSt13copy_backwardIPPmS1_ET0_T_S3_S2_
FNDA:0,_ZSt13copy_backwardIPPmS1_ET0_T_S3_S2_
FN:919,_ZSt9__fill_a1IPmmEN9__gnu_cxx11__enable_ifIXsrSt11__is_scalarIT0_E7__valueEvE6__typeET_S8_RKS4_
FNDA:17,_ZSt9__fill_a1IPmmEN9__gnu_cxx11__enable_ifIXsrSt11__is_scalarIT0_E7__valueEvE6__typeET_S8_RKS4_
FN:968,_ZSt8__fill_aIPmmEvT_S1_RKT0_
FNDA:17,_ZSt8__fill_aIPmmEvT_S1_RKT0_
FN:1010,_ZSt17__size_to_integerm
FNDA:20,_ZSt17__size_to_integerm
FN:1109,_ZSt10__fill_n_aIPmmmET_S1_T0_RKT1_St26random_access_iterator_tag
FNDA:17,_ZSt10__fill_n_aIPmmmET_S1_T0_RKT1_St26random_access_iterator_tag
FN:1144,_ZSt6fill_nIPmmmET_S1_T0_RKT1_
FNDA:17,_ZSt6fill_nIPmmmET_S1_T0_RKT1_
DA:230,415
DA:235,415
DA:236,0
DA:237,415
DA:254,195
DA:259,195
DA:260,91
DA:261,104
DA:313,135
DA:315,135
DA:313,0
DA:315,0
DA:313,186
DA:315,186
DA:335,135
DA:336,135
DA:335,0
DA:336,0
DA:420,135
DA:429,135
DA:430,135
DA:431,135
DA:432,135
DA:420,0
DA:429,0
DA:430,0
DA:431,0
DA:432,0
DA:486,135
DA:495,135
DA:486,0
DA:495,0
DA:521,135
DA:522,135
DA:521,0
DA:522,0
DA:527,135
DA:529,135
DA:532,135
DA:527,0
DA:529,0
DA:532,0
DA:611,135
DA:620,135
DA:611,0
DA:620,0
DA:731,0
DA:740,0
DA:741,0
DA:742,0
DA:743,0
DA:750,0
DA:760,0
DA:762,0
DA:768,0
DA:769,0
DA:796,0
DA:798,0
DA:801,0
DA:848,0
DA:859,0
DA:919,17
DA:922,17
DA:923,64
DA:924,47
DA:925,17
DA:968,17
DA:969,17
DA:1010,20
DA:1109,17
DA:1115,17
DA:1116,0
DA:1120,17
DA:1121,17
DA:1144,17
DA:1149,17
DA:1150,34
end_of_record
SF:/usr/include/c++/11/bits/char_traits.h
FN:106,_ZN9__gnu_cxx11char_traitsIcE2eqERKcS3_
FNDA:0,_ZN9__gnu_cxx11char_traitsIcE2eqERKcS3_
FN:167,_ZN9__gnu_cxx11char_traitsIcE6lengthEPKc
FNDA:0,_ZN9__gnu_cxx11char_traitsIcE6lengthEPKc
FN:393,_ZNSt11char_traitsIcE6lengthEPKc
FNDA:56,_ZNSt11char_traitsIcE6lengthEPKc
FN:429,_ZNSt11char_traitsIcE4copyEPcPKcm
FNDA:0,_ZNSt11char_traitsIcE4copyEPcPKcm
DA:106,0
DA:107,0
DA:167,0
DA:170,0
DA:171,0
DA:172,0
DA:173,0
DA:290,56
DA:393,56
DA:396,56
DA:397,0
DA:399,56
DA:429,0
DA:431,0
DA:432,0
DA:437,0
end_of_record
SF:/usr/include/c++/11/bits/ptr_traits.h
FN:149,_ZNSt14pointer_traitsIPNSt8__detail10_Hash_nodeI4EdgeLb1EEEE10pointer_toERS3_
FNDA:14,_ZNSt14pointer_traitsIPNSt8__detail10_Hash_nodeI4EdgeLb1EEEE10pointer_toERS3_
FN:149,_ZNSt14pointer_traitsIPPNSt8__detail15_Hash_node_baseEE10pointer_toERS2_
FNDA:12,_ZNSt14pointer_traitsIPPNSt8__detail15_Hash_node_baseEE10pointer_toERS2_
FN:159,_ZSt12__to_addressIPNSt8__detail15_Hash_node_baseEEPT_S4_
FNDA:12,_ZSt12__to_addressIPNSt8__detail15_Hash_node_baseEEPT_S4_
FN:159,_ZSt12__to_addressINSt8__detail10_Hash_nodeI4EdgeLb1EEEEPT_S5_
FNDA:14,_ZSt12__to_addressINSt8__detail10_Hash_nodeI4EdgeLb1EEEEPT_S5_
DA:149,14
DA:150,14
DA:149,12
DA:150,12
DA:159,12
DA:162,12
DA:159,14
DA:162,14
end_of_record
SF:/usr/include/c++/11/bits/vector.tcc
FN:109,_ZNSt6vectorIiSaIiEE12emplace_backIJiEEERiDpOT_
FNDA:28,_ZNSt6vectorIiSaIiEE12emplace_backIJiEEERiDpOT_
FN:426,_ZNSt6vectorIiSaIiEE17_M_realloc_insertIJiEEEvN9__gnu_cxx17__normal_iteratorIPiS1_EEDpOT_
FNDA:28,_ZNSt6vectorIiSaIiEE17_M_realloc_insertIJiEEEvN9__gnu_cxx17__normal_iteratorIPiS1_EEDpOT_
DA:109,28
DA:112,28
DA:115,0
DA:117,0
DA:121,28
DA:123,28
DA:426,28
DA:436,28
DA:437,28
DA:438,28
DA:439,28
DA:440,28
DA:441,28
DA:449,28
DA:450,28
DA:456,28
DA:461,28
DA:462,28
DA:464,28
DA:466,28
DA:467,28
DA:500,28
DA:501,28
DA:502,28
DA:503,28
DA:504,28
DA:505,28
end_of_record
SF:/usr/include/c++/11/bits/cpp_type_traits.h
FN:560,_ZSt12__miter_baseIN9__gnu_cxx17__normal_iteratorIPKmSt6vectorImSaImEEEEET_S8_
FNDA:270,_ZSt12__miter_baseIN9__gnu_cxx17__normal_iteratorIPKmSt6vectorImSaImEEEEET_S8_
FN:560,_ZSt12__miter_baseIPPmET_S2_
FNDA:0,_ZSt12__miter_baseIPPmET_S2_
DA:560,270
DA:561,270
DA:560,0
DA:561,0
end_of_record
SF:/usr/include/c++/11/bits/stl_tree.h
FN:112,_ZNSt18_Rb_tree_node_base10_S_minimumEPS_
FNDA:0,_ZNSt18_Rb_tree_node_base10_S_minimumEPS_
FN:126,_ZNSt18_Rb_tree_node_base10_S_maximumEPS_
FNDA:0,_ZNSt18_Rb_tree_node_base10_S_maximumEPS_
FN:146,_ZNSt20_Rb_tree_key_compareISt4lessIiEEC2Ev
FNDA:9,_ZNSt20_Rb_tree_key_compareISt4lessIiEEC2Ev
FN:146,_ZNSt20_Rb_tree_key_compareISt4lessImEEC2Ev
FNDA:38,_ZNSt20_Rb_tree_key_compareISt4lessImEEC2Ev
FN:152,_ZNSt20_Rb_tree_key_compareISt4lessImEEC2ERKS1_
FNDA:0,_ZNSt20_Rb_tree_key_compareISt4lessImEEC2ERKS1_
FN:173,_ZNSt15_Rb_tree_headerC2Ev
FNDA:0,_ZNSt15_Rb_tree_headerC2Ev
FN:206,_ZNSt15_Rb_tree_header8_M_resetEv
FNDA:0,_ZNSt15_Rb_tree_header8_M_resetEv
FN:234,_ZNSt13_Rb_tree_nodeISt4pairIKmmEE9_M_valptrEv
FNDA:0,_ZNSt13_Rb_tree_nodeISt4pairIKmmEE9_M_valptrEv
FN:234,_ZNSt13_Rb_tree_nodeISt4pairIKi6VertexEE9_M_valptrEv
FNDA:332,_ZNSt13_Rb_tree_nodeISt4pairIKi6VertexEE9_M_valptrEv
FN:238,_ZNKSt13_Rb_tree_nodeISt4pairIKi6VertexEE9_M_valptrEv
FNDA:333,_ZNKSt13_Rb_tree_nodeISt4pairIKi6VertexEE9_M_valptrEv
FN:238,_ZNKSt13_Rb_tree_nodeISt4pairIKmmEE9_M_valptrEv
FNDA:76,_ZNKSt13_Rb_tree_nodeISt4pairIKmmEE9_M_valptrEv
FN:273,_ZNSt17_Rb_tree_iteratorISt4pairIKmmEEC2EPSt18_Rb_tree_node_base
FNDA:192,_ZNSt17_Rb_tree_iteratorISt4pairIKmmEEC2EPSt18_Rb_tree_node_base
FN:273,_ZNSt17_Rb_tree_iteratorISt4pairIKi6VertexEEC2EPSt18_Rb_tree_node_base
FNDA:356,_ZNSt17_Rb_tree_iteratorISt4pairIKi6VertexEEC2EPSt18_Rb_tree_node_base
FN:277,_ZNKSt17_Rb_tree_iteratorISt4pairIKmmEEdeEv
FNDA:30,_ZNKSt17_Rb_tree_iteratorISt4pairIKmmEEdeEv
FN:277,_ZNKSt17_Rb_tree_iteratorISt4pairIKi6VertexEEdeEv
FNDA:294,_ZNKSt17_Rb_tree_iteratorISt4pairIKi6VertexEEdeEv
FN:285,_ZNSt17_Rb_tree_iteratorISt4pairIKmmEEppEv
FNDA:0,_ZNSt17_Rb_tree_iteratorISt4pairIKmmEEppEv
FN:285,_ZNSt17_Rb_tree_iteratorISt4pairIKi6VertexEEppEv
FNDA:15,_ZNSt17_Rb_tree_iteratorISt4pairIKi6VertexEEppEv
FN:300,_ZNSt17_Rb_tree_iteratorISt4pairIKmmEEmmEv
FNDA:0,_ZNSt17_Rb_tree_iteratorISt4pairIKmmEEmmEv
FN:300,_ZNSt17_Rb_tree_iteratorISt4pairIKi6VertexEEmmEv
FNDA:0,_ZNSt17_Rb_tree_iteratorISt4pairIKi6VertexEEmmEv
FN:315,_ZSteqRKSt17_Rb_tree_iteratorISt4pairIKi6VertexEES6_
FNDA:154,_ZSteqRKSt17_Rb_tree_iteratorISt4pairIKi6VertexEES6_
FN:315,_ZSteqRKSt17_Rb_tree_iteratorISt4pairIKmmEES5_
FNDA:47,_ZSteqRKSt17_Rb_tree_iteratorISt4pairIKmmEES5_
FN:320,_ZStneRKSt17_Rb_tree_iteratorISt4pairIKi6VertexEES6_
FNDA:20,_ZStneRKSt17_Rb_tree_iteratorISt4pairIKi6VertexEES6_
FN:347,_ZNSt23_Rb_tree_const_iteratorISt4pairIKi6VertexEEC2EPKSt18_Rb_tree_node_base
FNDA:8,_ZNSt23_Rb_tree_const_iteratorISt4pairIKi6VertexEEC2EPKSt18_Rb_tree_node_base
FN:350,_ZNSt23_Rb_tree_const_iteratorISt4pairIKi6VertexEEC2ERKSt17_Rb_tree_iteratorIS3_E
FNDA:19,_ZNSt23_Rb_tree_const_iteratorISt4pairIKi6VertexEEC2ERKSt17_Rb_tree_iteratorIS3_E
FN:350,_ZNSt23_Rb_tree_const_iteratorISt4pairIKmmEEC2ERKSt17_Rb_tree_iteratorIS2_E
FNDA:58,_ZNSt23_Rb_tree_const_iteratorISt4pairIKmmEEC2ERKSt17_Rb_tree_iteratorIS2_E
FN:354,_ZNKSt23_Rb_tree_const_iteratorISt4pairIKmmEE13_M_const_castEv
FNDA:28,_ZNKSt23_Rb_tree_const_iteratorISt4pairIKmmEE13_M_const_castEv
FN:354,_ZNKSt23_Rb_tree_const_iteratorISt4pairIKi6VertexEE13_M_const_castEv
FNDA:19,_ZNKSt23_Rb_tree_const_iteratorISt4pairIKi6VertexEE13_M_const_castEv
FN:358,_ZNKSt23_Rb_tree_const_iteratorISt4pairIKi6VertexEEdeEv
FNDA:12,_ZNKSt23_Rb_tree_const_iteratorISt4pairIKi6VertexEEdeEv
FN:366,_ZNSt23_Rb_tree_const_iteratorISt4pairIKi6VertexEEppEv
FNDA:12,_ZNSt23_Rb_tree_const_iteratorISt4pairIKi6VertexEEppEv
FN:373,_ZNSt23_Rb_tree_const_iteratorISt4pairIKmmEEppEi
FNDA:3,_ZNSt23_Rb_tree_const_iteratorISt4pairIKmmEEppEi
FN:396,_ZSteqRKSt23_Rb_tree_const_iteratorISt4pairIKmmEES5_
FNDA:14,_ZSteqRKSt23_Rb_tree_const_iteratorISt4pairIKmmEES5_
FN:396,_ZSteqRKSt23_Rb_tree_const_iteratorISt4pairIKi6VertexEES6_
FNDA:0,_ZSteqRKSt23_Rb_tree_const_iteratorISt4pairIKi6VertexEES6_
FN:401,_ZStneRKSt23_Rb_tree_const_iteratorISt4pairIKmmEES5_
FNDA:9,_ZStneRKSt23_Rb_tree_const_iteratorISt4pairIKmmEES5_
FN:401,_ZStneRKSt23_Rb_tree_const_iteratorISt4pairIKi6VertexEES6_
FNDA:16,_ZStneRKSt23_Rb_tree_const_iteratorISt4pairIKi6VertexEES6_
FN:523,_ZNSt8_Rb_treeImSt4pairIKmmESt10_Select1stIS2_ESt4lessImESaIS2_EE11_Alloc_nodeC2ERS8_
FNDA:0,_ZNSt8_Rb_treeImSt4pairIKmmESt10_Select1stIS2_ESt4lessImESaIS2_EE11_Alloc_nodeC2ERS8_
FN:528,_ZNKSt8_Rb_treeImSt4pairIKmmESt10_Select1stIS2_ESt4lessImESaIS2_EE11_Alloc_nodeclIRKS2_EEPSt13_Rb_tree_nodeIS2_EOT_
FNDA:0,_ZNKSt8_Rb_treeImSt4pairIKmmESt10_Select1stIS2_ESt4lessImESaIS2_EE11_Alloc_nodeclIRKS2_EEPSt13_Rb_tree_nodeIS2_EOT_
FN:547,_ZNSt8_Rb_treeIiSt4pairIKi6VertexESt10_Select1stIS3_ESt4lessIiESaIS3_EE21_M_get_Node_allocatorEv
FNDA:76,_ZNSt8_Rb_treeIiSt4pairIKi6VertexESt10_Select1stIS3_ESt4lessIiESaIS3_EE21_M_get_Node_allocatorEv
FN:547,_ZNSt8_Rb_treeImSt4pairIKmmESt10_Select1stIS2_ESt4lessImESaIS2_EE21_M_get_Node_allocatorEv
FNDA:0,_ZNSt8_Rb_treeImSt4pairIKmmESt10_Select1stIS2_ESt4lessImESaIS2_EE21_M_get_Node_allocatorEv
FN:560,_ZNSt8_Rb_treeIiSt4pairIKi6VertexESt10_Select1stIS3_ESt4lessIiESaIS3_EE11_M_get_nodeEv
FNDA:19,_ZNSt8_Rb_treeIiSt4pairIKi6VertexESt10_Select1stIS3_ESt4lessIiESaIS3_EE11_M_get_nodeEv
FN:560,_ZNSt8_Rb_treeImSt4pairIKmmESt10_Select1stIS2_ESt4lessImESaIS2_EE11_M_get_nodeEv
FNDA:0,_ZNSt8_Rb_treeImSt4pairIKmmESt10_Select1stIS2_ESt4lessImESaIS2_EE11_M_get_nodeEv
FN:564,_ZNSt8_Rb_treeImSt4pairIKmmESt10_Select1stIS2_ESt4lessImESaIS2_EE11_M_put_nodeEPSt13_Rb_tree_nodeIS2_E
FNDA:0,_ZNSt8_Rb_treeImSt4pairIKmmESt10_Select1stIS2_ESt4lessImESaIS2_EE11_M_put_nodeEPSt13_Rb_tree_nodeIS2_E
FN:564,_ZNSt8_Rb_treeIiSt4pairIKi6VertexESt10_Select1stIS3_ESt4lessIiESaIS3_EE11_M_put_nodeEPSt13_Rb_tree_nodeIS3_E
FNDA:19,_ZNSt8_Rb_treeIiSt4pairIKi6VertexESt10_Select1stIS3_ESt4lessIiESaIS3_EE11_M_put_nodeEPSt13_Rb_tree_nodeIS3_E
FN:590,_ZNSt8_Rb_treeIiSt4pairIKi6VertexESt10_Select1stIS3_ESt4lessIiESaIS3_EE17_M_construct_nodeIJRKSt21piecewise_construct_tSt5tupleIJOiEESE_IJEEEEEvPSt13_Rb_tree_nodeIS3_EDpOT_
FNDA:7,_ZNSt8_Rb_treeIiSt4pairIKi6VertexESt10_Select1stIS3_ESt4lessIiESaIS3_EE17_M_construct_nodeIJRKSt21piecewise_construct_tSt5tupleIJOiEESE_IJEEEEEvPSt13_Rb_tree_nodeIS3_EDpOT_
FN:590,_ZNSt8_Rb_treeIiSt4pairIKi6VertexESt10_Select1stIS3_ESt4lessIiESaIS3_EE17_M_construct_nodeIJRKSt21piecewise_construct_tSt5tupleIJRS1_EESE_IJEEEEEvPSt13_Rb_tree_nodeIS3_EDpOT_
FNDA:12,_ZNSt8_Rb_treeIiSt4pairIKi6VertexESt10_Select1stIS3_ESt4lessIiESaIS3_EE17_M_construct_nodeIJRKSt21piecewise_construct_tSt5tupleIJRS1_EESE_IJEEEEEvPSt13_Rb_tree_nodeIS3_EDpOT_
FN:590,_ZNSt8_Rb_treeImSt4pairIKmmESt10_Select1stIS2_ESt4lessImESaIS2_EE17_M_construct_nodeIJRKSt21piecewise_construct_tSt5tupleIJRS1_EESD_IJEEEEEvPSt13_Rb_tree_nodeIS2_EDpOT_
FNDA:28,_ZNSt8_Rb_treeImSt4pairIKmmESt10_Select1stIS2_ESt4lessImESaIS2_EE17_M_construct_nodeIJRKSt21piecewise_construct_tSt5tupleIJRS1_EESD_IJEEEEEvPSt13_Rb_tree_nodeIS2_EDpOT_
FN:590,_ZNSt8_Rb_treeImSt4pairIKmmESt10_Select1stIS2_ESt4lessImESaIS2_EE17_M_construct_nodeIJRKS2_EEEvPSt13_Rb_tree_nodeIS2_EDpOT_
FNDA:0,_ZNSt8_Rb_treeImSt4pairIKmmESt10_Select1stIS2_ESt4lessImESaIS2_EE17_M_construct_nodeIJRKS2_EEEvPSt13_Rb_tree_nodeIS2_EDpOT_
FN:609,_ZNSt8_Rb_treeIiSt4pairIKi6VertexESt10_Select1stIS3_ESt4lessIiESaIS3_EE14_M_create_nodeIJRKSt21piecewise_construct_tSt5tupleIJRS1_EESE_IJEEEEEPSt13_Rb_tree_nodeIS3_EDpOT_
FNDA:12,_ZNSt8_Rb_treeIiSt4pairIKi6VertexESt10_Select1stIS3_ESt4lessIiESaIS3_EE14_M_create_nodeIJRKSt21piecewise_construct_tSt5tupleIJRS1_EESE_IJEEEEEPSt13_Rb_tree_nodeIS3_EDpOT_
FN:609,_ZNSt8_Rb_treeIiSt4pairIKi6VertexESt10_Select1stIS3_ESt4lessIiESaIS3_EE14_M_create_nodeIJRKSt21piecewise_construct_tSt5tupleIJOiEESE_IJEEEEEPSt13_Rb_tree_nodeIS3_EDpOT_
FNDA:7,_ZNSt8_Rb_treeIiSt4pairIKi6VertexESt10_Select1stIS3_ESt4lessIiESaIS3_EE14_M_create_nodeIJRKSt21piecewise_construct_tSt5tupleIJOiEESE_IJEEEEEPSt13_Rb_tree_nodeIS3_EDpOT_
FN:609,_ZNSt8_Rb_treeImSt4pairIKmmESt10_Select1stIS2_ESt4lessImESaIS2_EE14_M_create_nodeIJRKSt21piecewise_construct_tSt5tupleIJRS1_EESD_IJEEEEEPSt13_Rb_tree_nodeIS2_EDpOT_
FNDA:28,_ZNSt8_Rb_treeImSt4pairIKmmESt10_Select1stIS2_ESt4lessImESaIS2_EE14_M_create_nodeIJRKSt21piecewise_construct_tSt5tupleIJRS1_EESD_IJEEEEEPSt13_Rb_tree_nodeIS2_EDpOT_
FN:609,_ZNSt8_Rb_treeImSt4pairIKmmESt10_Select1stIS2_ESt4lessImESaIS2_EE14_M_create_nodeIJRKS2_EEEPSt13_Rb_tree_nodeIS2_EDpOT_
FNDA:0,_ZNSt8_Rb_treeImSt4pairIKmmESt10_Select1stIS2_ESt4lessImESaIS2_EE14_M_create_nodeIJRKS2_EEEPSt13_Rb_tree_nodeIS2_EDpOT_
FN:618,_ZNSt8_Rb_treeIiSt4pairIKi6VertexESt10_Select1stIS3_ESt4lessIiESaIS3_EE15_M_destroy_nodeEPSt13_Rb_tree_nodeIS3_E
FNDA:19,_ZNSt8_Rb_treeIiSt4pairIKi6VertexESt10_Select1stIS3_ESt4lessIiESaIS3_EE15_M_destroy_nodeEPSt13_Rb_tree_nodeIS3_E
FN:618,_ZNSt8_Rb_treeImSt4pairIKmmESt10_Select1stIS2_ESt4lessImESaIS2_EE15_M_destroy_nodeEPSt13_Rb_tree_nodeIS2_E
FNDA:0,_ZNSt8_Rb_treeImSt4pairIKmmESt10_Select1stIS2_ESt4lessImESaIS2_EE15_M_destroy_nodeEPSt13_Rb_tree_nodeIS2_E
FN:629,_ZNSt8_Rb_treeImSt4pairIKmmESt10_Select1stIS2_ESt4lessImESaIS2_EE12_M_drop_nodeEPSt13_Rb_tree_nodeIS2_E
FNDA:0,_ZNSt8_Rb_treeImSt4pairIKmmESt10_Select1stIS2_ESt4lessImESaIS2_EE12_M_drop_nodeEPSt13_Rb_tree_nodeIS2_E
FN:629,_ZNSt8_Rb_treeIiSt4pairIKi6VertexESt10_Select1stIS3_ESt4lessIiESaIS3_EE12_M_drop_nodeEPSt13_Rb_tree_nodeIS3_E
FNDA:19,_ZNSt8_Rb_treeIiSt4pairIKi6VertexESt10_Select1stIS3_ESt4lessIiESaIS3_EE12_M_drop_nodeEPSt13_Rb_tree_nodeIS3_E
FN:637,_ZNSt8_Rb_treeImSt4pairIKmmESt10_Select1stIS2_ESt4lessImESaIS2_EE13_M_clone_nodeILb0ENS8_11_Alloc_nodeEEEPSt13_Rb_tree_nodeIS2_ESD_RT0_
FNDA:0,_ZNSt8_Rb_treeImSt4pairIKmmESt10_Select1stIS2_ESt4lessImESaIS2_EE13_M_clone_nodeILb0ENS8_11_Alloc_nodeEEEPSt13_Rb_tree_nodeIS2_ESD_RT0_
FN:667,_ZNSt8_Rb_treeImSt4pairIKmmESt10_Select1stIS2_ESt4lessImESaIS2_EE13_Rb_tree_implIS6_Lb1EEC2Ev
FNDA:38,_ZNSt8_Rb_treeImSt4pairIKmmESt10_Select1stIS2_ESt4lessImESaIS2_EE13_Rb_tree_implIS6_Lb1EEC2Ev
FN:667,_ZNSt8_Rb_treeIiSt4pairIKi6VertexESt10_Select1stIS3_ESt4lessIiESaIS3_EE13_Rb_tree_implIS7_Lb1EEC2Ev
FNDA:7,_ZNSt8_Rb_treeIiSt4pairIKi6VertexESt10_Select1stIS3_ESt4lessIiESaIS3_EE13_Rb_tree_implIS7_Lb1EEC2Ev
FN:674,_ZNSt8_Rb_treeImSt4pairIKmmESt10_Select1stIS2_ESt4lessImESaIS2_EE13_Rb_tree_implIS6_Lb1EEC2ERKSA_
FNDA:0,_ZNSt8_Rb_treeImSt4pairIKmmESt10_Select1stIS2_ESt4lessImESaIS2_EE13_Rb_tree_implIS6_Lb1EEC2ERKSA_
FN:710,_ZNSt8_Rb_treeImSt4pairIKmmESt10_Select1stIS2_ESt4lessImESaIS2_EE7_M_rootEv
FNDA:0,_ZNSt8_Rb_treeImSt4pairIKmmESt10_Select1stIS2_ESt4lessImESaIS2_EE7_M_rootEv
FN:714,_ZNKSt8_Rb_treeImSt4pairIKmmESt10_Select1stIS2_ESt4lessImESaIS2_EE7_M_rootEv
FNDA:0,_ZNKSt8_Rb_treeImSt4pairIKmmESt10_Select1stIS2_ESt4lessImESaIS2_EE7_M_rootEv
FN:718,_ZNSt8_Rb_treeImSt4pairIKmmESt10_Select1stIS2_ESt4lessImESaIS2_EE11_M_leftmostEv
FNDA:0,_ZNSt8_Rb_treeImSt4pairIKmmESt10_Select1stIS2_ESt4lessImESaIS2_EE11_M_leftmostEv
FN:718,_ZNSt8_Rb_treeIiSt4pairIKi6VertexESt10_Select1stIS3_ESt4lessIiESaIS3_EE11_M_leftmostEv
FNDA:12,_ZNSt8_Rb_treeIiSt4pairIKi6VertexESt10_Select1stIS3_ESt4lessIiESaIS3_EE11_M_leftmostEv
FN:726,_ZNSt8_Rb_treeIiSt4pairIKi6VertexESt10_Select1stIS3_ESt4lessIiESaIS3_EE12_M_rightmostEv
FNDA:16,_ZNSt8_Rb_treeIiSt4pairIKi6VertexESt10_Select1stIS3_ESt4lessIiESaIS3_EE12_M_rightmostEv
FN:726,_ZNSt8_Rb_treeImSt4pairIKmmESt10_Select1stIS2_ESt4lessImESaIS2_EE12_M_rightmostEv
FNDA:0,_ZNSt8_Rb_treeImSt4pairIKmmESt10_Select1stIS2_ESt4lessImESaIS2_EE12_M_rightmostEv
FN:734,_ZNKSt8_Rb_treeIiSt4pairIKi6VertexESt10_Select1stIS3_ESt4lessIiESaIS3_EE9_M_mbeginEv
FNDA:161,_ZNKSt8_Rb_treeIiSt4pairIKi6VertexESt10_Select1stIS3_ESt4lessIiESaIS3_EE9_M_mbeginEv
FN:734,_ZNKSt8_Rb_treeImSt4pairIKmmESt10_Select1stIS2_ESt4lessImESaIS2_EE9_M_mbeginEv
FNDA:0,_ZNKSt8_Rb_treeImSt4pairIKmmESt10_Select1stIS2_ESt4lessImESaIS2_EE9_M_mbeginEv
FN:738,_ZNSt8_Rb_treeImSt4pairIKmmESt10_Select1stIS2_ESt4lessImESaIS2_EE8_M_beginEv
FNDA:0,_ZNSt8_Rb_treeImSt4pairIKmmESt10_Select1stIS2_ESt4lessImESaIS2_EE8_M_beginEv
FN:738,_ZNSt8_Rb_treeIiSt4pairIKi6VertexESt10_Select1stIS3_ESt4lessIiESaIS3_EE8_M_beginEv
FNDA:161,_ZNSt8_Rb_treeIiSt4pairIKi6VertexESt10_Select1stIS3_ESt4lessIiESaIS3_EE8_M_beginEv
FN:742,_ZNKSt8_Rb_treeIiSt4pairIKi6VertexESt10_Select1stIS3_ESt4lessIiESaIS3_EE8_M_beginEv
FNDA:0,_ZNKSt8_Rb_treeIiSt4pairIKi6VertexESt10_Select1stIS3_ESt4lessIiESaIS3_EE8_M_beginEv
FN:749,_ZNSt8_Rb_treeIiSt4pairIKi6VertexESt10_Select1stIS3_ESt4lessIiESaIS3_EE6_M_endEv
FNDA:188,_ZNSt8_Rb_treeIiSt4pairIKi6VertexESt10_Select1stIS3_ESt4lessIiESaIS3_EE6_M_endEv
FN:749,_ZNSt8_Rb_treeImSt4pairIKmmESt10_Select1stIS2_ESt4lessImESaIS2_EE6_M_endEv
FNDA:0,_ZNSt8_Rb_treeImSt4pairIKmmESt10_Select1stIS2_ESt4lessImESaIS2_EE6_M_endEv
FN:753,_ZNKSt8_Rb_treeIiSt4pairIKi6VertexESt10_Select1stIS3_ESt4lessIiESaIS3_EE6_M_endEv
FNDA:0,_ZNKSt8_Rb_treeIiSt4pairIKi6VertexESt10_Select1stIS3_ESt4lessIiESaIS3_EE6_M_endEv
FN:757,_ZNSt8_Rb_treeIiSt4pairIKi6VertexESt10_Select1stIS3_ESt4lessIiESaIS3_EE6_S_keyEPKSt13_Rb_tree_nodeIS3_E
FNDA:321,_ZNSt8_Rb_treeIiSt4pairIKi6VertexESt10_Select1stIS3_ESt4lessIiESaIS3_EE6_S_keyEPKSt13_Rb_tree_nodeIS3_E
FN:757,_ZNSt8_Rb_treeImSt4pairIKmmESt10_Select1stIS2_ESt4lessImESaIS2_EE6_S_keyEPKSt13_Rb_tree_nodeIS2_E
FNDA:76,_ZNSt8_Rb_treeImSt4pairIKmmESt10_Select1stIS2_ESt4lessImESaIS2_EE6_S_keyEPKSt13_Rb_tree_nodeIS2_E
FN:779,_ZNSt8_Rb_treeImSt4pairIKmmESt10_Select1stIS2_ESt4lessImESaIS2_EE7_S_leftEPSt18_Rb_tree_node_base
FNDA:0,_ZNSt8_Rb_treeImSt4pairIKmmESt10_Select1stIS2_ESt4lessImESaIS2_EE7_S_leftEPSt18_Rb_tree_node_base
FN:779,_ZNSt8_Rb_treeIiSt4pairIKi6VertexESt10_Select1stIS3_ESt4lessIiESaIS3_EE7_S_leftEPSt18_Rb_tree_node_base
FNDA:190,_ZNSt8_Rb_treeIiSt4pairIKi6VertexESt10_Select1stIS3_ESt4lessIiESaIS3_EE7_S_leftEPSt18_Rb_tree_node_base
FN:783,_ZNSt8_Rb_treeIiSt4pairIKi6VertexESt10_Select1stIS3_ESt4lessIiESaIS3_EE7_S_leftEPKSt18_Rb_tree_node_base
FNDA:0,_ZNSt8_Rb_treeIiSt4pairIKi6VertexESt10_Select1stIS3_ESt4lessIiESaIS3_EE7_S_leftEPKSt18_Rb_tree_node_base
FN:787,_ZNSt8_Rb_treeImSt4pairIKmmESt10_Select1stIS2_ESt4lessImESaIS2_EE8_S_rightEPSt18_Rb_tree_node_base
FNDA:0,_ZNSt8_Rb_treeImSt4pairIKmmESt10_Select1stIS2_ESt4lessImESaIS2_EE8_S_rightEPSt18_Rb_tree_node_base
FN:787,_ZNSt8_Rb_treeIiSt4pairIKi6VertexESt10_Select1stIS3_ESt4lessIiESaIS3_EE8_S_rightEPSt18_Rb_tree_node_base
FNDA:122,_ZNSt8_Rb_treeIiSt4pairIKi6VertexESt10_Select1stIS3_ESt4lessIiESaIS3_EE8_S_rightEPSt18_Rb_tree_node_base
FN:791,_ZNSt8_Rb_treeIiSt4pairIKi6VertexESt10_Select1stIS3_ESt4lessIiESaIS3_EE8_S_rightEPKSt18_Rb_tree_node_base
FNDA:0,_ZNSt8_Rb_treeIiSt4pairIKi6VertexESt10_Select1stIS3_ESt4lessIiESaIS3_EE8_S_rightEPKSt18_Rb_tree_node_base
FN:795,_ZNSt8_Rb_treeIiSt4pairIKi6VertexESt10_Select1stIS3_ESt4lessIiESaIS3_EE6_S_keyEPKSt18_Rb_tree_node_base
FNDA:20,_ZNSt8_Rb_treeIiSt4pairIKi6VertexESt10_Select1stIS3_ESt4lessIiESaIS3_EE6_S_keyEPKSt18_Rb_tree_node_base
FN:795,_ZNSt8_Rb_treeImSt4pairIKmmESt10_Select1stIS2_ESt4lessImESaIS2_EE6_S_keyEPKSt18_Rb_tree_node_base
FNDA:16,_ZNSt8_Rb_treeImSt4pairIKmmESt10_Select1stIS2_ESt4lessImESaIS2_EE6_S_keyEPKSt18_Rb_tree_node_base
FN:799,_ZNSt8_Rb_treeImSt4pairIKmmESt10_Select1stIS2_ESt4lessImESaIS2_EE10_S_minimumEPSt18_Rb_tree_node_base
FNDA:0,_ZNSt8_Rb_treeImSt4pairIKmmESt10_Select1stIS2_ESt4lessImESaIS2_EE10_S_minimumEPSt18_Rb_tree_node_base
FN:807,_ZNSt8_Rb_treeImSt4pairIKmmESt10_Select1stIS2_ESt4lessImESaIS2_EE10_S_maximumEPSt18_Rb_tree_node_base
FNDA:0,_ZNSt8_Rb_treeImSt4pairIKmmESt10_Select1stIS2_ESt4lessImESaIS2_EE10_S_maximumEPSt18_Rb_tree_node_base
FN:887,_ZNSt8_Rb_treeImSt4pairIKmmESt10_Select1stIS2_ESt4lessImESaIS2_EE7_M_copyILb0ENS8_11_Alloc_nodeEEEPSt13_Rb_tree_nodeIS2_ERKS8_RT0_
FNDA:0,_ZNSt8_Rb_treeImSt4pairIKmmESt10_Select1stIS2_ESt4lessImESaIS2_EE7_M_copyILb0ENS8_11_Alloc_nodeEEEPSt13_Rb_tree_nodeIS2_ERKS8_RT0_
FN:898,_ZNSt8_Rb_treeImSt4pairIKmmESt10_Select1stIS2_ESt4lessImESaIS2_EE7_M_copyERKS8_
FNDA:0,_ZNSt8_Rb_treeImSt4pairIKmmESt10_Select1stIS2_ESt4lessImESaIS2_EE7_M_copyERKS8_
FN:928,_ZNSt8_Rb_treeIiSt4pairIKi6VertexESt10_Select1stIS3_ESt4lessIiESaIS3_EEC2Ev
FNDA:7,_ZNSt8_Rb_treeIiSt4pairIKi6VertexESt10_Select1stIS3_ESt4lessIiESaIS3_EEC2Ev
FN:928,_ZNSt8_Rb_treeImSt4pairIKmmESt10_Select1stIS2_ESt4lessImESaIS2_EEC2Ev
FNDA:38,_ZNSt8_Rb_treeImSt4pairIKmmESt10_Select1stIS2_ESt4lessImESaIS2_EEC2Ev
FN:935,_ZNSt8_Rb_treeImSt4pairIKmmESt10_Select1stIS2_ESt4lessImESaIS2_EEC2ERKS8_
FNDA:0,_ZNSt8_Rb_treeImSt4pairIKmmESt10_Select1stIS2_ESt4lessImESaIS2_EEC2ERKS8_
FN:983,_ZNSt8_Rb_treeImSt4pairIKmmESt10_Select1stIS2_ESt4lessImESaIS2_EED2Ev
FNDA:0,_ZNSt8_Rb_treeImSt4pairIKmmESt10_Select1stIS2_ESt4lessImESaIS2_EED2Ev
FN:983,_ZNSt8_Rb_treeIiSt4pairIKi6VertexESt10_Select1stIS3_ESt4lessIiESaIS3_EED2Ev
FNDA:7,_ZNSt8_Rb_treeIiSt4pairIKi6VertexESt10_Select1stIS3_ESt4lessIiESaIS3_EED2Ev
FN:991,_ZNKSt8_Rb_treeImSt4pairIKmmESt10_Select1stIS2_ESt4lessImESaIS2_EE8key_compEv
FNDA:2,_ZNKSt8_Rb_treeImSt4pairIKmmESt10_Select1stIS2_ESt4lessImESaIS2_EE8key_compEv
FN:991,_ZNKSt8_Rb_treeIiSt4pairIKi6VertexESt10_Select1stIS3_ESt4lessIiESaIS3_EE8key_compEv
FNDA:132,_ZNKSt8_Rb_treeIiSt4pairIKi6VertexESt10_Select1stIS3_ESt4lessIiESaIS3_EE8key_compEv
FN:995,_ZNSt8_Rb_treeImSt4pairIKmmESt10_Select1stIS2_ESt4lessImESaIS2_EE5beginEv
FNDA:30,_ZNSt8_Rb_treeImSt4pairIKmmESt10_Select1stIS2_ESt4lessImESaIS2_EE5beginEv
FN:995,_ZNSt8_Rb_treeIiSt4pairIKi6VertexESt10_Select1stIS3_ESt4lessIiESaIS3_EE5beginEv
FNDA:12,_ZNSt8_Rb_treeIiSt4pairIKi6VertexESt10_Select1stIS3_ESt4lessIiESaIS3_EE5beginEv
FN:999,_ZNKSt8_Rb_treeIiSt4pairIKi6VertexESt10_Select1stIS3_ESt4lessIiESaIS3_EE5beginEv
FNDA:4,_ZNKSt8_Rb_treeIiSt4pairIKi6VertexESt10_Select1stIS3_ESt4lessIiESaIS3_EE5beginEv
FN:1003,_ZNSt8_Rb_treeImSt4pairIKmmESt10_Select1stIS2_ESt4lessImESaIS2_EE3endEv
FNDA:43,_ZNSt8_Rb_treeImSt4pairIKmmESt10_Select1stIS2_ESt4lessImESaIS2_EE3endEv
FN:1003,_ZNSt8_Rb_treeIiSt4pairIKi6VertexESt10_Select1stIS3_ESt4lessIiESaIS3_EE3endEv
FNDA:152,_ZNSt8_Rb_treeIiSt4pairIKi6VertexESt10_Select1stIS3_ESt4lessIiESaIS3_EE3endEv
FN:1007,_ZNKSt8_Rb_treeIiSt4pairIKi6VertexESt10_Select1stIS3_ESt4lessIiESaIS3_EE3endEv
FNDA:4,_ZNKSt8_Rb_treeIiSt4pairIKi6VertexESt10_Select1stIS3_ESt4lessIiESaIS3_EE3endEv
FN:1031,_ZNKSt8_Rb_treeImSt4pairIKmmESt10_Select1stIS2_ESt4lessImESaIS2_EE4sizeEv
FNDA:42,_ZNKSt8_Rb_treeImSt4pairIKmmESt10_Select1stIS2_ESt4lessImESaIS2_EE4sizeEv
FN:1031,_ZNKSt8_Rb_treeIiSt4pairIKi6VertexESt10_Select1stIS3_ESt4lessIiESaIS3_EE4sizeEv
FNDA:73,_ZNKSt8_Rb_treeIiSt4pairIKi6VertexESt10_Select1stIS3_ESt4lessIiESaIS3_EE4sizeEv
FN:1252,_ZNSt8_Rb_treeImSt4pairIKmmESt10_Select1stIS2_ESt4lessImESaIS2_EE5clearEv
FNDA:26,_ZNSt8_Rb_treeImSt4pairIKmmESt10_Select1stIS2_ESt4lessImESaIS2_EE5clearEv
FN:1269,_ZNSt8_Rb_treeIiSt4pairIKi6VertexESt10_Select1stIS3_ESt4lessIiESaIS3_EE11lower_boundERS1_
FNDA:147,_ZNSt8_Rb_treeIiSt4pairIKi6VertexESt10_Select1stIS3_ESt4lessIiESaIS3_EE11lower_boundERS1_
FN:1269,_ZNSt8_Rb_treeImSt4pairIKmmESt10_Select1stIS2_ESt4lessImESaIS2_EE11lower_boundERS1_
FNDA:28,_ZNSt8_Rb_treeImSt4pairIKmmESt10_Select1stIS2_ESt4lessImESaIS2_EE11lower_boundERS1_
FN:1273,_ZNKSt8_Rb_treeIiSt4pairIKi6VertexESt10_Select1stIS3_ESt4lessIiESaIS3_EE11lower_boundERS1_
FNDA:0,_ZNKSt8_Rb_treeIiSt4pairIKi6VertexESt10_Select1stIS3_ESt4lessIiESaIS3_EE11lower_boundERS1_
FN:1845,_ZNSt8_Rb_treeImSt4pairIKmmESt10_Select1stIS2_ESt4lessImESaIS2_EE7_M_copyILb0ENS8_11_Alloc_nodeEEEPSt13_Rb_tree_nodeIS2_ESD_PSt18_Rb_tree_node_baseRT0_
FNDA:0,_ZNSt8_Rb_treeImSt4pairIKmmESt10_Select1stIS2_ESt4lessImESaIS2_EE7_M_copyILb0ENS8_11_Alloc_nodeEEEPSt13_Rb_tree_nodeIS2_ESD_PSt18_Rb_tree_node_baseRT0_
FN:1883,_ZNSt8_Rb_treeImSt4pairIKmmESt10_Select1stIS2_ESt4lessImESaIS2_EE8_M_eraseEPSt13_Rb_tree_nodeIS2_E
FNDA:0,_ZNSt8_Rb_treeImSt4pairIKmmESt10_Select1stIS2_ESt4lessImESaIS2_EE8_M_eraseEPSt13_Rb_tree_nodeIS2_E
FN:1883,_ZNSt8_Rb_treeIiSt4pairIKi6VertexESt10_Select1stIS3_ESt4lessIiESaIS3_EE8_M_eraseEPSt13_Rb_tree_nodeIS3_E
FNDA:26,_ZNSt8_Rb_treeIiSt4pairIKi6VertexESt10_Select1stIS3_ESt4lessIiESaIS3_EE8_M_eraseEPSt13_Rb_tree_nodeIS3_E
FN:1900,_ZNSt8_Rb_treeImSt4pairIKmmESt10_Select1stIS2_ESt4lessImESaIS2_EE14_M_lower_boundEPSt13_Rb_tree_nodeIS2_EPSt18_Rb_tree_node_baseRS1_
FNDA:32,_ZNSt8_Rb_treeImSt4pairIKmmESt10_Select1stIS2_ESt4lessImESaIS2_EE14_M_lower_boundEPSt13_Rb_tree_nodeIS2_EPSt18_Rb_tree_node_baseRS1_
FN:1900,_ZNSt8_Rb_treeIiSt4pairIKi6VertexESt10_Select1stIS3_ESt4lessIiESaIS3_EE14_M_lower_boundEPSt13_Rb_tree_nodeIS3_EPSt18_Rb_tree_node_baseRS1_
FNDA:147,_ZNSt8_Rb_treeIiSt4pairIKi6VertexESt10_Select1stIS3_ESt4lessIiESaIS3_EE14_M_lower_boundEPSt13_Rb_tree_nodeIS3_EPSt18_Rb_tree_node_baseRS1_
FN:1916,_ZNKSt8_Rb_treeIiSt4pairIKi6VertexESt10_Select1stIS3_ESt4lessIiESaIS3_EE14_M_lower_boundEPKSt13_Rb_tree_nodeIS3_EPKSt18_Rb_tree_node_baseRS1_
FNDA:0,_ZNKSt8_Rb_treeIiSt4pairIKi6VertexESt10_Select1stIS3_ESt4lessIiESaIS3_EE14_M_lower_boundEPKSt13_Rb_tree_nodeIS3_EPKSt18_Rb_tree_node_baseRS1_
FN:1932,_ZNSt8_Rb_treeImSt4pairIKmmESt10_Select1stIS2_ESt4lessImESaIS2_EE14_M_upper_boundEPSt13_Rb_tree_nodeIS2_EPSt18_Rb_tree_node_baseRS1_
FNDA:4,_ZNSt8_Rb_treeImSt4pairIKmmESt10_Select1stIS2_ESt4lessImESaIS2_EE14_M_upper_boundEPSt13_Rb_tree_nodeIS2_EPSt18_Rb_tree_node_baseRS1_
FN:1966,_ZNSt8_Rb_treeImSt4pairIKmmESt10_Select1stIS2_ESt4lessImESaIS2_EE11equal_rangeERS1_
FNDA:8,_ZNSt8_Rb_treeImSt4pairIKmmESt10_Select1stIS2_ESt4lessImESaIS2_EE11equal_rangeERS1_
FN:2061,_ZNSt8_Rb_treeImSt4pairIKmmESt10_Select1stIS2_ESt4lessImESaIS2_EE24_M_get_insert_unique_posERS1_
FNDA:19,_ZNSt8_Rb_treeImSt4pairIKmmESt10_Select1stIS2_ESt4lessImESaIS2_EE24_M_get_insert_unique_posERS1_
FN:2061,_ZNSt8_Rb_treeIiSt4pairIKi6VertexESt10_Select1stIS3_ESt4lessIiESaIS3_EE24_M_get_insert_unique_posERS1_
FNDA:7,_ZNSt8_Rb_treeIiSt4pairIKi6VertexESt10_Select1stIS3_ESt4lessIiESaIS3_EE24_M_get_insert_unique_posERS1_
FN:2163,_ZNSt8_Rb_treeImSt4pairIKmmESt10_Select1stIS2_ESt4lessImESaIS2_EE29_M_get_insert_hint_unique_posESt23_Rb_tree_const_iteratorIS2_ERS1_
FNDA:28,_ZNSt8_Rb_treeImSt4pairIKmmESt10_Select1stIS2_ESt4lessImESaIS2_EE29_M_get_insert_hint_unique_posESt23_Rb_tree_const_iteratorIS2_ERS1_
FN:2163,_ZNSt8_Rb_treeIiSt4pairIKi6VertexESt10_Select1stIS3_ESt4lessIiESaIS3_EE29_M_get_insert_hint_unique_posESt23_Rb_tree_const_iteratorIS3_ERS1_
FNDA:19,_ZNSt8_Rb_treeIiSt4pairIKi6VertexESt10_Select1stIS3_ESt4lessIiESaIS3_EE29_M_get_insert_hint_unique_posESt23_Rb_tree_const_iteratorIS3_ERS1_
FN:2330,_ZNSt8_Rb_treeIiSt4pairIKi6VertexESt10_Select1stIS3_ESt4lessIiESaIS3_EE14_M_insert_nodeEPSt18_Rb_tree_node_baseSB_PSt13_Rb_tree_nodeIS3_E
FNDA:19,_ZNSt8_Rb_treeIiSt4pairIKi6VertexESt10_Select1stIS3_ESt4lessIiESaIS3_EE14_M_insert_nodeEPSt18_Rb_tree_node_baseSB_PSt13_Rb_tree_nodeIS3_E
FN:2330,_ZNSt8_Rb_treeImSt4pairIKmmESt10_Select1stIS2_ESt4lessImESaIS2_EE14_M_insert_nodeEPSt18_Rb_tree_node_baseSA_PSt13_Rb_tree_nodeIS2_E
FNDA:28,_ZNSt8_Rb_treeImSt4pairIKmmESt10_Select1stIS2_ESt4lessImESaIS2_EE14_M_insert_nodeEPSt18_Rb_tree_node_baseSA_PSt13_Rb_tree_nodeIS2_E
FN:2428,_ZNSt8_Rb_treeIiSt4pairIKi6VertexESt10_Select1stIS3_ESt4lessIiESaIS3_EE22_M_emplace_hint_uniqueIJRKSt21piecewise_construct_tSt5tupleIJOiEESE_IJEEEEESt17_Rb_tree_iteratorIS3_ESt23_Rb_tree_const_iteratorIS3_EDpOT_
FNDA:7,_ZNSt8_Rb_treeIiSt4pairIKi6VertexESt10_Select1stIS3_ESt4lessIiESaIS3_EE22_M_emplace_hint_uniqueIJRKSt21piecewise_construct_tSt5tupleIJOiEESE_IJEEEEESt17_Rb_tree_iteratorIS3_ESt23_Rb_tree_const_iteratorIS3_EDpOT_
FN:2428,_ZNSt8_Rb_treeImSt4pairIKmmESt10_Select1stIS2_ESt4lessImESaIS2_EE22_M_emplace_hint_uniqueIJRKSt21piecewise_construct_tSt5tupleIJRS1_EESD_IJEEEEESt17_Rb_tree_iteratorIS2_ESt23_Rb_tree_const_iteratorIS2_EDpOT_
FNDA:28,_ZNSt8_Rb_treeImSt4pairIKmmESt10_Select1stIS2_ESt4lessImESaIS2_EE22_M_emplace_hint_uniqueIJRKSt21piecewise_construct_tSt5tupleIJRS1_EESD_IJEEEEESt17_Rb_tree_iteratorIS2_ESt23_Rb_tree_const_iteratorIS2_EDpOT_
FN:2428,_ZNSt8_Rb_treeIiSt4pairIKi6VertexESt10_Select1stIS3_ESt4lessIiESaIS3_EE22_M_emplace_hint_uniqueIJRKSt21piecewise_construct_tSt5tupleIJRS1_EESE_IJEEEEESt17_Rb_tree_iteratorIS3_ESt23_Rb_tree_const_iteratorIS3_EDpOT_
FNDA:12,_ZNSt8_Rb_treeIiSt4pairIKi6VertexESt10_Select1stIS3_ESt4lessIiESaIS3_EE22_M_emplace_hint_uniqueIJRKSt21piecewise_construct_tSt5tupleIJRS1_EESE_IJEEEEESt17_Rb_tree_iteratorIS3_ESt23_Rb_tree_const_iteratorIS3_EDpOT_
FN:2480,_ZNSt8_Rb_treeImSt4pairIKmmESt10_Select1stIS2_ESt4lessImESaIS2_EE12_M_erase_auxESt23_Rb_tree_const_iteratorIS2_E
FNDA:3,_ZNSt8_Rb_treeImSt4pairIKmmESt10_Select1stIS2_ESt4lessImESaIS2_EE12_M_erase_auxESt23_Rb_tree_const_iteratorIS2_E
FN:2494,_ZNSt8_Rb_treeImSt4pairIKmmESt10_Select1stIS2_ESt4lessImESaIS2_EE12_M_erase_auxESt23_Rb_tree_const_iteratorIS2_ESA_
FNDA:8,_ZNSt8_Rb_treeImSt4pairIKmmESt10_Select1stIS2_ESt4lessImESaIS2_EE12_M_erase_auxESt23_Rb_tree_const_iteratorIS2_ESA_
FN:2507,_ZNSt8_Rb_treeImSt4pairIKmmESt10_Select1stIS2_ESt4lessImESaIS2_EE5eraseERS1_
FNDA:8,_ZNSt8_Rb_treeImSt4pairIKmmESt10_Select1stIS2_ESt4lessImESaIS2_EE5eraseERS1_
FN:2533,_ZNKSt8_Rb_treeIiSt4pairIKi6VertexESt10_Select1stIS3_ESt4lessIiESaIS3_EE4findERS1_
FNDA:0,_ZNKSt8_Rb_treeIiSt4pairIKi6VertexESt10_Select1stIS3_ESt4lessIiESaIS3_EE4findERS1_
DA:112,0
DA:114,0
DA:115,0
DA:126,0
DA:128,0
DA:129,0
DA:146,38
DA:150,38
DA:146,9
DA:150,9
DA:152,0
DA:154,0
DA:173,0
DA:174,0
DA:175,0
DA:176,0
DA:177,0
DA:206,0
DA:208,0
DA:209,0
DA:210,0
DA:211,0
DA:212,0
DA:234,0
DA:235,0
DA:234,332
DA:235,332
DA:238,76
DA:239,76
DA:238,333
DA:239,333
DA:273,192
DA:274,192
DA:273,356
DA:274,356
DA:277,30
DA:278,30
DA:277,294
DA:278,294
DA:285,0
DA:287,0
DA:288,0
DA:285,15
DA:287,15
DA:288,15
DA:300,0
DA:302,0
DA:303,0
DA:300,0
DA:302,0
DA:303,0
DA:315,47
DA:316,47
DA:315,154
DA:316,154
DA:320,20
DA:321,20
DA:347,8
DA:348,8
DA:350,58
DA:351,58
DA:350,19
DA:351,19
DA:354,28
DA:355,28
DA:354,19
DA:355,19
DA:358,12
DA:359,12
DA:366,12
DA:368,12
DA:369,12
DA:373,3
DA:375,3
DA:376,3
DA:377,3
DA:396,14
DA:397,14
DA:396,0
DA:397,0
DA:401,9
DA:402,9
DA:401,16
DA:402,16
DA:523,0
DA:524,0
DA:528,0
DA:529,0
DA:547,0
DA:548,0
DA:547,76
DA:548,76
DA:560,0
DA:561,0
DA:560,19
DA:561,19
DA:564,0
DA:565,0
DA:564,19
DA:565,19
DA:590,0
DA:594,0
DA:595,0
DA:605,0
DA:590,28
DA:594,28
DA:595,28
DA:599,0
DA:601,0
DA:602,0
DA:603,0
DA:605,28
DA:590,12
DA:594,12
DA:595,12
DA:599,0
DA:601,0
DA:602,0
DA:603,0
DA:605,12
DA:590,7
DA:594,7
DA:595,7
DA:599,0
DA:601,0
DA:602,0
DA:603,0
DA:605,7
DA:609,0
DA:611,0
DA:612,0
DA:613,0
DA:609,28
DA:611,28
DA:612,28
DA:613,28
DA:609,12
DA:611,12
DA:612,12
DA:613,12
DA:609,7
DA:611,7
DA:612,7
DA:613,7
DA:618,0
DA:623,0
DA:624,0
DA:626,0
DA:618,19
DA:623,19
DA:624,19
DA:626,19
DA:629,0
DA:631,0
DA:632,0
DA:633,0
DA:629,19
DA:631,19
DA:632,19
DA:633,19
DA:637,0
DA:645,0
DA:646,0
DA:647,0
DA:648,0
DA:649,0
DA:667,38
DA:671,38
DA:672,38
DA:667,7
DA:671,7
DA:672,7
DA:674,0
DA:676,0
DA:677,0
DA:678,0
DA:710,0
DA:711,0
DA:714,0
DA:715,0
DA:718,12
DA:719,12
DA:718,0
DA:719,0
DA:726,16
DA:727,16
DA:726,0
DA:727,0
DA:734,0
DA:735,0
DA:734,161
DA:735,161
DA:738,0
DA:739,0
DA:738,161
DA:739,161
DA:742,0
DA:745,0
DA:749,188
DA:750,188
DA:749,0
DA:750,0
DA:753,0
DA:754,0
DA:757,76
DA:775,76
DA:757,321
DA:775,321
DA:779,0
DA:780,0
DA:779,190
DA:780,190
DA:783,0
DA:784,0
DA:787,0
DA:788,0
DA:787,122
DA:788,122
DA:791,0
DA:792,0
DA:795,16
DA:796,16
DA:795,20
DA:796,20
DA:799,0
DA:800,0
DA:807,0
DA:808,0
DA:887,0
DA:890,0
DA:891,0
DA:892,0
DA:893,0
DA:894,0
DA:898,0
DA:900,0
DA:901,0
DA:928,38
DA:928,7
DA:935,0
DA:936,0
DA:938,0
DA:939,0
DA:940,0
DA:983,0
DA:984,0
DA:983,7
DA:984,7
DA:991,2
DA:992,2
DA:991,132
DA:992,132
DA:995,30
DA:996,30
DA:995,12
DA:996,12
DA:999,4
DA:1000,4
DA:1003,43
DA:1004,43
DA:1003,152
DA:1004,152
DA:1007,4
DA:1008,4
DA:1031,42
DA:1032,42
DA:1031,73
DA:1032,73
DA:1252,26
DA:1254,26
DA:1255,26
DA:1256,26
DA:1269,28
DA:1270,28
DA:1269,147
DA:1270,147
DA:1273,0
DA:1274,0
DA:1845,0
DA:1849,0
DA:1850,0
DA:1854,0
DA:1855,0
DA:1856,0
DA:1857,0
DA:1858,0
DA:1860,0
DA:1862,0
DA:1863,0
DA:1864,0
DA:1865,0
DA:1866,0
DA:1868,0
DA:1869,0
DA:1872,0
DA:1874,0
DA:1875,0
DA:1877,0
DA:1883,0
DA:1887,0
DA:1889,0
DA:1890,0
DA:1891,0
DA:1892,0
DA:1894,0
DA:1883,26
DA:1887,45
DA:1889,19
DA:1890,19
DA:1891,19
DA:1892,19
DA:1894,26
DA:1900,32
DA:1904,42
DA:1905,10
DA:1906,2
DA:1908,8
DA:1909,32
DA:1900,147
DA:1904,421
DA:1905,274
DA:1906,171
DA:1908,103
DA:1909,147
DA:1916,0
DA:1920,0
DA:1921,0
DA:1922,0
DA:1924,0
DA:1925,0
DA:1932,4
DA:1936,6
DA:1937,2
DA:1938,2
DA:1940,0
DA:1941,4
DA:1966,8
DA:1969,8
DA:1970,8
DA:1971,11
DA:1973,7
DA:1974,1
DA:1975,6
DA:1976,2
DA:1979,4
DA:1980,4
DA:1981,4
DA:1982,4
DA:1983,4
DA:1984,4
DA:1985,8
DA:1988,4
DA:1989,8
DA:2061,19
DA:2065,19
DA:2066,19
DA:2067,19
DA:2068,19
DA:2070,0
DA:2071,0
DA:2072,0
DA:2074,19
DA:2075,19
DA:2077,19
DA:2078,19
DA:2080,0
DA:2082,0
DA:2083,0
DA:2084,0
DA:2061,7
DA:2065,7
DA:2066,7
DA:2067,7
DA:2068,7
DA:2070,0
DA:2071,0
DA:2072,0
DA:2074,7
DA:2075,7
DA:2077,7
DA:2078,7
DA:2080,0
DA:2082,0
DA:2083,0
DA:2084,0
DA:2163,28
DA:2167,28
DA:2171,28
DA:2173,26
DA:2174,26
DA:2175,7
DA:2177,19
DA:2179,2
DA:2182,2
DA:2183,2
DA:2184,2
DA:2185,0
DA:2187,0
DA:2188,0
DA:2190,0
DA:2193,0
DA:2195,0
DA:2198,0
DA:2199,0
DA:2200,0
DA:2201,0
DA:2203,0
DA:2204,0
DA:2206,0
DA:2209,0
DA:2213,0
DA:2163,19
DA:2167,19
DA:2171,19
DA:2173,15
DA:2174,15
DA:2175,8
DA:2177,7
DA:2179,4
DA:2182,4
DA:2183,4
DA:2184,4
DA:2185,0
DA:2187,0
DA:2188,0
DA:2190,0
DA:2193,0
DA:2195,0
DA:2198,0
DA:2199,0
DA:2200,0
DA:2201,0
DA:2203,0
DA:2204,0
DA:2206,0
DA:2209,0
DA:2213,0
DA:2330,28
DA:2333,26
DA:2334,54
DA:2337,28
DA:2338,28
DA:2339,28
DA:2340,28
DA:2330,19
DA:2333,15
DA:2334,34
DA:2337,19
DA:2338,19
DA:2339,19
DA:2340,19
DA:2428,28
DA:2431,28
DA:2435,28
DA:2437,28
DA:2438,28
DA:2440,0
DA:2441,0
DA:2443,0
DA:2445,0
DA:2446,0
DA:2428,12
DA:2431,12
DA:2435,12
DA:2437,12
DA:2438,12
DA:2440,0
DA:2441,0
DA:2443,0
DA:2445,0
DA:2446,0
DA:2428,7
DA:2431,7
DA:2435,7
DA:2437,7
DA:2438,7
DA:2440,0
DA:2441,0
DA:2443,0
DA:2445,0
DA:2446,0
DA:2480,3
DA:2485,3
DA:2486,3
DA:2487,3
DA:2488,3
DA:2489,3
DA:2494,8
DA:2497,8
DA:2498,2
DA:2500,9
DA:2501,3
DA:2502,8
DA:2507,8
DA:2510,8
DA:2511,8
DA:2512,8
DA:2513,8
DA:2533,0
DA:2536,0
DA:2537,0
DA:2538,0
DA:2539,0
end_of_record
SF:/usr/include/c++/11/bits/basic_string.tcc
FN:206,_ZNSt7__cxx1112basic_stringIcSt11char_traitsIcESaIcEE12_M_constructIPcEEvT_S7_St20forward_iterator_tag
FNDA:245,_ZNSt7__cxx1112basic_stringIcSt11char_traitsIcESaIcEE12_M_constructIPcEEvT_S7_St20forward_iterator_tag
FN:206,_ZNSt7__cxx1112basic_stringIcSt11char_traitsIcESaIcEE12_M_constructIPKcEEvT_S8_St20forward_iterator_tag
FNDA:52,_ZNSt7__cxx1112basic_stringIcSt11char_traitsIcESaIcEE12_M_constructIPKcEEvT_S8_St20forward_iterator_tag
DA:206,245
DA:211,245
DA:212,0
DA:215,245
DA:217,245
DA:219,31
DA:220,31
DA:225,245
DA:226,0
DA:228,0
DA:229,0
DA:232,245
DA:233,245
DA:206,52
DA:211,52
DA:212,0
DA:215,52
DA:217,52
DA:219,8
DA:220,8
DA:225,52
DA:226,0
DA:228,0
DA:229,0
DA:232,52
DA:233,52
end_of_record
SF:/usr/include/c++/11/tuple
FN:192,_ZNSt10_Head_baseILm0ERSt6vectorIS0_ImSaImEESaIS2_EELb0EEC2ES5_
FNDA:8,_ZNSt10_Head_baseILm0ERSt6vectorIS0_ImSaImEESaIS2_EELb0EEC2ES5_
FN:192,_ZNSt10_Head_baseILm1ERSt6vectorIS0_ImSaImEESaIS2_EELb0EEC2ES5_
FNDA:8,_ZNSt10_Head_baseILm1ERSt6vectorIS0_ImSaImEESaIS2_EELb0EEC2ES5_
FN:192,_ZNSt10_Head_baseILm0ERKmLb0EEC2ES1_
FNDA:28,_ZNSt10_Head_baseILm0ERKmLb0EEC2ES1_
FN:192,_ZNSt10_Head_baseILm0ERKiLb0EEC2ES1_
FNDA:14,_ZNSt10_Head_baseILm0ERKiLb0EEC2ES1_
FN:199,_ZNSt10_Head_baseILm0EOiLb0EEC2IiEEOT_
FNDA:7,_ZNSt10_Head_baseILm0EOiLb0EEC2IiEEOT_
FN:233,_ZNSt10_Head_baseILm0ERKiLb0EE7_M_headERS2_
FNDA:14,_ZNSt10_Head_baseILm0ERKiLb0EE7_M_headERS2_
FN:233,_ZNSt10_Head_baseILm0EOiLb0EE7_M_headERS1_
FNDA:7,_ZNSt10_Head_baseILm0EOiLb0EE7_M_headERS1_
FN:233,_ZNSt10_Head_baseILm0ERKmLb0EE7_M_headERS2_
FNDA:28,_ZNSt10_Head_baseILm0ERKmLb0EE7_M_headERS2_
FN:233,_ZNSt10_Head_baseILm1ERSt6vectorIS0_ImSaImEESaIS2_EELb0EE7_M_headERS6_
FNDA:8,_ZNSt10_Head_baseILm1ERSt6vectorIS0_ImSaImEESaIS2_EELb0EE7_M_headERS6_
FN:233,_ZNSt10_Head_baseILm0ERSt6vectorIS0_ImSaImEESaIS2_EELb0EE7_M_headERS6_
FNDA:8,_ZNSt10_Head_baseILm0ERSt6vectorIS0_ImSaImEESaIS2_EELb0EE7_M_headERS6_
FN:268,_ZNSt11_Tuple_implILm0EJRSt6vectorIS0_ImSaImEESaIS2_EES5_EE7_M_headERS6_
FNDA:8,_ZNSt11_Tuple_implILm0EJRSt6vectorIS0_ImSaImEESaIS2_EES5_EE7_M_headERS6_
FN:274,_ZNSt11_Tuple_implILm0EJRSt6vectorIS0_ImSaImEESaIS2_EES5_EE7_M_tailERS6_
FNDA:8,_ZNSt11_Tuple_implILm0EJRSt6vectorIS0_ImSaImEESaIS2_EES5_EE7_M_tailERS6_
FN:283,_ZNSt11_Tuple_implILm0EJRSt6vectorIS0_ImSaImEESaIS2_EES5_EEC2ES5_S5_
FNDA:8,_ZNSt11_Tuple_implILm0EJRSt6vectorIS0_ImSaImEESaIS2_EES5_EEC2ES5_S5_
FN:424,_ZNSt11_Tuple_implILm1EJRSt6vectorIS0_ImSaImEESaIS2_EEEE7_M_headERS6_
FNDA:8,_ZNSt11_Tuple_implILm1EJRSt6vectorIS0_ImSaImEESaIS2_EEEE7_M_headERS6_
FN:424,_ZNSt11_Tuple_implILm0EJOiEE7_M_headERS1_
FNDA:7,_ZNSt11_Tuple_implILm0EJOiEE7_M_headERS1_
FN:424,_ZNSt11_Tuple_implILm0EJRKiEE7_M_headERS2_
FNDA:14,_ZNSt11_Tuple_implILm0EJRKiEE7_M_headERS2_
FN:424,_ZNSt11_Tuple_implILm0EJRKmEE7_M_headERS2_
FNDA:28,_ZNSt11_Tuple_implILm0EJRKmEE7_M_headERS2_
FN:434,_ZNSt11_Tuple_implILm0EJRKmEEC2ES1_
FNDA:28,_ZNSt11_Tuple_implILm0EJRKmEEC2ES1_
FN:434,_ZNSt11_Tuple_implILm0EJRKiEEC2ES1_
FNDA:14,_ZNSt11_Tuple_implILm0EJRKiEEC2ES1_
FN:434,_ZNSt11_Tuple_implILm1EJRSt6vectorIS0_ImSaImEESaIS2_EEEEC2ES5_
FNDA:8,_ZNSt11_Tuple_implILm1EJRSt6vectorIS0_ImSaImEESaIS2_EEEEC2ES5_
FN:440,_ZNSt11_Tuple_implILm0EJOiEEC2IiEEOT_
FNDA:7,_ZNSt11_Tuple_implILm0EJOiEEC2IiEEOT_
FN:454,_ZNSt11_Tuple_implILm0EJRKmEEC2EOS2_
FNDA:28,_ZNSt11_Tuple_implILm0EJRKmEEC2EOS2_
FN:454,_ZNSt11_Tuple_implILm0EJRKiEEC2EOS2_
FNDA:14,_ZNSt11_Tuple_implILm0EJRKiEEC2EOS2_
FN:454,_ZNSt11_Tuple_implILm0EJOiEEC2EOS1_
FNDA:7,_ZNSt11_Tuple_implILm0EJOiEEC2EOS1_
FN:727,_ZNSt5tupleIJRKmEEC2ILb1ELb1EEES1_
FNDA:28,_ZNSt5tupleIJRKmEEC2ILb1ELb1EEES1_
FN:727,_ZNSt5tupleIJRKiEEC2ILb1ELb1EEES1_
FNDA:14,_ZNSt5tupleIJRKiEEC2ILb1ELb1EEES1_
FN:742,_ZNSt5tupleIJOiEEC2IJiELb1ELb1EEEDpOT_
FNDA:7,_ZNSt5tupleIJOiEEC2IJiELb1ELb1EEEDpOT_
FN:756,_ZNSt5tupleIJOiEEC2EOS1_
FNDA:7,_ZNSt5tupleIJOiEEC2EOS1_
FN:756,_ZNSt5tupleIJRKmEEC2EOS2_
FNDA:28,_ZNSt5tupleIJRKmEEC2EOS2_
FN:756,_ZNSt5tupleIJRKiEEC2EOS2_
FNDA:14,_ZNSt5tupleIJRKiEEC2EOS2_
FN:1063,_ZNSt5tupleIJRSt6vectorIS0_ImSaImEESaIS2_EES5_EEC2ILb1ELb1EEES5_S5_
FNDA:8,_ZNSt5tupleIJRSt6vectorIS0_ImSaImEESaIS2_EES5_EEC2ILb1ELb1EEES5_S5_
FN:1321,_ZNSt5tupleIJRSt6vectorIS0_ImSaImEESaIS2_EES5_EEaSIS4_S4_EENSt9enable_ifIXcl12__assignableIT_T0_EEERS6_E4typeEOSt4pairIS9_SA_E
FNDA:8,_ZNSt5tupleIJRSt6vectorIS0_ImSaImEESaIS2_EES5_EEaSIS4_S4_EENSt9enable_ifIXcl12__assignableIT_T0_EEERS6_E4typeEOSt4pairIS9_SA_E
FN:1377,_ZSt12__get_helperILm0ERKmJEERT0_RSt11_Tuple_implIXT_EJS2_DpT1_EE
FNDA:28,_ZSt12__get_helperILm0ERKmJEERT0_RSt11_Tuple_implIXT_EJS2_DpT1_EE
FN:1377,_ZSt12__get_helperILm0ERKiJEERT0_RSt11_Tuple_implIXT_EJS2_DpT1_EE
FNDA:14,_ZSt12__get_helperILm0ERKiJEERT0_RSt11_Tuple_implIXT_EJS2_DpT1_EE
FN:1377,_ZSt12__get_helperILm0EOiJEERT0_RSt11_Tuple_implIXT_EJS1_DpT1_EE
FNDA:7,_ZSt12__get_helperILm0EOiJEERT0_RSt11_Tuple_implIXT_EJS1_DpT1_EE
FN:1393,_ZSt3getILm0EJRKiEERNSt13tuple_elementIXT_ESt5tupleIJDpT0_EEE4typeERS6_
FNDA:14,_ZSt3getILm0EJRKiEERNSt13tuple_elementIXT_ESt5tupleIJDpT0_EEE4typeERS6_
FN:1393,_ZSt3getILm0EJRKmEERNSt13tuple_elementIXT_ESt5tupleIJDpT0_EEE4typeERS6_
FNDA:28,_ZSt3getILm0EJRKmEERNSt13tuple_elementIXT_ESt5tupleIJDpT0_EEE4typeERS6_
FN:1393,_ZSt3getILm0EJOiEERNSt13tuple_elementIXT_ESt5tupleIJDpT0_EEE4typeERS5_
FNDA:7,_ZSt3getILm0EJOiEERNSt13tuple_elementIXT_ESt5tupleIJDpT0_EEE4typeERS5_
FN:1617,_ZSt16forward_as_tupleIJiEESt5tupleIJDpOT_EES3_
FNDA:7,_ZSt16forward_as_tupleIJiEESt5tupleIJDpOT_EES3_
FN:1746,_ZSt3tieIJSt6vectorIS0_ImSaImEESaIS2_EES4_EESt5tupleIJDpRT_EES8_
FNDA:8,_ZSt3tieIJSt6vectorIS0_ImSaImEESaIS2_EES4_EESt5tupleIJDpRT_EES8_
FN:1804,_ZNSt4pairIKmmEC2IJRS0_EJEEESt21piecewise_construct_tSt5tupleIJDpT_EES5_IJDpT0_EE
FNDA:28,_ZNSt4pairIKmmEC2IJRS0_EJEEESt21piecewise_construct_tSt5tupleIJDpT_EES5_IJDpT0_EE
FN:1804,_ZNSt4pairIKi6VertexEC2IJRS0_EJEEESt21piecewise_construct_tSt5tupleIJDpT_EES6_IJDpT0_EE
FNDA:12,_ZNSt4pairIKi6VertexEC2IJRS0_EJEEESt21piecewise_construct_tSt5tupleIJDpT_EES6_IJDpT0_EE
FN:1804,_ZNSt4pairIKi6VertexEC2IJOiEJEEESt21piecewise_construct_tSt5tupleIJDpT_EES6_IJDpT0_EE
FNDA:7,_ZNSt4pairIKi6VertexEC2IJOiEJEEESt21piecewise_construct_tSt5tupleIJDpT_EES6_IJDpT0_EE
FN:1816,_ZNSt4pairIKmmEC2IJRS0_EJLm0EEJEJEEERSt5tupleIJDpT_EERS4_IJDpT1_EESt12_Index_tupleIJXspT0_EEESD_IJXspT2_EEE
FNDA:28,_ZNSt4pairIKmmEC2IJRS0_EJLm0EEJEJEEERSt5tupleIJDpT_EERS4_IJDpT1_EESt12_Index_tupleIJXspT0_EEESD_IJXspT2_EEE
FN:1816,_ZNSt4pairIKi6VertexEC2IJRS0_EJLm0EEJEJEEERSt5tupleIJDpT_EERS5_IJDpT1_EESt12_Index_tupleIJXspT0_EEESE_IJXspT2_EEE
FNDA:12,_ZNSt4pairIKi6VertexEC2IJRS0_EJLm0EEJEJEEERSt5tupleIJDpT_EERS5_IJDpT1_EESt12_Index_tupleIJXspT0_EEESE_IJXspT2_EEE
FN:1816,_ZNSt4pairIKi6VertexEC2IJOiEJLm0EEJEJEEERSt5tupleIJDpT_EERS5_IJDpT1_EESt12_Index_tupleIJXspT0_EEESE_IJXspT2_EEE
FNDA:7,_ZNSt4pairIKi6VertexEC2IJOiEJLm0EEJEJEEERSt5tupleIJDpT_EERS5_IJDpT1_EESt12_Index_tupleIJXspT0_EEESE_IJXspT2_EEE
DA:192,8
DA:193,8
DA:192,8
DA:193,8
DA:192,28
DA:193,28
DA:192,14
DA:193,14
DA:199,7
DA:200,7
DA:233,28
DA:233,14
DA:233,7
DA:233,8
DA:233,8
DA:268,8
DA:274,8
DA:283,8
DA:284,8
DA:285,8
DA:424,28
DA:424,14
DA:424,7
DA:424,8
DA:434,8
DA:435,8
DA:436,8
DA:434,28
DA:435,28
DA:436,28
DA:434,14
DA:435,14
DA:436,14
DA:440,7
DA:441,7
DA:442,7
DA:454,28
DA:456,28
DA:457,28
DA:454,14
DA:456,14
DA:457,14
DA:454,7
DA:456,7
DA:457,7
DA:727,28
DA:729,28
DA:727,14
DA:729,14
DA:742,7
DA:744,7
DA:756,28
DA:756,14
DA:756,7
DA:1063,8
DA:1065,8
DA:1321,8
DA:1324,8
DA:1325,8
DA:1326,8
DA:1377,28
DA:1378,28
DA:1377,14
DA:1378,14
DA:1377,7
DA:1378,7
DA:1393,28
DA:1394,28
DA:1393,14
DA:1394,14
DA:1393,7
DA:1394,7
DA:1617,7
DA:1618,7
DA:1746,8
DA:1747,8
DA:1804,28
DA:1809,28
DA:1810,28
DA:1804,12
DA:1809,12
DA:1810,12
DA:1804,7
DA:1809,7
DA:1810,7
DA:1816,28
DA:1819,28
DA:1820,28
DA:1821,28
DA:1816,12
DA:1819,12
DA:1820,12
DA:1821,12
DA:1816,7
DA:1819,7
DA:1820,7
DA:1821,7
end_of_record
SF:/usr/include/c++/11/bits/hashtable_policy.h
FN:85,_ZNKSt8__detail9_IdentityclIRK4EdgeEEOT_S6_
FNDA:16,_ZNKSt8__detail9_IdentityclIRK4EdgeEEOT_S6_
FN:85,_ZNKSt8__detail9_IdentityclIRK6VertexEEOT_S6_
FNDA:0,_ZNKSt8__detail9_IdentityclIRK6VertexEEOT_S6_
FN:162,_ZNSt8__detail10_AllocNodeISaINS_10_Hash_nodeI4EdgeLb1EEEEEC2ERNS_16_Hashtable_allocIS4_EE
FNDA:14,_ZNSt8__detail10_AllocNodeISaINS_10_Hash_nodeI4EdgeLb1EEEEEC2ERNS_16_Hashtable_allocIS4_EE
FN:167,_ZNKSt8__detail10_AllocNodeISaINS_10_Hash_nodeI4EdgeLb1EEEEEclIRKS2_EEPS3_OT_
FNDA:14,_ZNKSt8__detail10_AllocNodeISaINS_10_Hash_nodeI4EdgeLb1EEEEEclIRKS2_EEPS3_OT_
FN:219,_ZNSt8__detail15_Hash_node_baseC2Ev
FNDA:41,_ZNSt8__detail15_Hash_node_baseC2Ev
FN:237,_ZNSt8__detail21_Hash_node_value_baseI6VertexE9_M_valptrEv
FNDA:49,_ZNSt8__detail21_Hash_node_value_baseI6VertexE9_M_valptrEv
FN:237,_ZNSt8__detail21_Hash_node_value_baseI4EdgeE9_M_valptrEv
FNDA:81,_ZNSt8__detail21_Hash_node_value_baseI4EdgeE9_M_valptrEv
FN:241,_ZNKSt8__detail21_Hash_node_value_baseI4EdgeE9_M_valptrEv
FNDA:2,_ZNKSt8__detail21_Hash_node_value_baseI4EdgeE9_M_valptrEv
FN:241,_ZNKSt8__detail21_Hash_node_value_baseI6VertexE9_M_valptrEv
FNDA:0,_ZNKSt8__detail21_Hash_node_value_baseI6VertexE9_M_valptrEv
FN:245,_ZNSt8__detail21_Hash_node_value_baseI4EdgeE4_M_vEv
FNDA:41,_ZNSt8__detail21_Hash_node_value_baseI4EdgeE4_M_vEv
FN:245,_ZNSt8__detail21_Hash_node_value_baseI6VertexE4_M_vEv
FNDA:21,_ZNSt8__detail21_Hash_node_value_baseI6VertexE4_M_vEv
FN:249,_ZNKSt8__detail21_Hash_node_value_baseI6VertexE4_M_vEv
FNDA:0,_ZNKSt8__detail21_Hash_node_value_baseI6VertexE4_M_vEv
FN:249,_ZNKSt8__detail21_Hash_node_value_baseI4EdgeE4_M_vEv
FNDA:2,_ZNKSt8__detail21_Hash_node_value_baseI4EdgeE4_M_vEv
FN:282,_ZNKSt8__detail10_Hash_nodeI4EdgeLb1EE7_M_nextEv
FNDA:65,_ZNKSt8__detail10_Hash_nodeI4EdgeLb1EE7_M_nextEv
FN:282,_ZNKSt8__detail10_Hash_nodeI6VertexLb1EE7_M_nextEv
FNDA:39,_ZNKSt8__detail10_Hash_nodeI6VertexLb1EE7_M_nextEv
FN:295,_ZNSt8__detail19_Node_iterator_baseI6VertexLb1EEC2EPNS_10_Hash_nodeIS1_Lb1EEE
FNDA:19,_ZNSt8__detail19_Node_iterator_baseI6VertexLb1EEC2EPNS_10_Hash_nodeIS1_Lb1EEE
FN:295,_ZNSt8__detail19_Node_iterator_baseI4EdgeLb1EEC2EPNS_10_Hash_nodeIS1_Lb1EEE
FNDA:54,_ZNSt8__detail19_Node_iterator_baseI4EdgeLb1EEC2EPNS_10_Hash_nodeIS1_Lb1EEE
FN:299,_ZNSt8__detail19_Node_iterator_baseI6VertexLb1EE7_M_incrEv
FNDA:14,_ZNSt8__detail19_Node_iterator_baseI6VertexLb1EE7_M_incrEv
FN:299,_ZNSt8__detail19_Node_iterator_baseI4EdgeLb1EE7_M_incrEv
FNDA:41,_ZNSt8__detail19_Node_iterator_baseI4EdgeLb1EE7_M_incrEv
FN:309,_ZNSt8__detailneERKNS_19_Node_iterator_baseI4EdgeLb1EEES4_
FNDA:58,_ZNSt8__detailneERKNS_19_Node_iterator_baseI4EdgeLb1EEES4_
FN:309,_ZNSt8__detailneERKNS_19_Node_iterator_baseI6VertexLb1EEES4_
FNDA:20,_ZNSt8__detailneERKNS_19_Node_iterator_baseI6VertexLb1EEES4_
FN:338,_ZNSt8__detail14_Node_iteratorI4EdgeLb1ELb1EEC2EPNS_10_Hash_nodeIS1_Lb1EEE
FNDA:28,_ZNSt8__detail14_Node_iteratorI4EdgeLb1ELb1EEC2EPNS_10_Hash_nodeIS1_Lb1EEE
FN:338,_ZNSt8__detail14_Node_iteratorI6VertexLb1ELb1EEC2EPNS_10_Hash_nodeIS1_Lb1EEE
FNDA:19,_ZNSt8__detail14_Node_iteratorI6VertexLb1ELb1EEC2EPNS_10_Hash_nodeIS1_Lb1EEE
FN:342,_ZNKSt8__detail14_Node_iteratorI6VertexLb1ELb1EEdeEv
FNDA:14,_ZNKSt8__detail14_Node_iteratorI6VertexLb1ELb1EEdeEv
FN:350,_ZNSt8__detail14_Node_iteratorI6VertexLb1ELb1EEppEv
FNDA:14,_ZNSt8__detail14_Node_iteratorI6VertexLb1ELb1EEppEv
FN:385,_ZNSt8__detail20_Node_const_iteratorI4EdgeLb1ELb1EEC2EPNS_10_Hash_nodeIS1_Lb1EEE
FNDA:26,_ZNSt8__detail20_Node_const_iteratorI4EdgeLb1ELb1EEC2EPNS_10_Hash_nodeIS1_Lb1EEE
FN:393,_ZNKSt8__detail20_Node_const_iteratorI4EdgeLb1ELb1EEdeEv
FNDA:29,_ZNKSt8__detail20_Node_const_iteratorI4EdgeLb1ELb1EEdeEv
FN:401,_ZNSt8__detail20_Node_const_iteratorI4EdgeLb1ELb1EEppEv
FNDA:29,_ZNSt8__detail20_Node_const_iteratorI4EdgeLb1ELb1EEppEv
FN:428,_ZNKSt8__detail18_Mod_range_hashingclEmm
FNDA:53,_ZNKSt8__detail18_Mod_range_hashingclEmm
FN:446,_ZNSt8__detail20_Prime_rehash_policyC2Ef
FNDA:10,_ZNSt8__detail20_Prime_rehash_policyC2Ef
FN:473,_ZNKSt8__detail20_Prime_rehash_policy8_M_stateEv
FNDA:21,_ZNKSt8__detail20_Prime_rehash_policy8_M_stateEv
FN:481,_ZNSt8__detail20_Prime_rehash_policy8_M_resetEm
FNDA:0,_ZNSt8__detail20_Prime_rehash_policy8_M_resetEm
FN:815,_ZNSt8__detail12_Insert_baseI4EdgeS1_SaIS1_ENS_9_IdentityESt8equal_toIS1_ESt4hashIS1_ENS_18_Mod_range_hashingENS_20_Default_ranged_hashENS_20_Prime_rehash_policyENS_17_Hashtable_traitsILb1ELb1ELb1EEEE20_M_conjure_hashtableEv
FNDA:14,_ZNSt8__detail12_Insert_baseI4EdgeS1_SaIS1_ENS_9_IdentityESt8equal_toIS1_ESt4hashIS1_ENS_18_Mod_range_hashingENS_20_Default_ranged_hashENS_20_Prime_rehash_policyENS_17_Hashtable_traitsILb1ELb1ELb1EEEE20_M_conjure_hashtableEv
FN:840,_ZNSt8__detail12_Insert_baseI4EdgeS1_SaIS1_ENS_9_IdentityESt8equal_toIS1_ESt4hashIS1_ENS_18_Mod_range_hashingENS_20_Default_ranged_hashENS_20_Prime_rehash_policyENS_17_Hashtable_traitsILb1ELb1ELb1EEEE6insertERKS1_
FNDA:14,_ZNSt8__detail12_Insert_baseI4EdgeS1_SaIS1_ENS_9_IdentityESt8equal_toIS1_ESt4hashIS1_ENS_18_Mod_range_hashingENS_20_Default_ranged_hashENS_20_Prime_rehash_policyENS_17_Hashtable_traitsILb1ELb1ELb1EEEE6insertERKS1_
FN:1127,_ZNSt8__detail21_Hashtable_ebo_helperILi1ESt4hashI4EdgeELb1EEC2Ev
FNDA:7,_ZNSt8__detail21_Hashtable_ebo_helperILi1ESt4hashI4EdgeELb1EEC2Ev
FN:1127,_ZNSt8__detail21_Hashtable_ebo_helperILi0ESt8equal_toI4EdgeELb1EEC2Ev
FNDA:7,_ZNSt8__detail21_Hashtable_ebo_helperILi0ESt8equal_toI4EdgeELb1EEC2Ev
FN:1127,_ZNSt8__detail21_Hashtable_ebo_helperILi0ESaINS_10_Hash_nodeI4EdgeLb1EEEELb1EEC2Ev
FNDA:7,_ZNSt8__detail21_Hashtable_ebo_helperILi0ESaINS_10_Hash_nodeI4EdgeLb1EEEELb1EEC2Ev
FN:1134,_ZNKSt8__detail21_Hashtable_ebo_helperILi0ESt8equal_toI4EdgeELb1EE7_M_cgetEv
FNDA:2,_ZNKSt8__detail21_Hashtable_ebo_helperILi0ESt8equal_toI4EdgeELb1EE7_M_cgetEv
FN:1134,_ZNKSt8__detail21_Hashtable_ebo_helperILi1ESt4hashI4EdgeELb1EE7_M_cgetEv
FNDA:18,_ZNKSt8__detail21_Hashtable_ebo_helperILi1ESt4hashI4EdgeELb1EE7_M_cgetEv
FN:1134,_ZNKSt8__detail21_Hashtable_ebo_helperILi0ESt8equal_toI6VertexELb1EE7_M_cgetEv
FNDA:0,_ZNKSt8__detail21_Hashtable_ebo_helperILi0ESt8equal_toI6VertexELb1EE7_M_cgetEv
FN:1134,_ZNKSt8__detail21_Hashtable_ebo_helperILi1ESt4hashI6VertexELb1EE7_M_cgetEv
FNDA:7,_ZNKSt8__detail21_Hashtable_ebo_helperILi1ESt4hashI6VertexELb1EE7_M_cgetEv
FN:1135,_ZNSt8__detail21_Hashtable_ebo_helperILi0ESaINS_10_Hash_nodeI4EdgeLb1EEEELb1EE6_M_getEv
FNDA:68,_ZNSt8__detail21_Hashtable_ebo_helperILi0ESaINS_10_Hash_nodeI4EdgeLb1EEEELb1EE6_M_getEv
FN:1210,_ZNSt8__detail15_Hash_code_baseI4EdgeS1_NS_9_IdentityESt4hashIS1_ENS_18_Mod_range_hashingENS_20_Default_ranged_hashELb1EEC2Ev
FNDA:7,_ZNSt8__detail15_Hash_code_baseI4EdgeS1_NS_9_IdentityESt4hashIS1_ENS_18_Mod_range_hashingENS_20_Default_ranged_hashELb1EEC2Ev
FN:1215,_ZNKSt8__detail15_Hash_code_baseI6VertexS1_NS_9_IdentityESt4hashIS1_ENS_18_Mod_range_hashingENS_20_Default_ranged_hashELb1EE12_M_hash_codeERKS1_
FNDA:7,_ZNKSt8__detail15_Hash_code_baseI6VertexS1_NS_9_IdentityESt4hashIS1_ENS_18_Mod_range_hashingENS_20_Default_ranged_hashELb1EE12_M_hash_codeERKS1_
FN:1215,_ZNKSt8__detail15_Hash_code_baseI4EdgeS1_NS_9_IdentityESt4hashIS1_ENS_18_Mod_range_hashingENS_20_Default_ranged_hashELb1EE12_M_hash_codeERKS1_
FNDA:18,_ZNKSt8__detail15_Hash_code_baseI4EdgeS1_NS_9_IdentityESt4hashIS1_ENS_18_Mod_range_hashingENS_20_Default_ranged_hashELb1EE12_M_hash_codeERKS1_
FN:1232,_ZNKSt8__detail15_Hash_code_baseI4EdgeS1_NS_9_IdentityESt4hashIS1_ENS_18_Mod_range_hashingENS_20_Default_ranged_hashELb1EE15_M_bucket_indexEmm
FNDA:24,_ZNKSt8__detail15_Hash_code_baseI4EdgeS1_NS_9_IdentityESt4hashIS1_ENS_18_Mod_range_hashingENS_20_Default_ranged_hashELb1EE15_M_bucket_indexEmm
FN:1232,_ZNKSt8__detail15_Hash_code_baseI6VertexS1_NS_9_IdentityESt4hashIS1_ENS_18_Mod_range_hashingENS_20_Default_ranged_hashELb1EE15_M_bucket_indexEmm
FNDA:10,_ZNKSt8__detail15_Hash_code_baseI6VertexS1_NS_9_IdentityESt4hashIS1_ENS_18_Mod_range_hashingENS_20_Default_ranged_hashELb1EE15_M_bucket_indexEmm
FN:1247,_ZNKSt8__detail15_Hash_code_baseI6VertexS1_NS_9_IdentityESt4hashIS1_ENS_18_Mod_range_hashingENS_20_Default_ranged_hashELb1EE15_M_bucket_indexERKNS_16_Hash_node_valueIS1_Lb1EEEm
FNDA:11,_ZNKSt8__detail15_Hash_code_baseI6VertexS1_NS_9_IdentityESt4hashIS1_ENS_18_Mod_range_hashingENS_20_Default_ranged_hashELb1EE15_M_bucket_indexERKNS_16_Hash_node_valueIS1_Lb1EEEm
FN:1247,_ZNKSt8__detail15_Hash_code_baseI4EdgeS1_NS_9_IdentityESt4hashIS1_ENS_18_Mod_range_hashingENS_20_Default_ranged_hashELb1EE15_M_bucket_indexERKNS_16_Hash_node_valueIS1_Lb1EEEm
FNDA:8,_ZNKSt8__detail15_Hash_code_baseI4EdgeS1_NS_9_IdentityESt4hashIS1_ENS_18_Mod_range_hashingENS_20_Default_ranged_hashELb1EE15_M_bucket_indexERKNS_16_Hash_node_valueIS1_Lb1EEEm
FN:1263,_ZNKSt8__detail15_Hash_code_baseI4EdgeS1_NS_9_IdentityESt4hashIS1_ENS_18_Mod_range_hashingENS_20_Default_ranged_hashELb1EE13_M_store_codeERNS_21_Hash_node_code_cacheILb1EEEm
FNDA:14,_ZNKSt8__detail15_Hash_code_baseI4EdgeS1_NS_9_IdentityESt4hashIS1_ENS_18_Mod_range_hashingENS_20_Default_ranged_hashELb1EE13_M_store_codeERNS_21_Hash_node_code_cacheILb1EEEm
FN:1276,_ZNKSt8__detail15_Hash_code_baseI4EdgeS1_NS_9_IdentityESt4hashIS1_ENS_18_Mod_range_hashingENS_20_Default_ranged_hashELb1EE7_M_hashEv
FNDA:18,_ZNKSt8__detail15_Hash_code_baseI4EdgeS1_NS_9_IdentityESt4hashIS1_ENS_18_Mod_range_hashingENS_20_Default_ranged_hashELb1EE7_M_hashEv
FN:1276,_ZNKSt8__detail15_Hash_code_baseI6VertexS1_NS_9_IdentityESt4hashIS1_ENS_18_Mod_range_hashingENS_20_Default_ranged_hashELb1EE7_M_hashEv
FNDA:7,_ZNKSt8__detail15_Hash_code_baseI6VertexS1_NS_9_IdentityESt4hashIS1_ENS_18_Mod_range_hashingENS_20_Default_ranged_hashELb1EE7_M_hashEv
FN:1595,_ZNSt8__detail15_Hashtable_baseI4EdgeS1_NS_9_IdentityESt8equal_toIS1_ESt4hashIS1_ENS_18_Mod_range_hashingENS_20_Default_ranged_hashENS_17_Hashtable_traitsILb1ELb1ELb1EEEE9_S_equalsEmRKNS_21_Hash_node_code_cacheILb1EEE
FNDA:2,_ZNSt8__detail15_Hashtable_baseI4EdgeS1_NS_9_IdentityESt8equal_toIS1_ESt4hashIS1_ENS_18_Mod_range_hashingENS_20_Default_ranged_hashENS_17_Hashtable_traitsILb1ELb1ELb1EEEE9_S_equalsEmRKNS_21_Hash_node_code_cacheILb1EEE
FN:1595,_ZNSt8__detail15_Hashtable_baseI6VertexS1_NS_9_IdentityESt8equal_toIS1_ESt4hashIS1_ENS_18_Mod_range_hashingENS_20_Default_ranged_hashENS_17_Hashtable_traitsILb1ELb1ELb1EEEE9_S_equalsEmRKNS_21_Hash_node_code_cacheILb1EEE
FNDA:0,_ZNSt8__detail15_Hashtable_baseI6VertexS1_NS_9_IdentityESt8equal_toIS1_ESt4hashIS1_ENS_18_Mod_range_hashingENS_20_Default_ranged_hashENS_17_Hashtable_traitsILb1ELb1ELb1EEEE9_S_equalsEmRKNS_21_Hash_node_code_cacheILb1EEE
FN:1604,_ZNSt8__detail15_Hashtable_baseI4EdgeS1_NS_9_IdentityESt8equal_toIS1_ESt4hashIS1_ENS_18_Mod_range_hashingENS_20_Default_ranged_hashENS_17_Hashtable_traitsILb1ELb1ELb1EEEEC2Ev
FNDA:7,_ZNSt8__detail15_Hashtable_baseI4EdgeS1_NS_9_IdentityESt8equal_toIS1_ESt4hashIS1_ENS_18_Mod_range_hashingENS_20_Default_ranged_hashENS_17_Hashtable_traitsILb1ELb1ELb1EEEEC2Ev
FN:1611,_ZNKSt8__detail15_Hashtable_baseI4EdgeS1_NS_9_IdentityESt8equal_toIS1_ESt4hashIS1_ENS_18_Mod_range_hashingENS_20_Default_ranged_hashENS_17_Hashtable_traitsILb1ELb1ELb1EEEE9_M_equalsERKS1_mRKNS_16_Hash_node_valueIS1_Lb1EEE
FNDA:2,_ZNKSt8__detail15_Hashtable_baseI4EdgeS1_NS_9_IdentityESt8equal_toIS1_ESt4hashIS1_ENS_18_Mod_range_hashingENS_20_Default_ranged_hashENS_17_Hashtable_traitsILb1ELb1ELb1EEEE9_M_equalsERKS1_mRKNS_16_Hash_node_valueIS1_Lb1EEE
FN:1611,_ZNKSt8__detail15_Hashtable_baseI6VertexS1_NS_9_IdentityESt8equal_toIS1_ESt4hashIS1_ENS_18_Mod_range_hashingENS_20_Default_ranged_hashENS_17_Hashtable_traitsILb1ELb1ELb1EEEE9_M_equalsERKS1_mRKNS_16_Hash_node_valueIS1_Lb1EEE
FNDA:0,_ZNKSt8__detail15_Hashtable_baseI6VertexS1_NS_9_IdentityESt8equal_toIS1_ESt4hashIS1_ENS_18_Mod_range_hashingENS_20_Default_ranged_hashENS_17_Hashtable_traitsILb1ELb1ELb1EEEE9_M_equalsERKS1_mRKNS_16_Hash_node_valueIS1_Lb1EEE
FN:1650,_ZNKSt8__detail15_Hashtable_baseI6VertexS1_NS_9_IdentityESt8equal_toIS1_ESt4hashIS1_ENS_18_Mod_range_hashingENS_20_Default_ranged_hashENS_17_Hashtable_traitsILb1ELb1ELb1EEEE5_M_eqEv
FNDA:0,_ZNKSt8__detail15_Hashtable_baseI6VertexS1_NS_9_IdentityESt8equal_toIS1_ESt4hashIS1_ENS_18_Mod_range_hashingENS_20_Default_ranged_hashENS_17_Hashtable_traitsILb1ELb1ELb1EEEE5_M_eqEv
FN:1650,_ZNKSt8__detail15_Hashtable_baseI4EdgeS1_NS_9_IdentityESt8equal_toIS1_ESt4hashIS1_ENS_18_Mod_range_hashingENS_20_Default_ranged_hashENS_17_Hashtable_traitsILb1ELb1ELb1EEEE5_M_eqEv
FNDA:2,_ZNKSt8__detail15_Hashtable_baseI4EdgeS1_NS_9_IdentityESt8equal_toIS1_ESt4hashIS1_ENS_18_Mod_range_hashingENS_20_Default_ranged_hashENS_17_Hashtable_traitsILb1ELb1ELb1EEEE5_M_eqEv
FN:1823,_ZNSt8__detail16_Hashtable_allocISaINS_10_Hash_nodeI4EdgeLb1EEEEEC2Ev
FNDA:7,_ZNSt8__detail16_Hashtable_allocISaINS_10_Hash_nodeI4EdgeLb1EEEEEC2Ev
FN:1833,_ZNSt8__detail16_Hashtable_allocISaINS_10_Hash_nodeI4EdgeLb1EEEEE17_M_node_allocatorEv
FNDA:68,_ZNSt8__detail16_Hashtable_allocISaINS_10_Hash_nodeI4EdgeLb1EEEEE17_M_node_allocatorEv
FN:1870,_ZNSt8__detail16_Hashtable_allocISaINS_10_Hash_nodeI4EdgeLb1EEEEE16_M_allocate_nodeIJRKS2_EEEPS3_DpOT_
FNDA:14,_ZNSt8__detail16_Hashtable_allocISaINS_10_Hash_nodeI4EdgeLb1EEEEE16_M_allocate_nodeIJRKS2_EEEPS3_DpOT_
FN:1892,_ZNSt8__detail16_Hashtable_allocISaINS_10_Hash_nodeI4EdgeLb1EEEEE18_M_deallocate_nodeEPS3_
FNDA:14,_ZNSt8__detail16_Hashtable_allocISaINS_10_Hash_nodeI4EdgeLb1EEEEE18_M_deallocate_nodeEPS3_
FN:1900,_ZNSt8__detail16_Hashtable_allocISaINS_10_Hash_nodeI4EdgeLb1EEEEE22_M_deallocate_node_ptrEPS3_
FNDA:14,_ZNSt8__detail16_Hashtable_allocISaINS_10_Hash_nodeI4EdgeLb1EEEEE22_M_deallocate_node_ptrEPS3_
FN:1910,_ZNSt8__detail16_Hashtable_allocISaINS_10_Hash_nodeI4EdgeLb1EEEEE19_M_deallocate_nodesEPS3_
FNDA:7,_ZNSt8__detail16_Hashtable_allocISaINS_10_Hash_nodeI4EdgeLb1EEEEE19_M_deallocate_nodesEPS3_
FN:1922,_ZNSt8__detail16_Hashtable_allocISaINS_10_Hash_nodeI4EdgeLb1EEEEE19_M_allocate_bucketsEm
FNDA:6,_ZNSt8__detail16_Hashtable_allocISaINS_10_Hash_nodeI4EdgeLb1EEEEE19_M_allocate_bucketsEm
FN:1935,_ZNSt8__detail16_Hashtable_allocISaINS_10_Hash_nodeI4EdgeLb1EEEEE21_M_deallocate_bucketsEPPNS_15_Hash_node_baseEm
FNDA:6,_ZNSt8__detail16_Hashtable_allocISaINS_10_Hash_nodeI4EdgeLb1EEEEE21_M_deallocate_bucketsEPPNS_15_Hash_node_baseEm
DA:85,0
DA:86,0
DA:85,16
DA:86,16
DA:162,14
DA:163,14
DA:167,14
DA:168,14
DA:219,41
DA:237,81
DA:238,81
DA:237,49
DA:238,49
DA:241,2
DA:242,2
DA:241,0
DA:242,0
DA:245,41
DA:246,41
DA:245,21
DA:246,21
DA:249,2
DA:250,2
DA:249,0
DA:250,0
DA:282,65
DA:283,65
DA:282,39
DA:283,39
DA:295,54
DA:296,54
DA:295,19
DA:296,19
DA:299,41
DA:300,41
DA:299,14
DA:300,14
DA:309,58
DA:311,58
DA:309,20
DA:311,20
DA:338,28
DA:339,28
DA:338,19
DA:339,19
DA:342,14
DA:343,14
DA:350,14
DA:352,14
DA:353,14
DA:385,26
DA:386,26
DA:393,29
DA:394,29
DA:401,29
DA:403,29
DA:404,29
DA:428,53
DA:430,53
DA:446,10
DA:447,10
DA:473,21
DA:474,21
DA:481,0
DA:482,0
DA:815,14
DA:816,14
DA:840,14
DA:842,14
DA:843,14
DA:844,28
DA:1127,7
DA:1127,7
DA:1127,7
DA:1134,2
DA:1134,0
DA:1134,18
DA:1134,7
DA:1135,68
DA:1210,7
DA:1215,18
DA:1219,18
DA:1215,7
DA:1219,7
DA:1232,24
DA:1233,24
DA:1232,10
DA:1233,10
DA:1247,8
DA:1251,8
DA:1247,11
DA:1251,11
DA:1263,14
DA:1264,14
DA:1276,18
DA:1276,7
DA:1595,2
DA:1596,2
DA:1595,0
DA:1596,0
DA:1604,7
DA:1611,2
DA:1617,2
DA:1611,0
DA:1617,0
DA:1650,2
DA:1650,0
DA:1823,7
DA:1833,68
DA:1834,68
DA:1870,14
DA:1873,14
DA:1874,14
DA:1877,14
DA:1878,14
DA:1881,14
DA:1883,0
DA:1885,0
DA:1886,0
DA:1892,14
DA:1894,14
DA:1895,14
DA:1896,14
DA:1900,14
DA:1903,14
DA:1904,14
DA:1905,14
DA:1906,14
DA:1910,7
DA:1912,19
DA:1914,12
DA:1915,12
DA:1916,12
DA:1918,7
DA:1922,6
DA:1925,6
DA:1927,6
DA:1928,6
DA:1929,6
DA:1930,6
DA:1931,6
DA:1935,6
DA:1940,6
DA:1941,6
DA:1942,6
DA:1943,6
end_of_record
SF:/usr/include/c++/11/bits/allocator.h
FN:156,_ZNSaI4EdgeEC2Ev
FNDA:41,_ZNSaI4EdgeEC2Ev
FN:156,_ZNSaIbEC2Ev
FNDA:6,_ZNSaIbEC2Ev
FN:156,_ZNSaImEC2Ev
FNDA:22,_ZNSaImEC2Ev
FN:156,_ZNSaISt6vectorImSaImEEEC2Ev
FNDA:43,_ZNSaISt6vectorImSaImEEEC2Ev
FN:156,_ZNSaISt13_Rb_tree_nodeISt4pairIKi6VertexEEEC2Ev
FNDA:7,_ZNSaISt13_Rb_tree_nodeISt4pairIKi6VertexEEEC2Ev
FN:156,_ZNSaINSt8__detail10_Hash_nodeI4EdgeLb1EEEEC2Ev
FNDA:7,_ZNSaINSt8__detail10_Hash_nodeI4EdgeLb1EEEEC2Ev
FN:156,_ZNSaIiEC2Ev
FNDA:16,_ZNSaIiEC2Ev
FN:156,_ZNSaISt13_Rb_tree_nodeISt4pairIKmmEEEC2Ev
FNDA:38,_ZNSaISt13_Rb_tree_nodeISt4pairIKmmEEEC2Ev
FN:159,_ZNSaISt13_Rb_tree_nodeISt4pairIKmmEEEC2ERKS4_
FNDA:0,_ZNSaISt13_Rb_tree_nodeISt4pairIKmmEEEC2ERKS4_
FN:159,_ZNSaI4EdgeEC2ERKS0_
FNDA:0,_ZNSaI4EdgeEC2ERKS0_
FN:159,_ZNSaISt6vectorImSaImEEEC2ERKS2_
FNDA:138,_ZNSaISt6vectorImSaImEEEC2ERKS2_
FN:159,_ZNSaImEC2ERKS_
FNDA:310,_ZNSaImEC2ERKS_
FN:169,_ZNSaImEC2IbEERKSaIT_E
FNDA:6,_ZNSaImEC2IbEERKSaIT_E
FN:169,_ZNSaIPmEC2ImEERKSaIT_E
FNDA:10,_ZNSaIPmEC2ImEERKSaIT_E
FN:169,_ZNSaIPNSt8__detail15_Hash_node_baseEEC2INS_10_Hash_nodeI4EdgeLb1EEEEERKSaIT_E
FNDA:12,_ZNSaIPNSt8__detail15_Hash_node_baseEEC2INS_10_Hash_nodeI4EdgeLb1EEEEERKSaIT_E
FN:174,_ZNSaIPmED2Ev
FNDA:10,_ZNSaIPmED2Ev
FN:174,_ZNSaISt13_Rb_tree_nodeISt4pairIKmmEEED2Ev
FNDA:0,_ZNSaISt13_Rb_tree_nodeISt4pairIKmmEEED2Ev
FN:174,_ZNSaI4EdgeED2Ev
FNDA:0,_ZNSaI4EdgeED2Ev
FN:174,_ZNSaIiED2Ev
FNDA:22,_ZNSaIiED2Ev
FN:174,_ZNSaImED2Ev
FNDA:338,_ZNSaImED2Ev
FN:174,_ZNSaIPNSt8__detail15_Hash_node_baseEED2Ev
FNDA:24,_ZNSaIPNSt8__detail15_Hash_node_baseEED2Ev
FN:174,_ZNSaISt6vectorImSaImEEED2Ev
FNDA:181,_ZNSaISt6vectorImSaImEEED2Ev
FN:174,_ZNSaINSt8__detail10_Hash_nodeI4EdgeLb1EEEED2Ev
FNDA:7,_ZNSaINSt8__detail10_Hash_nodeI4EdgeLb1EEEED2Ev
FN:174,_ZNSaISt13_Rb_tree_nodeISt4pairIKi6VertexEEED2Ev
FNDA:7,_ZNSaISt13_Rb_tree_nodeISt4pairIKi6VertexEEED2Ev
FN:174,_ZNSaIbED2Ev
FNDA:6,_ZNSaIbED2Ev
DA:156,38
DA:156,41
DA:156,16
DA:156,7
DA:156,7
DA:156,43
DA:156,22
DA:156,6
DA:159,0
DA:160,0
DA:159,310
DA:160,310
DA:159,0
DA:160,0
DA:159,138
DA:160,138
DA:169,12
DA:169,10
DA:169,6
DA:174,24
DA:174,10
DA:174,0
DA:174,0
DA:174,22
DA:174,338
DA:174,181
DA:174,7
DA:174,7
DA:174,6
end_of_record
SF:/usr/include/c++/11/ext/string_conversions.h
FN:99,_ZN9__gnu_cxx12__to_xstringINSt7__cxx1112basic_stringIcSt11char_traitsIcESaIcEEEcEET_PFiPT0_mPKS8_P13__va_list_tagEmSB_z
FNDA:4,_ZN9__gnu_cxx12__to_xstringINSt7__cxx1112basic_stringIcSt11char_traitsIcESaIcEEEcEET_PFiPT0_mPKS8_P13__va_list_tagEmSB_z
DA:99,4
DA:105,4
DA:109,4
DA:111,4
DA:113,4
DA:115,4
end_of_record
SF:/usr/include/c++/11/bits/basic_string.h
FN:251,_ZNSt7__cxx1112basic_stringIcSt11char_traitsIcESaIcEE16_M_construct_auxIPcEEvT_S7_St12__false_type
FNDA:4,_ZNSt7__cxx1112basic_stringIcSt11char_traitsIcESaIcEE16_M_construct_auxIPcEEvT_S7_St12__false_type
FN:271,_ZNSt7__cxx1112basic_stringIcSt11char_traitsIcESaIcEE12_M_constructIPcEEvT_S7_
FNDA:4,_ZNSt7__cxx1112basic_stringIcSt11char_traitsIcESaIcEE12_M_constructIPcEEvT_S7_
FN:533,_ZNSt7__cxx1112basic_stringIcSt11char_traitsIcESaIcEEC2IS3_EEPKcRKS3_
FNDA:52,_ZNSt7__cxx1112basic_stringIcSt11char_traitsIcESaIcEEC2IS3_EEPKcRKS3_
FN:553,_ZNSt7__cxx1112basic_stringIcSt11char_traitsIcESaIcEEC2IS3_EEmcRKS3_
FNDA:123,_ZNSt7__cxx1112basic_stringIcSt11char_traitsIcESaIcEEC2IS3_EEmcRKS3_
FN:638,_ZNSt7__cxx1112basic_stringIcSt11char_traitsIcESaIcEEC2IPcvEET_S7_RKS3_
FNDA:4,_ZNSt7__cxx1112basic_stringIcSt11char_traitsIcESaIcEEC2IPcvEET_S7_RKS3_
FN:6132,_ZStplIcSt11char_traitsIcESaIcEENSt7__cxx1112basic_stringIT_T0_T1_EERKS8_PKS5_
FNDA:12,_ZStplIcSt11char_traitsIcESaIcEENSt7__cxx1112basic_stringIT_T0_T1_EERKS8_PKS5_
FN:6172,_ZStplIcSt11char_traitsIcESaIcEENSt7__cxx1112basic_stringIT_T0_T1_EEOS8_S9_
FNDA:49,_ZStplIcSt11char_traitsIcESaIcEENSt7__cxx1112basic_stringIT_T0_T1_EEOS8_S9_
FN:6194,_ZStplIcSt11char_traitsIcESaIcEENSt7__cxx1112basic_stringIT_T0_T1_EEPKS5_OS8_
FNDA:58,_ZStplIcSt11char_traitsIcESaIcEENSt7__cxx1112basic_stringIT_T0_T1_EEPKS5_OS8_
FN:6206,_ZStplIcSt11char_traitsIcESaIcEENSt7__cxx1112basic_stringIT_T0_T1_EEOS8_PKS5_
FNDA:142,_ZStplIcSt11char_traitsIcESaIcEENSt7__cxx1112basic_stringIT_T0_T1_EEOS8_PKS5_
FN:6660,_ZNSt7__cxx119to_stringEi
FNDA:60,_ZNSt7__cxx119to_stringEi
FN:6690,_ZNSt7__cxx119to_stringEm
FNDA:63,_ZNSt7__cxx119to_stringEm
FN:6730,_ZNSt7__cxx119to_stringEd
FNDA:4,_ZNSt7__cxx119to_stringEd
DA:251,4
DA:255,4
DA:256,4
DA:271,4
DA:274,4
DA:275,4
DA:533,52
DA:534,52
DA:536,52
DA:539,52
DA:540,52
DA:553,123
DA:554,123
DA:555,123
DA:638,4
DA:640,4
DA:641,4
DA:6132,12
DA:6135,12
DA:6136,12
DA:6137,12
DA:6138,0
DA:6172,49
DA:6177,49
DA:6179,49
DA:6182,49
DA:6185,49
DA:6186,49
DA:6187,0
DA:6189,49
DA:6194,58
DA:6196,58
DA:6206,142
DA:6208,142
DA:6660,60
DA:6662,60
DA:6663,60
DA:6664,60
DA:6665,60
DA:6666,60
DA:6667,60
DA:6668,0
DA:6690,63
DA:6692,63
DA:6693,63
DA:6694,63
DA:6695,0
DA:6730,4
DA:6732,4
DA:6735,4
end_of_record
SF:/usr/include/c++/11/bits/stl_deque.h
FN:96,_ZSt16__deque_buf_sizem
FNDA:36,_ZSt16__deque_buf_sizem
FN:131,_ZNSt15_Deque_iteratorImRmPmE14_S_buffer_sizeEv
FNDA:10,_ZNSt15_Deque_iteratorImRmPmE14_S_buffer_sizeEv
FN:151,_ZNSt15_Deque_iteratorImRmPmEC2Ev
FNDA:10,_ZNSt15_Deque_iteratorImRmPmEC2Ev
FN:168,_ZNSt15_Deque_iteratorImRmPmEC2ERKS2_
FNDA:29,_ZNSt15_Deque_iteratorImRmPmEC2ERKS2_
FN:180,_ZNKSt15_Deque_iteratorImRmPmEdeEv
FNDA:19,_ZNKSt15_Deque_iteratorImRmPmEdeEv
FN:208,_ZNSt15_Deque_iteratorImRmPmEmmEv
FNDA:5,_ZNSt15_Deque_iteratorImRmPmEmmEv
FN:260,_ZNSt15_Deque_iteratorImRmPmE11_M_set_nodeEPS1_
FNDA:10,_ZNSt15_Deque_iteratorImRmPmE11_M_set_nodeEPS1_
FN:268,_ZSteqRKSt15_Deque_iteratorImRmPmES4_
FNDA:19,_ZSteqRKSt15_Deque_iteratorImRmPmES4_
FN:353,_ZStmiRKSt15_Deque_iteratorImRmPmES4_
FNDA:0,_ZStmiRKSt15_Deque_iteratorImRmPmES4_
FN:437,_ZNSt11_Deque_baseImSaImEEC2Ev
FNDA:5,_ZNSt11_Deque_baseImSaImEEC2Ev
FN:495,_ZNSt11_Deque_baseImSaImEE16_Deque_impl_dataC2Ev
FNDA:5,_ZNSt11_Deque_baseImSaImEE16_Deque_impl_dataC2Ev
FN:524,_ZNSt11_Deque_baseImSaImEE11_Deque_implC2Ev
FNDA:5,_ZNSt11_Deque_baseImSaImEE11_Deque_implC2Ev
FN:547,_ZNSt11_Deque_baseImSaImEE19_M_get_Tp_allocatorEv
FNDA:19,_ZNSt11_Deque_baseImSaImEE19_M_get_Tp_allocatorEv
FN:551,_ZNKSt11_Deque_baseImSaImEE19_M_get_Tp_allocatorEv
FNDA:10,_ZNKSt11_Deque_baseImSaImEE19_M_get_Tp_allocatorEv
FN:555,_ZNKSt11_Deque_baseImSaImEE20_M_get_map_allocatorEv
FNDA:10,_ZNKSt11_Deque_baseImSaImEE20_M_get_map_allocatorEv
FN:559,_ZNSt11_Deque_baseImSaImEE16_M_allocate_nodeEv
FNDA:5,_ZNSt11_Deque_baseImSaImEE16_M_allocate_nodeEv
FN:566,_ZNSt11_Deque_baseImSaImEE18_M_deallocate_nodeEPm
FNDA:5,_ZNSt11_Deque_baseImSaImEE18_M_deallocate_nodeEPm
FN:573,_ZNSt11_Deque_baseImSaImEE15_M_allocate_mapEm
FNDA:5,_ZNSt11_Deque_baseImSaImEE15_M_allocate_mapEm
FN:580,_ZNSt11_Deque_baseImSaImEE17_M_deallocate_mapEPPmm
FNDA:5,_ZNSt11_Deque_baseImSaImEE17_M_deallocate_mapEPPmm
FN:596,_ZNSt11_Deque_baseImSaImEED2Ev
FNDA:5,_ZNSt11_Deque_baseImSaImEED2Ev
FN:617,_ZNSt11_Deque_baseImSaImEE17_M_initialize_mapEm
FNDA:5,_ZNSt11_Deque_baseImSaImEE17_M_initialize_mapEm
FN:656,_ZNSt11_Deque_baseImSaImEE15_M_create_nodesEPPmS3_
FNDA:5,_ZNSt11_Deque_baseImSaImEE15_M_create_nodesEPPmS3_
FN:674,_ZNSt11_Deque_baseImSaImEE16_M_destroy_nodesEPPmS3_
FNDA:5,_ZNSt11_Deque_baseImSaImEE16_M_destroy_nodesEPPmS3_
FN:834,_ZNSt5dequeImSaImEEC2Ev
FNDA:5,_ZNSt5dequeImSaImEEC2Ev
FN:1006,_ZNSt5dequeImSaImEED2Ev
FNDA:5,_ZNSt5dequeImSaImEED2Ev
FN:1128,_ZNSt5dequeImSaImEE5beginEv
FNDA:19,_ZNSt5dequeImSaImEE5beginEv
FN:1145,_ZNSt5dequeImSaImEE3endEv
FNDA:10,_ZNSt5dequeImSaImEE3endEv
FN:1233,_ZNKSt5dequeImSaImEE4sizeEv
FNDA:0,_ZNKSt5dequeImSaImEE4sizeEv
FN:1238,_ZNKSt5dequeImSaImEE8max_sizeEv
FNDA:0,_ZNKSt5dequeImSaImEE8max_sizeEv
FN:1311,_ZNKSt5dequeImSaImEE5emptyEv
FNDA:19,_ZNKSt5dequeImSaImEE5emptyEv
FN:1405,_ZNSt5dequeImSaImEE5frontEv
FNDA:14,_ZNSt5dequeImSaImEE5frontEv
FN:1427,_ZNSt5dequeImSaImEE4backEv
FNDA:5,_ZNSt5dequeImSaImEE4backEv
FN:1496,_ZNSt5dequeImSaImEE9push_backERKm
FNDA:9,_ZNSt5dequeImSaImEE9push_backERKm
FN:1511,_ZNSt5dequeImSaImEE9push_backEOm
FNDA:5,_ZNSt5dequeImSaImEE9push_backEOm
FN:1532,_ZNSt5dequeImSaImEE9pop_frontEv
FNDA:14,_ZNSt5dequeImSaImEE9pop_frontEv
FN:1834,_ZNSt5dequeImSaImEE11_S_max_sizeERKS0_
FNDA:0,_ZNSt5dequeImSaImEE11_S_max_sizeERKS0_
FN:2045,_ZNSt5dequeImSaImEE15_M_destroy_dataESt15_Deque_iteratorImRmPmES5_RKS0_
FNDA:5,_ZNSt5dequeImSaImEE15_M_destroy_dataESt15_Deque_iteratorImRmPmES5_RKS0_
FN:2126,_ZNSt5dequeImSaImEE22_M_reserve_map_at_backEm
FNDA:0,_ZNSt5dequeImSaImEE22_M_reserve_map_at_backEm
DA:96,36
DA:98,36
DA:131,10
DA:132,10
DA:151,10
DA:152,10
DA:168,29
DA:169,29
DA:170,29
DA:180,19
DA:181,19
DA:208,5
DA:210,5
DA:212,0
DA:213,0
DA:215,5
DA:216,5
DA:260,10
DA:262,10
DA:263,10
DA:264,10
DA:265,10
DA:268,19
DA:269,19
DA:353,0
DA:355,0
DA:356,0
DA:357,0
DA:358,0
DA:437,5
DA:438,5
DA:439,5
DA:495,5
DA:496,5
DA:497,5
DA:524,5
DA:526,5
DA:527,5
DA:547,19
DA:548,19
DA:551,10
DA:552,10
DA:555,10
DA:556,10
DA:559,5
DA:562,5
DA:566,5
DA:569,5
DA:570,5
DA:573,5
DA:575,5
DA:576,10
DA:577,5
DA:580,5
DA:582,5
DA:583,5
DA:584,5
DA:596,5
DA:599,5
DA:601,5
DA:602,5
DA:603,5
DA:605,5
DA:617,5
DA:620,5
DA:623,10
DA:624,5
DA:625,5
DA:632,5
DA:633,5
DA:634,5
DA:637,5
DA:638,0
DA:640,0
DA:641,0
DA:642,0
DA:643,0
DA:646,5
DA:647,5
DA:648,5
DA:649,10
DA:650,5
DA:651,5
DA:652,5
DA:656,5
DA:662,10
DA:663,5
DA:665,0
DA:667,0
DA:668,0
DA:670,5
DA:674,5
DA:678,10
DA:679,5
DA:680,5
DA:834,5
DA:1006,5
DA:1007,5
DA:1128,19
DA:1129,19
DA:1145,10
DA:1146,10
DA:1233,0
DA:1234,0
DA:1238,0
DA:1239,0
DA:1311,19
DA:1312,19
DA:1405,14
DA:1408,14
DA:1427,5
DA:1430,5
DA:1431,5
DA:1432,5
DA:1496,9
DA:1498,9
DA:1499,9
DA:1501,9
DA:1503,9
DA:1506,0
DA:1507,9
DA:1511,5
DA:1512,5
DA:1532,14
DA:1535,14
DA:1536,14
DA:1538,14
DA:1540,14
DA:1543,0
DA:1544,14
DA:1834,0
DA:1836,0
DA:1837,0
DA:1838,0
DA:2045,5
DA:2050,5
DA:2126,0
DA:2128,0
DA:2129,0
DA:2130,0
DA:2131,0
end_of_record
SF:/usr/include/c++/11/bits/stl_bvector.h
FN:77,_ZNSt14_Bit_referenceC2EPmm
FNDA:63,_ZNSt14_Bit_referenceC2EPmm
FN:86,_ZNKSt14_Bit_referencecvbEv
FNDA:46,_ZNKSt14_Bit_referencecvbEv
FN:90,_ZNSt14_Bit_referenceaSEb
FNDA:17,_ZNSt14_Bit_referenceaSEb
FN:148,_ZNSt18_Bit_iterator_baseC2EPmj
FNDA:93,_ZNSt18_Bit_iterator_baseC2EPmj
FN:172,_ZNSt18_Bit_iterator_base7_M_incrEl
FNDA:69,_ZNSt18_Bit_iterator_base7_M_incrEl
FN:241,_ZNSt13_Bit_iteratorC2Ev
FNDA:24,_ZNSt13_Bit_iteratorC2Ev
FN:243,_ZNSt13_Bit_iteratorC2EPmj
FNDA:69,_ZNSt13_Bit_iteratorC2EPmj
FN:251,_ZNKSt13_Bit_iteratordeEv
FNDA:63,_ZNKSt13_Bit_iteratordeEv
FN:285,_ZNSt13_Bit_iteratorpLEl
FNDA:69,_ZNSt13_Bit_iteratorpLEl
FN:299,_ZNKSt13_Bit_iteratorixEl
FNDA:63,_ZNKSt13_Bit_iteratorixEl
FN:303,_ZStplRKSt13_Bit_iteratorl
FNDA:69,_ZStplRKSt13_Bit_iteratorl
FN:443,_ZNSt13_Bvector_baseISaIbEE18_Bvector_impl_dataC2Ev
FNDA:12,_ZNSt13_Bvector_baseISaIbEE18_Bvector_impl_dataC2Ev
FN:465,_ZNSt13_Bvector_baseISaIbEE18_Bvector_impl_data8_M_resetEv
FNDA:6,_ZNSt13_Bvector_baseISaIbEE18_Bvector_impl_data8_M_resetEv
FN:485,_ZNSt13_Bvector_baseISaIbEE13_Bvector_implC2ERKSaImE
FNDA:6,_ZNSt13_Bvector_baseISaIbEE13_Bvector_implC2ERKSaImE
FN:502,_ZNKSt13_Bvector_baseISaIbEE13_Bvector_impl11_M_end_addrEv
FNDA:12,_ZNKSt13_Bvector_baseISaIbEE13_Bvector_impl11_M_end_addrEv
FN:531,_ZNSt13_Bvector_baseISaIbEEC2ERKS0_
FNDA:6,_ZNSt13_Bvector_baseISaIbEEC2ERKS0_
FN:542,_ZNSt13_Bvector_baseISaIbEED2Ev
FNDA:6,_ZNSt13_Bvector_baseISaIbEED2Ev
FN:549,_ZNSt13_Bvector_baseISaIbEE11_M_allocateEm
FNDA:6,_ZNSt13_Bvector_baseISaIbEE11_M_allocateEm
FN:553,_ZNSt13_Bvector_baseISaIbEE13_M_deallocateEv
FNDA:6,_ZNSt13_Bvector_baseISaIbEE13_M_deallocateEv
FN:572,_ZNSt13_Bvector_baseISaIbEE8_S_nwordEm
FNDA:12,_ZNSt13_Bvector_baseISaIbEE8_S_nwordEm
FN:647,_ZNSt6vectorIbSaIbEEC2EmRKbRKS0_
FNDA:6,_ZNSt6vectorIbSaIbEEC2EmRKbRKS0_
FN:733,_ZNSt6vectorIbSaIbEED2Ev
FNDA:6,_ZNSt6vectorIbSaIbEED2Ev
FN:831,_ZNSt6vectorIbSaIbEE5beginEv
FNDA:63,_ZNSt6vectorIbSaIbEE5beginEv
FN:906,_ZNSt6vectorIbSaIbEEixEm
FNDA:63,_ZNSt6vectorIbSaIbEEixEm
FN:1137,_ZNSt6vectorIbSaIbEE13_M_initializeEm
FNDA:6,_ZNSt6vectorIbSaIbEE13_M_initializeEm
FN:1150,_ZNSt6vectorIbSaIbEE19_M_initialize_valueEb
FNDA:6,_ZNSt6vectorIbSaIbEE19_M_initialize_valueEb
DA:77,63
DA:78,63
DA:86,46
DA:87,46
DA:90,17
DA:92,17
DA:93,17
DA:95,0
DA:96,17
DA:148,93
DA:149,93
DA:172,69
DA:174,69
DA:175,69
DA:176,69
DA:177,69
DA:179,0
DA:180,0
DA:182,69
DA:183,69
DA:241,24
DA:243,69
DA:244,69
DA:251,63
DA:252,63
DA:285,69
DA:287,69
DA:288,69
DA:299,63
DA:300,63
DA:303,69
DA:305,69
DA:306,69
DA:307,69
DA:443,12
DA:444,12
DA:445,12
DA:465,6
DA:466,6
DA:485,6
DA:486,6
DA:487,6
DA:502,12
DA:504,12
DA:505,12
DA:506,0
DA:531,6
DA:532,6
DA:542,6
DA:543,6
DA:549,6
DA:550,6
DA:553,6
DA:555,6
DA:557,6
DA:558,6
DA:559,6
DA:561,6
DA:563,6
DA:572,12
DA:573,12
DA:647,6
DA:654,6
DA:656,6
DA:657,6
DA:658,6
DA:733,6
DA:831,63
DA:832,63
DA:906,63
DA:907,63
DA:1137,6
DA:1139,6
DA:1141,6
DA:1142,6
DA:1143,6
DA:1144,6
DA:1145,6
DA:1147,6
DA:1150,6
DA:1152,6
DA:1153,6
DA:1154,6
DA:1156,6
end_of_record
SF:/usr/include/c++/11/new
FN:174,_ZnwmPv
FNDA:0,_ZnwmPv
FN:180,_ZdlPvS_
FNDA:0,_ZdlPvS_
DA:174,0
DA:175,0
DA:180,0
end_of_record
SF:/usr/include/c++/11/bits/stl_construct.h
FN:109,_ZSt10_ConstructISt6vectorImSaImEEJRKS2_EEvPT_DpOT0_
FNDA:135,_ZSt10_ConstructISt6vectorImSaImEEJRKS2_EEvPT_DpOT0_
FN:109,_ZSt10_ConstructI4EdgeJRKS0_EEvPT_DpOT0_
FNDA:0,_ZSt10_ConstructI4EdgeJRKS0_EEvPT_DpOT0_
FN:146,_ZSt8_DestroyI4EdgeEvPT_
FNDA:0,_ZSt8_DestroyI4EdgeEvPT_
FN:146,_ZSt8_DestroyISt6vectorImSaImEEEvPT_
FNDA:135,_ZSt8_DestroyISt6vectorImSaImEEEvPT_
FN:160,_ZNSt12_Destroy_auxILb0EE9__destroyIP4EdgeEEvT_S4_
FNDA:0,_ZNSt12_Destroy_auxILb0EE9__destroyIP4EdgeEEvT_S4_
FN:160,_ZNSt12_Destroy_auxILb0EE9__destroyIPSt6vectorImSaImEEEEvT_S6_
FNDA:99,_ZNSt12_Destroy_auxILb0EE9__destroyIPSt6vectorImSaImEEEEvT_S6_
FN:172,_ZNSt12_Destroy_auxILb1EE9__destroyIPiEEvT_S3_
FNDA:16,_ZNSt12_Destroy_auxILb1EE9__destroyIPiEEvT_S3_
FN:172,_ZNSt12_Destroy_auxILb1EE9__destroyIPmEEvT_S3_
FNDA:152,_ZNSt12_Destroy_auxILb1EE9__destroyIPmEEvT_S3_
FN:182,_ZSt8_DestroyIPiEvT_S1_
FNDA:16,_ZSt8_DestroyIPiEvT_S1_
FN:182,_ZSt8_DestroyIPmEvT_S1_
FNDA:152,_ZSt8_DestroyIPmEvT_S1_
FN:182,_ZSt8_DestroyIP4EdgeEvT_S2_
FNDA:0,_ZSt8_DestroyIP4EdgeEvT_S2_
FN:182,_ZSt8_DestroyIPSt6vectorImSaImEEEvT_S4_
FNDA:99,_ZSt8_DestroyIPSt6vectorImSaImEEEvT_S4_
DA:109,135
DA:119,135
DA:120,135
DA:109,0
DA:119,0
DA:120,0
DA:146,0
DA:151,0
DA:153,0
DA:146,135
DA:151,135
DA:153,135
DA:160,0
DA:162,0
DA:163,0
DA:164,0
DA:160,99
DA:162,234
DA:163,135
DA:164,99
DA:172,16
DA:172,152
DA:182,16
DA:196,16
DA:197,16
DA:182,152
DA:196,152
DA:197,152
DA:182,0
DA:196,0
DA:197,0
DA:182,99
DA:196,99
DA:197,99
end_of_record
SF:/usr/include/c++/11/ext/type_traits.h
FN:152,_ZN9__gnu_cxx17__is_null_pointerIcEEbPT_
FNDA:245,_ZN9__gnu_cxx17__is_null_pointerIcEEbPT_
FN:152,_ZN9__gnu_cxx17__is_null_pointerIKcEEbPT_
FNDA:52,_ZN9__gnu_cxx17__is_null_pointerIKcEEbPT_
DA:152,245
DA:153,245
DA:152,52
DA:153,52
end_of_record
SF:/usr/include/c++/11/bits/stl_function.h
FN:369,_ZNKSt8equal_toI4EdgeEclERKS0_S3_
FNDA:2,_ZNKSt8equal_toI4EdgeEclERKS0_S3_
FN:369,_ZNKSt8equal_toI6VertexEclERKS0_S3_
FNDA:0,_ZNKSt8equal_toI6VertexEclERKS0_S3_
FN:399,_ZNKSt4lessImEclERKmS2_
FNDA:43,_ZNKSt4lessImEclERKmS2_
FN:399,_ZNKSt4lessIiEclERKiS2_
FNDA:488,_ZNKSt4lessIiEclERKiS2_
FN:1174,_ZNKSt10_Select1stISt4pairIKmmEEclERKS2_
FNDA:76,_ZNKSt10_Select1stISt4pairIKmmEEclERKS2_
FN:1174,_ZNKSt10_Select1stISt4pairIKi6VertexEEclERKS3_
FNDA:321,_ZNKSt10_Select1stISt4pairIKi6VertexEEclERKS3_
DA:369,2
DA:370,2
DA:369,0
DA:370,0
DA:399,43
DA:400,43
DA:399,488
DA:400,488
DA:1174,76
DA:1175,76
DA:1174,321
DA:1175,321
end_of_record
SF:/home/imri/OS-FinalProject/GraphObj/edge.hpp
FN:67,_ZNKSt4hashI4EdgeEclERKS0_
FNDA:18,_ZNKSt4hashI4EdgeEclERKS0_
DA:67,18
DA:69,18
DA:70,18
DA:71,18
end_of_record
SF:/usr/include/c++/11/bits/stl_queue.h
FN:166,_ZNSt5queueImSt5dequeImSaImEEEC2IS2_vEEv
FNDA:5,_ZNSt5queueImSt5dequeImSaImEEEC2IS2_vEEv
FN:203,_ZNKSt5queueImSt5dequeImSaImEEE5emptyEv
FNDA:19,_ZNKSt5queueImSt5dequeImSaImEEE5emptyEv
FN:216,_ZNSt5queueImSt5dequeImSaImEEE5frontEv
FNDA:14,_ZNSt5queueImSt5dequeImSaImEEE5frontEv
FN:265,_ZNSt5queueImSt5dequeImSaImEEE4pushERKm
FNDA:9,_ZNSt5queueImSt5dequeImSaImEEE4pushERKm
FN:270,_ZNSt5queueImSt5dequeImSaImEEE4pushEOm
FNDA:5,_ZNSt5queueImSt5dequeImSaImEEE4pushEOm
FN:298,_ZNSt5queueImSt5dequeImSaImEEE3popEv
FNDA:14,_ZNSt5queueImSt5dequeImSaImEEE3popEv
DA:166,5
DA:167,5
DA:203,19
DA:204,19
DA:216,14
DA:219,14
DA:265,9
DA:266,9
DA:270,5
DA:271,5
DA:298,14
DA:301,14
DA:302,14
end_of_record
SF:/usr/include/c++/11/bits/stl_iterator_base_funcs.h
FN:98,_ZSt10__distanceIPcENSt15iterator_traitsIT_E15difference_typeES2_S2_St26random_access_iterator_tag
FNDA:245,_ZSt10__distanceIPcENSt15iterator_traitsIT_E15difference_typeES2_S2_St26random_access_iterator_tag
FN:98,_ZSt10__distanceIPKcENSt15iterator_traitsIT_E15difference_typeES3_S3_St26random_access_iterator_tag
FNDA:52,_ZSt10__distanceIPKcENSt15iterator_traitsIT_E15difference_typeES3_S3_St26random_access_iterator_tag
FN:138,_ZSt8distanceIPcENSt15iterator_traitsIT_E15difference_typeES2_S2_
FNDA:245,_ZSt8distanceIPcENSt15iterator_traitsIT_E15difference_typeES2_S2_
FN:138,_ZSt8distanceIPKcENSt15iterator_traitsIT_E15difference_typeES3_S3_
FNDA:52,_ZSt8distanceIPKcENSt15iterator_traitsIT_E15difference_typeES3_S3_
DA:98,245
DA:104,245
DA:98,52
DA:104,52
DA:138,245
DA:141,245
DA:142,490
DA:138,52
DA:141,52
DA:142,104
end_of_record
SF:/usr/include/c++/11/bits/stl_iterator_base_types.h
FN:238,_ZSt19__iterator_categoryIPmENSt15iterator_traitsIT_E17iterator_categoryERKS2_
FNDA:17,_ZSt19__iterator_categoryIPmENSt15iterator_traitsIT_E17iterator_categoryERKS2_
FN:238,_ZSt19__iterator_categoryIPcENSt15iterator_traitsIT_E17iterator_categoryERKS2_
FNDA:245,_ZSt19__iterator_categoryIPcENSt15iterator_traitsIT_E17iterator_categoryERKS2_
FN:238,_ZSt19__iterator_categoryIPKcENSt15iterator_traitsIT_E17iterator_categoryERKS3_
FNDA:52,_ZSt19__iterator_categoryIPKcENSt15iterator_traitsIT_E17iterator_categoryERKS3_
DA:238,17
DA:239,17
DA:238,245
DA:239,245
DA:238,52
DA:239,52
end_of_record
SF:/usr/include/c++/11/ext/aligned_buffer.h
FN:64,_ZN9__gnu_cxx16__aligned_membufISt4pairIKmmEE7_M_addrEv
FNDA:0,_ZN9__gnu_cxx16__aligned_membufISt4pairIKmmEE7_M_addrEv
FN:64,_ZN9__gnu_cxx16__aligned_membufISt4pairIKi6VertexEE7_M_addrEv
FNDA:332,_ZN9__gnu_cxx16__aligned_membufISt4pairIKi6VertexEE7_M_addrEv
FN:68,_ZNK9__gnu_cxx16__aligned_membufISt4pairIKmmEE7_M_addrEv
FNDA:76,_ZNK9__gnu_cxx16__aligned_membufISt4pairIKmmEE7_M_addrEv
FN:68,_ZNK9__gnu_cxx16__aligned_membufISt4pairIKi6VertexEE7_M_addrEv
FNDA:333,_ZNK9__gnu_cxx16__aligned_membufISt4pairIKi6VertexEE7_M_addrEv
FN:72,_ZN9__gnu_cxx16__aligned_membufISt4pairIKmmEE6_M_ptrEv
FNDA:0,_ZN9__gnu_cxx16__aligned_membufISt4pairIKmmEE6_M_ptrEv
FN:72,_ZN9__gnu_cxx16__aligned_membufISt4pairIKi6VertexEE6_M_ptrEv
FNDA:332,_ZN9__gnu_cxx16__aligned_membufISt4pairIKi6VertexEE6_M_ptrEv
FN:76,_ZNK9__gnu_cxx16__aligned_membufISt4pairIKmmEE6_M_ptrEv
FNDA:76,_ZNK9__gnu_cxx16__aligned_membufISt4pairIKmmEE6_M_ptrEv
FN:76,_ZNK9__gnu_cxx16__aligned_membufISt4pairIKi6VertexEE6_M_ptrEv
FNDA:333,_ZNK9__gnu_cxx16__aligned_membufISt4pairIKi6VertexEE6_M_ptrEv
FN:102,_ZN9__gnu_cxx16__aligned_bufferI4EdgeE7_M_addrEv
FNDA:81,_ZN9__gnu_cxx16__aligned_bufferI4EdgeE7_M_addrEv
FN:102,_ZN9__gnu_cxx16__aligned_bufferI6VertexE7_M_addrEv
FNDA:49,_ZN9__gnu_cxx16__aligned_bufferI6VertexE7_M_addrEv
FN:108,_ZNK9__gnu_cxx16__aligned_bufferI4EdgeE7_M_addrEv
FNDA:2,_ZNK9__gnu_cxx16__aligned_bufferI4EdgeE7_M_addrEv
FN:108,_ZNK9__gnu_cxx16__aligned_bufferI6VertexE7_M_addrEv
FNDA:0,_ZNK9__gnu_cxx16__aligned_bufferI6VertexE7_M_addrEv
FN:114,_ZN9__gnu_cxx16__aligned_bufferI4EdgeE6_M_ptrEv
FNDA:81,_ZN9__gnu_cxx16__aligned_bufferI4EdgeE6_M_ptrEv
FN:114,_ZN9__gnu_cxx16__aligned_bufferI6VertexE6_M_ptrEv
FNDA:49,_ZN9__gnu_cxx16__aligned_bufferI6VertexE6_M_ptrEv
FN:118,_ZNK9__gnu_cxx16__aligned_bufferI4EdgeE6_M_ptrEv
FNDA:2,_ZNK9__gnu_cxx16__aligned_bufferI4EdgeE6_M_ptrEv
FN:118,_ZNK9__gnu_cxx16__aligned_bufferI6VertexE6_M_ptrEv
FNDA:0,_ZNK9__gnu_cxx16__aligned_bufferI6VertexE6_M_ptrEv
DA:64,0
DA:65,0
DA:64,332
DA:65,332
DA:68,76
DA:69,76
DA:68,333
DA:69,333
DA:72,0
DA:73,0
DA:72,332
DA:73,332
DA:76,76
DA:77,76
DA:76,333
DA:77,333
DA:102,81
DA:104,81
DA:102,49
DA:104,49
DA:108,2
DA:110,2
DA:108,0
DA:110,0
DA:114,81
DA:115,81
DA:114,49
DA:115,49
DA:118,2
DA:119,2
DA:118,0
DA:119,0
end_of_record
SF:/home/imri/OS-FinalProject/GraphObj/graph.cpp
FN:4,_ZNK5Graph11isConnectedEv
FNDA:5,_ZNK5Graph11isConnectedEv
FN:31,_ZN5GraphC2Ev
FNDA:0,_ZN5GraphC2Ev
FN:34,_ZN5GraphC2ESt13unordered_setI6VertexSt4hashIS1_ESt8equal_toIS1_ESaIS1_EE
FNDA:3,_ZN5GraphC2ESt13unordered_setI6VertexSt4hashIS1_ESt8equal_toIS1_ESaIS1_EE
FN:54,_ZN5GraphC2ERKS_b
FNDA:4,_ZN5GraphC2ERKS_b
FN:115,_ZNK5Graph11numVerticesEv
FNDA:58,_ZNK5Graph11numVerticesEv
FN:121,_ZNK5Graph8numEdgesEv
FNDA:2,_ZNK5Graph8numEdgesEv
FN:127,_ZNK5Graph9hasVertexE6Vertex
FNDA:0,_ZNK5Graph9hasVertexE6Vertex
FN:133,_ZN5Graph10edgesBeginEv
FNDA:3,_ZN5Graph10edgesBeginEv
FN:139,_ZN5Graph8edgesEndEv
FNDA:9,_ZN5Graph8edgesEndEv
FN:149,_ZN5Graph7addEdgeE4Edge
FNDA:14,_ZN5Graph7addEdgeE4Edge
FN:160,_ZN5Graph10removeEdgeE4Edge
FNDA:2,_ZN5Graph10removeEdgeE4Edge
FN:172,_ZN5Graph7addEdgeER6VertexS1_m
FNDA:2,_ZN5Graph7addEdgeER6VertexS1_m
FN:179,_ZN5Graph5beginEv
FNDA:1,_ZN5Graph5beginEv
FN:185,_ZN5Graph3endEv
FNDA:1,_ZN5Graph3endEv
FN:191,_ZNK5Graph15adjacencyMatrixEv
FNDA:9,_ZNK5Graph15adjacencyMatrixEv
FN:208,_ZN5Graph9getVertexEi
FNDA:32,_ZN5Graph9getVertexEi
FN:213,_ZNK5Graph9getVertexEi
FNDA:0,_ZNK5Graph9getVertexEi
FN:218,_ZNK5Graph11totalWeightEv
FNDA:4,_ZNK5Graph11totalWeightEv
FN:228,_ZNK5Graph11longestPathB5cxx11ERKSt6vectorIS0_ImSaImEESaIS2_EE
FNDA:4,_ZNK5Graph11longestPathB5cxx11ERKSt6vectorIS0_ImSaImEESaIS2_EE
FN:249,_ZNK5Graph12getDistancesEv
FNDA:4,_ZNK5Graph12getDistancesEv
FN:258,_ZNK5Graph11avgDistanceERKSt6vectorIS0_ImSaImEESaIS2_EE
FNDA:4,_ZNK5Graph11avgDistanceERKSt6vectorIS0_ImSaImEESaIS2_EE
FN:275,_ZNK5Graph12shortestPathB5cxx11EmmRKSt6vectorIS0_ImSaImEESaIS2_EES6_
FNDA:12,_ZNK5Graph12shortestPathB5cxx11EmmRKSt6vectorIS0_ImSaImEESaIS2_EES6_
FN:311,_ZNK5Graph16allShortestPathsB5cxx11ERKSt6vectorIS0_ImSaImEESaIS2_EES6_
FNDA:4,_ZNK5Graph16allShortestPathsB5cxx11ERKSt6vectorIS0_ImSaImEESaIS2_EES6_
FN:325,_ZNK5Graph13floydWarshallEv
FNDA:4,_ZNK5Graph13floydWarshallEv
FN:360,_ZNK5Graph5statsB5cxx11Ev
FNDA:4,_ZNK5Graph5statsB5cxx11Ev
FN:380,_ZN5Graph12setDistancesESt6vectorIS0_ImSaImEESaIS2_EE
FNDA:4,_ZN5Graph12setDistancesESt6vectorIS0_ImSaImEESaIS2_EE
FN:385,_ZN5Graph9setParentESt6vectorIS0_ImSaImEESaIS2_EE
FNDA:4,_ZN5Graph9setParentESt6vectorIS0_ImSaImEESaIS2_EE
FN:390,_ZN5Graph15cleanDistParentEv
FNDA:16,_ZN5Graph15cleanDistParentEv
DA:4,5
DA:6,5
DA:7,5
DA:8,5
DA:9,5
DA:10,5
DA:11,5
DA:12,5
DA:13,19
DA:15,14
DA:16,14
DA:17,56
DA:19,42
DA:21,9
DA:22,9
DA:23,9
DA:27,5
DA:28,5
DA:31,0
DA:34,3
DA:37,10
DA:38,7
DA:40,10
DA:42,7
DA:44,0
DA:45,0
DA:46,0
DA:47,7
DA:49,3
DA:54,4
DA:57,16
DA:59,12
DA:62,4
DA:65,0
DA:67,0
DA:72,0
DA:75,0
DA:76,0
DA:77,0
DA:79,0
DA:81,0
DA:87,0
DA:90,0
DA:91,0
DA:92,0
DA:94,0
DA:96,0
DA:104,16
DA:106,12
DA:107,12
DA:110,4
DA:115,58
DA:117,58
DA:121,2
DA:123,2
DA:127,0
DA:129,0
DA:133,3
DA:135,3
DA:139,9
DA:141,9
DA:149,14
DA:151,14
DA:152,14
DA:153,14
DA:154,14
DA:155,14
DA:156,14
DA:157,14
DA:160,2
DA:162,2
DA:163,2
DA:164,2
DA:165,2
DA:166,2
DA:167,2
DA:168,2
DA:170,2
DA:172,2
DA:174,4
DA:175,2
DA:176,2
DA:179,1
DA:181,1
DA:185,1
DA:187,1
DA:191,9
DA:193,9
DA:194,18
DA:195,30
DA:197,21
DA:198,21
DA:199,21
DA:200,36
DA:202,27
DA:204,9
DA:205,0
DA:208,32
DA:210,32
DA:213,0
DA:215,0
DA:218,4
DA:220,4
DA:221,12
DA:223,8
DA:225,4
DA:228,4
DA:230,4
DA:231,4
DA:232,4
DA:233,16
DA:235,48
DA:237,36
DA:239,8
DA:240,8
DA:241,8
DA:245,8
DA:249,4
DA:251,4
DA:252,0
DA:253,4
DA:254,0
DA:255,4
DA:258,4
DA:260,4
DA:261,4
DA:262,4
DA:263,16
DA:265,36
DA:267,24
DA:268,24
DA:271,4
DA:272,4
DA:275,12
DA:278,12
DA:280,0
DA:283,12
DA:285,0
DA:288,24
DA:290,12
DA:291,12
DA:292,12
DA:293,28
DA:295,16
DA:296,16
DA:299,40
DA:301,28
DA:303,12
DA:304,12
DA:305,12
DA:307,24
DA:308,12
DA:311,4
DA:313,4
DA:314,4
DA:315,16
DA:317,24
DA:319,12
DA:322,4
DA:323,0
DA:325,4
DA:327,4
DA:328,4
DA:329,8
DA:331,16
DA:333,48
DA:335,36
DA:337,28
DA:342,16
DA:344,48
DA:346,144
DA:348,108
DA:350,8
DA:351,8
DA:357,8
DA:358,4
DA:360,4
DA:362,4
DA:364,4
DA:366,0
DA:370,4
DA:372,8
DA:373,4
DA:374,4
DA:375,4
DA:376,4
DA:377,8
DA:378,4
DA:380,4
DA:382,4
DA:383,4
DA:385,4
DA:387,4
DA:388,4
DA:390,16
DA:393,16
DA:394,0
DA:396,16
DA:397,0
DA:399,16
DA:400,16
DA:401,16
end_of_record
SF:/usr/include/c++/11/iostream
end_of_record
SF:/home/imri/OS-FinalProject/GraphObj/vertex.hpp
FN:29,_ZN6VertexC2Ev
FNDA:31,_ZN6VertexC2Ev
FN:78,_ZNKSt4hashI6VertexEclERKS0_
FNDA:43,_ZNKSt4hashI6VertexEclERKS0_
DA:29,31
DA:78,43
DA:80,43
end_of_record
SF:/usr/include/c++/11/bits/move.h
FN:49,_ZSt11__addressofINSt8__detail10_Hash_nodeI4EdgeLb1EEEEPT_RS4_
FNDA:14,_ZSt11__addressofINSt8__detail10_Hash_nodeI4EdgeLb1EEEEPT_RS4_
FN:49,_ZSt11__addressofISt6vectorImSaImEEEPT_RS3_
FNDA:270,_ZSt11__addressofISt6vectorImSaImEEEPT_RS3_
FN:49,_ZSt11__addressofIPNSt8__detail15_Hash_node_baseEEPT_RS3_
FNDA:12,_ZSt11__addressofIPNSt8__detail15_Hash_node_baseEEPT_RS3_
FN:49,_ZSt11__addressofI4EdgeEPT_RS1_
FNDA:0,_ZSt11__addressofI4EdgeEPT_RS1_
FN:49,_ZSt11__addressofImEPT_RS0_
FNDA:22,_ZSt11__addressofImEPT_RS0_
FN:77,_ZSt7forwardIRKmEOT_RNSt16remove_referenceIS2_E4typeE
FNDA:46,_ZSt7forwardIRKmEOT_RNSt16remove_referenceIS2_E4typeE
FN:77,_ZSt7forwardIRK4EdgeEOT_RNSt16remove_referenceIS3_E4typeE
FNDA:0,_ZSt7forwardIRK4EdgeEOT_RNSt16remove_referenceIS3_E4typeE
FN:77,_ZSt7forwardISt5tupleIJRKmEEEOT_RNSt16remove_referenceIS4_E4typeE
FNDA:140,_ZSt7forwardISt5tupleIJRKmEEEOT_RNSt16remove_referenceIS4_E4typeE
FN:77,_ZSt7forwardISt5tupleIJRKiEEEOT_RNSt16remove_referenceIS4_E4typeE
FNDA:70,_ZSt7forwardISt5tupleIJRKiEEEOT_RNSt16remove_referenceIS4_E4typeE
FN:77,_ZSt7forwardISt5tupleIJEEEOT_RNSt16remove_referenceIS2_E4typeE
FNDA:275,_ZSt7forwardISt5tupleIJEEEOT_RNSt16remove_referenceIS2_E4typeE
FN:77,_ZSt7forwardISt5tupleIJOiEEEOT_RNSt16remove_referenceIS3_E4typeE
FNDA:35,_ZSt7forwardISt5tupleIJOiEEEOT_RNSt16remove_referenceIS3_E4typeE
FN:77,_ZSt7forwardIRKSt21piecewise_construct_tEOT_RNSt16remove_referenceIS3_E4typeE
FNDA:275,_ZSt7forwardIRKSt21piecewise_construct_tEOT_RNSt16remove_referenceIS3_E4typeE
FN:77,_ZSt7forwardISt6vectorIS0_ImSaImEESaIS2_EEEOT_RNSt16remove_referenceIS5_E4typeE
FNDA:16,_ZSt7forwardISt6vectorIS0_ImSaImEESaIS2_EEEOT_RNSt16remove_referenceIS5_E4typeE
FN:77,_ZSt7forwardIRSt6vectorIS0_ImSaImEESaIS2_EEEOT_RNSt16remove_referenceIS6_E4typeE
FNDA:8,_ZSt7forwardIRSt6vectorIS0_ImSaImEESaIS2_EEEOT_RNSt16remove_referenceIS6_E4typeE
FN:77,_ZSt7forwardIRKSt6vectorIS0_ImSaImEESaIS2_EEEOT_RNSt16remove_referenceIS7_E4typeE
FNDA:8,_ZSt7forwardIRKSt6vectorIS0_ImSaImEESaIS2_EEEOT_RNSt16remove_referenceIS7_E4typeE
FN:77,_ZSt7forwardImEOT_RNSt16remove_referenceIS0_E4typeE
FNDA:15,_ZSt7forwardImEOT_RNSt16remove_referenceIS0_E4typeE
FN:77,_ZSt7forwardIbEOT_RNSt16remove_referenceIS0_E4typeE
FNDA:21,_ZSt7forwardIbEOT_RNSt16remove_referenceIS0_E4typeE
FN:77,_ZSt7forwardIiEOT_RNSt16remove_referenceIS0_E4typeE
FNDA:184,_ZSt7forwardIiEOT_RNSt16remove_referenceIS0_E4typeE
FN:77,_ZSt7forwardIRPSt13_Rb_tree_nodeISt4pairIKmmEEEOT_RNSt16remove_referenceIS7_E4typeE
FNDA:19,_ZSt7forwardIRPSt13_Rb_tree_nodeISt4pairIKmmEEEOT_RNSt16remove_referenceIS7_E4typeE
FN:77,_ZSt7forwardIOiEOT_RNSt16remove_referenceIS1_E4typeE
FNDA:7,_ZSt7forwardIOiEOT_RNSt16remove_referenceIS1_E4typeE
FN:77,_ZSt7forwardIRK6VertexEOT_RNSt16remove_referenceIS3_E4typeE
FNDA:28,_ZSt7forwardIRK6VertexEOT_RNSt16remove_referenceIS3_E4typeE
FN:77,_ZSt7forwardIRKSt6vectorImSaImEEEOT_RNSt16remove_referenceIS5_E4typeE
FNDA:135,_ZSt7forwardIRKSt6vectorImSaImEEEOT_RNSt16remove_referenceIS5_E4typeE
FN:77,_ZSt7forwardIRKiEOT_RNSt16remove_referenceIS2_E4typeE
FNDA:28,_ZSt7forwardIRKiEOT_RNSt16remove_referenceIS2_E4typeE
FN:77,_ZSt7forwardIRPSt13_Rb_tree_nodeISt4pairIKi6VertexEEEOT_RNSt16remove_referenceIS8_E4typeE
FNDA:7,_ZSt7forwardIRPSt13_Rb_tree_nodeISt4pairIKi6VertexEEEOT_RNSt16remove_referenceIS8_E4typeE
FN:77,_ZSt7forwardIRKSt4pairIKmmEEOT_RNSt16remove_referenceIS5_E4typeE
FNDA:0,_ZSt7forwardIRKSt4pairIKmmEEOT_RNSt16remove_referenceIS5_E4typeE
FN:77,_ZSt7forwardISt17_Rb_tree_iteratorISt4pairIKmmEEEOT_RNSt16remove_referenceIS5_E4typeE
FNDA:16,_ZSt7forwardISt17_Rb_tree_iteratorISt4pairIKmmEEEOT_RNSt16remove_referenceIS5_E4typeE
FN:77,_ZSt7forwardIRNSt8__detail14_Node_iteratorI4EdgeLb1ELb1EEEEOT_RNSt16remove_referenceIS5_E4typeE
FNDA:14,_ZSt7forwardIRNSt8__detail14_Node_iteratorI4EdgeLb1ELb1EEEEOT_RNSt16remove_referenceIS5_E4typeE
FN:77,_ZSt7forwardINSt8__detail14_Node_iteratorI4EdgeLb1ELb1EEEEOT_RNSt16remove_referenceIS4_E4typeE
FNDA:0,_ZSt7forwardINSt8__detail14_Node_iteratorI4EdgeLb1ELb1EEEEOT_RNSt16remove_referenceIS4_E4typeE
FN:77,_ZSt7forwardIRPSt18_Rb_tree_node_baseEOT_RNSt16remove_referenceIS3_E4typeE
FNDA:67,_ZSt7forwardIRPSt18_Rb_tree_node_baseEOT_RNSt16remove_referenceIS3_E4typeE
FN:104,_ZSt4moveIRSt6vectorIS0_ImSaImEESaIS2_EEEONSt16remove_referenceIT_E4typeEOS7_
FNDA:24,_ZSt4moveIRSt6vectorIS0_ImSaImEESaIS2_EEEONSt16remove_referenceIT_E4typeEOS7_
FN:104,_ZSt4moveIRiEONSt16remove_referenceIT_E4typeEOS2_
FNDA:47,_ZSt4moveIRiEONSt16remove_referenceIT_E4typeEOS2_
FN:104,_ZSt4moveIRmEONSt16remove_referenceIT_E4typeEOS2_
FNDA:22,_ZSt4moveIRmEONSt16remove_referenceIT_E4typeEOS2_
FN:104,_ZSt4moveIRNSt7__cxx1112basic_stringIcSt11char_traitsIcESaIcEEEEONSt16remove_referenceIT_E4typeEOS8_
FNDA:320,_ZSt4moveIRNSt7__cxx1112basic_stringIcSt11char_traitsIcESaIcEEEEONSt16remove_referenceIT_E4typeEOS8_
FN:104,_ZSt4moveIRSaIcEEONSt16remove_referenceIT_E4typeEOS3_
FNDA:0,_ZSt4moveIRSaIcEEONSt16remove_referenceIT_E4typeEOS3_
FN:104,_ZSt4moveIRSaISt6vectorImSaImEEEEONSt16remove_referenceIT_E4typeEOS6_
FNDA:24,_ZSt4moveIRSaISt6vectorImSaImEEEEONSt16remove_referenceIT_E4typeEOS6_
FN:145,_ZSt9addressofIPNSt8__detail15_Hash_node_baseEEPT_RS3_
FNDA:12,_ZSt9addressofIPNSt8__detail15_Hash_node_baseEEPT_RS3_
FN:145,_ZSt9addressofINSt8__detail10_Hash_nodeI4EdgeLb1EEEEPT_RS4_
FNDA:14,_ZSt9addressofINSt8__detail10_Hash_nodeI4EdgeLb1EEEEPT_RS4_
DA:49,14
DA:50,14
DA:49,12
DA:50,12
DA:49,0
DA:50,0
DA:49,270
DA:50,270
DA:49,22
DA:50,22
DA:77,46
DA:78,46
DA:77,184
DA:78,184
DA:77,21
DA:78,21
DA:77,15
DA:78,15
DA:77,8
DA:78,8
DA:77,8
DA:78,8
DA:77,16
DA:78,16
DA:77,275
DA:78,275
DA:77,35
DA:78,35
DA:77,275
DA:78,275
DA:77,70
DA:78,70
DA:77,140
DA:78,140
DA:77,28
DA:78,28
DA:77,0
DA:78,0
DA:77,67
DA:78,67
DA:77,0
DA:78,0
DA:77,14
DA:78,14
DA:77,16
DA:78,16
DA:77,0
DA:78,0
DA:77,7
DA:78,7
DA:77,19
DA:78,19
DA:77,135
DA:78,135
DA:77,28
DA:78,28
DA:77,7
DA:78,7
DA:104,24
DA:105,24
DA:104,24
DA:105,24
DA:104,47
DA:105,47
DA:104,22
DA:105,22
DA:104,320
DA:105,320
DA:104,0
DA:105,0
DA:145,14
DA:146,14
DA:145,12
DA:146,12
end_of_record
TN:
SF:/home/imri/OS-FinalProject/GraphObj/edge.hpp
end_of_record
SF:/usr/include/c++/11/iostream
end_of_record
SF:/home/imri/OS-FinalProject/GraphObj/vertex.hpp
end_of_record
SF:/usr/include/c++/11/bits/move.h
FN:49,_ZSt11__addressofI4EdgeEPT_RS1_
FNDA:1936,_ZSt11__addressofI4EdgeEPT_RS1_
FN:77,_ZSt7forwardIRKSt4pairIKmmEEOT_RNSt16remove_referenceIS5_E4typeE
FNDA:3966,_ZSt7forwardIRKSt4pairIKmmEEOT_RNSt16remove_referenceIS5_E4typeE
FN:77,_ZSt7forwardIRK4EdgeEOT_RNSt16remove_referenceIS3_E4typeE
FNDA:1241,_ZSt7forwardIRK4EdgeEOT_RNSt16remove_referenceIS3_E4typeE
DA:49,1936
DA:50,1936
DA:77,3966
DA:78,3966
DA:77,1241
DA:78,1241
end_of_record
SF:/home/imri/OS-FinalProject/GraphObj/edge.cpp
FN:5,_ZN4EdgeC2E6VertexS0_m
FNDA:12,_ZN4EdgeC2E6VertexS0_m
FN:8,_ZN4EdgeC2ERKS_
FNDA:1147,_ZN4EdgeC2ERKS_
FN:11,_ZN4Edge8getStartEv
FNDA:103,_ZN4Edge8getStartEv
FN:12,_ZNK4Edge8getStartEv
FNDA:23,_ZNK4Edge8getStartEv
FN:13,_ZN4Edge6getEndEv
FNDA:103,_ZN4Edge6getEndEv
FN:14,_ZNK4Edge6getEndEv
FNDA:23,_ZNK4Edge6getEndEv
FN:16,_ZN4Edge9getWeightEv
FNDA:81,_ZN4Edge9getWeightEv
FN:17,_ZNK4Edge9getWeightEv
FNDA:18,_ZNK4Edge9getWeightEv
FN:20,_ZN4Edge8getOtherE6Vertex
FNDA:36,_ZN4Edge8getOtherE6Vertex
FN:25,_ZNK4Edge8getOtherE6Vertex
FNDA:0,_ZNK4Edge8getOtherE6Vertex
FN:31,_ZNK4Edge8containsER6Vertex
FNDA:0,_ZNK4Edge8containsER6Vertex
FN:37,_ZNK4EdgeeqERKS_
FNDA:18,_ZNK4EdgeeqERKS_
FN:43,_ZN4EdgeaSERKS_
FNDA:22,_ZN4EdgeaSERKS_
FN:51,_ZNK4EdgeltERKS_
FNDA:2,_ZNK4EdgeltERKS_
FN:56,_ZlsRSoRK4Edge
FNDA:0,_ZlsRSoRK4Edge
DA:5,12
DA:8,1147
DA:11,103
DA:12,23
DA:13,103
DA:14,23
DA:16,81
DA:17,18
DA:20,36
DA:22,36
DA:25,0
DA:27,0
DA:31,0
DA:33,0
DA:37,18
DA:39,18
DA:43,22
DA:45,22
DA:46,22
DA:47,22
DA:48,22
DA:51,2
DA:53,2
DA:56,0
DA:58,0
DA:59,0
end_of_record
SF:/usr/include/c++/11/ext/aligned_buffer.h
FN:64,_ZN9__gnu_cxx16__aligned_membufISt4pairIKmmEE7_M_addrEv
FNDA:2081,_ZN9__gnu_cxx16__aligned_membufISt4pairIKmmEE7_M_addrEv
FN:72,_ZN9__gnu_cxx16__aligned_membufISt4pairIKmmEE6_M_ptrEv
FNDA:2081,_ZN9__gnu_cxx16__aligned_membufISt4pairIKmmEE6_M_ptrEv
DA:64,2081
DA:65,2081
DA:72,2081
DA:73,2081
end_of_record
SF:/usr/include/c++/11/bits/stl_uninitialized.h
FN:85,_ZNSt20__uninitialized_copyILb0EE13__uninit_copyIN9__gnu_cxx17__normal_iteratorIPK4EdgeSt6vectorIS4_SaIS4_EEEEPS4_EET0_T_SD_SC_
FNDA:2409,_ZNSt20__uninitialized_copyILb0EE13__uninit_copyIN9__gnu_cxx17__normal_iteratorIPK4EdgeSt6vectorIS4_SaIS4_EEEEPS4_EET0_T_SD_SC_
FN:126,_ZSt18uninitialized_copyIN9__gnu_cxx17__normal_iteratorIPK4EdgeSt6vectorIS2_SaIS2_EEEEPS2_ET0_T_SB_SA_
FNDA:2409,_ZSt18uninitialized_copyIN9__gnu_cxx17__normal_iteratorIPK4EdgeSt6vectorIS2_SaIS2_EEEEPS2_ET0_T_SB_SA_
FN:331,_ZSt22__uninitialized_copy_aIN9__gnu_cxx17__normal_iteratorIPK4EdgeSt6vectorIS2_SaIS2_EEEEPS2_S2_ET0_T_SB_SA_RSaIT1_E
FNDA:2409,_ZSt22__uninitialized_copy_aIN9__gnu_cxx17__normal_iteratorIPK4EdgeSt6vectorIS2_SaIS2_EEEEPS2_S2_ET0_T_SB_SA_RSaIT1_E
DA:85,2409
DA:88,2409
DA:91,3296
DA:92,887
DA:93,2409
DA:95,0
DA:97,0
DA:98,0
DA:126,2409
DA:145,2409
DA:151,2409
DA:331,2409
DA:333,2409
end_of_record
SF:/usr/include/c++/11/bits/stl_map.h
FN:207,_ZNSt3mapImmSt4lessImESaISt4pairIKmmEEEC2ERKS6_
FNDA:2409,_ZNSt3mapImmSt4lessImESaISt4pairIKmmEEEC2ERKS6_
FN:302,_ZNSt3mapImmSt4lessImESaISt4pairIKmmEEED2Ev
FNDA:2447,_ZNSt3mapImmSt4lessImESaISt4pairIKmmEEED2Ev
DA:207,2409
DA:302,2447
end_of_record
SF:/usr/include/c++/11/ext/alloc_traits.h
FN:97,_ZN9__gnu_cxx14__alloc_traitsISaISt13_Rb_tree_nodeISt4pairIKmmEEES5_E17_S_select_on_copyERKS6_
FNDA:2409,_ZN9__gnu_cxx14__alloc_traitsISaISt13_Rb_tree_nodeISt4pairIKmmEEES5_E17_S_select_on_copyERKS6_
FN:97,_ZN9__gnu_cxx14__alloc_traitsISaI4EdgeES1_E17_S_select_on_copyERKS2_
FNDA:2409,_ZN9__gnu_cxx14__alloc_traitsISaI4EdgeES1_E17_S_select_on_copyERKS2_
DA:97,2409
DA:98,2409
DA:97,2409
DA:98,2409
end_of_record
SF:/usr/include/c++/11/bits/stl_iterator.h
FN:1027,_ZN9__gnu_cxx17__normal_iteratorIPK4EdgeSt6vectorIS1_SaIS1_EEEC2ERKS3_
FNDA:4948,_ZN9__gnu_cxx17__normal_iteratorIPK4EdgeSt6vectorIS1_SaIS1_EEEC2ERKS3_
FN:1042,_ZNK9__gnu_cxx17__normal_iteratorIPK4EdgeSt6vectorIS1_SaIS1_EEEdeEv
FNDA:940,_ZNK9__gnu_cxx17__normal_iteratorIPK4EdgeSt6vectorIS1_SaIS1_EEEdeEv
FN:1052,_ZN9__gnu_cxx17__normal_iteratorIPK4EdgeSt6vectorIS1_SaIS1_EEEppEv
FNDA:940,_ZN9__gnu_cxx17__normal_iteratorIPK4EdgeSt6vectorIS1_SaIS1_EEEppEv
FN:1105,_ZNK9__gnu_cxx17__normal_iteratorIPK4EdgeSt6vectorIS1_SaIS1_EEE4baseEv
FNDA:6840,_ZNK9__gnu_cxx17__normal_iteratorIPK4EdgeSt6vectorIS1_SaIS1_EEE4baseEv
FN:1179,_ZN9__gnu_cxxneIPK4EdgeSt6vectorIS1_SaIS1_EEEEbRKNS_17__normal_iteratorIT_T0_EESC_
FNDA:3412,_ZN9__gnu_cxxneIPK4EdgeSt6vectorIS1_SaIS1_EEEEbRKNS_17__normal_iteratorIT_T0_EESC_
DA:1027,4948
DA:1028,4948
DA:1042,940
DA:1043,940
DA:1052,940
DA:1054,940
DA:1055,940
DA:1105,6840
DA:1106,6840
DA:1179,3412
DA:1182,3412
end_of_record
SF:/usr/include/c++/11/bits/stl_vector.h
FN:97,_ZNSt12_Vector_baseI4EdgeSaIS0_EE17_Vector_impl_dataC2Ev
FNDA:2450,_ZNSt12_Vector_baseI4EdgeSaIS0_EE17_Vector_impl_dataC2Ev
FN:136,_ZNSt12_Vector_baseI4EdgeSaIS0_EE12_Vector_implC2ERKS1_
FNDA:2411,_ZNSt12_Vector_baseI4EdgeSaIS0_EE12_Vector_implC2ERKS1_
FN:276,_ZNSt12_Vector_baseI4EdgeSaIS0_EE19_M_get_Tp_allocatorEv
FNDA:5070,_ZNSt12_Vector_baseI4EdgeSaIS0_EE19_M_get_Tp_allocatorEv
FN:280,_ZNKSt12_Vector_baseI4EdgeSaIS0_EE19_M_get_Tp_allocatorEv
FNDA:2537,_ZNKSt12_Vector_baseI4EdgeSaIS0_EE19_M_get_Tp_allocatorEv
FN:303,_ZNSt12_Vector_baseI4EdgeSaIS0_EEC2EmRKS1_
FNDA:2410,_ZNSt12_Vector_baseI4EdgeSaIS0_EEC2EmRKS1_
FN:333,_ZNSt12_Vector_baseI4EdgeSaIS0_EED2Ev
FNDA:2450,_ZNSt12_Vector_baseI4EdgeSaIS0_EED2Ev
FN:343,_ZNSt12_Vector_baseI4EdgeSaIS0_EE11_M_allocateEm
FNDA:2475,_ZNSt12_Vector_baseI4EdgeSaIS0_EE11_M_allocateEm
FN:350,_ZNSt12_Vector_baseI4EdgeSaIS0_EE13_M_deallocateEPS0_m
FNDA:2514,_ZNSt12_Vector_baseI4EdgeSaIS0_EE13_M_deallocateEPS0_m
FN:359,_ZNSt12_Vector_baseI4EdgeSaIS0_EE17_M_create_storageEm
FNDA:2410,_ZNSt12_Vector_baseI4EdgeSaIS0_EE17_M_create_storageEm
FN:553,_ZNSt6vectorI4EdgeSaIS0_EEC2ERKS2_
FNDA:2409,_ZNSt6vectorI4EdgeSaIS0_EEC2ERKS2_
FN:678,_ZNSt6vectorI4EdgeSaIS0_EED2Ev
FNDA:2450,_ZNSt6vectorI4EdgeSaIS0_EED2Ev
FN:820,_ZNKSt6vectorI4EdgeSaIS0_EE5beginEv
FNDA:2472,_ZNKSt6vectorI4EdgeSaIS0_EE5beginEv
FN:838,_ZNKSt6vectorI4EdgeSaIS0_EE3endEv
FNDA:2472,_ZNKSt6vectorI4EdgeSaIS0_EE3endEv
FN:918,_ZNKSt6vectorI4EdgeSaIS0_EE4sizeEv
FNDA:2665,_ZNKSt6vectorI4EdgeSaIS0_EE4sizeEv
DA:97,2450
DA:98,2450
DA:99,2450
DA:136,2411
DA:137,2411
DA:138,2411
DA:276,5070
DA:277,5070
DA:280,2537
DA:281,2537
DA:303,2410
DA:304,2410
DA:305,2410
DA:333,2450
DA:335,2450
DA:336,2450
DA:337,2450
DA:343,2475
DA:346,2475
DA:350,2514
DA:353,2514
DA:354,768
DA:355,2514
DA:359,2410
DA:361,2410
DA:362,2410
DA:363,2410
DA:364,2410
DA:553,2409
DA:555,2409
DA:557,2409
DA:558,2409
DA:560,2409
DA:561,2409
DA:678,2450
DA:680,2450
DA:681,2450
DA:683,2450
DA:820,2472
DA:821,2472
DA:838,2472
DA:839,2472
DA:918,2665
DA:919,2665
end_of_record
SF:/usr/include/c++/11/ext/new_allocator.h
FN:82,_ZN9__gnu_cxx13new_allocatorI4EdgeEC2ERKS2_
FNDA:4822,_ZN9__gnu_cxx13new_allocatorI4EdgeEC2ERKS2_
FN:82,_ZN9__gnu_cxx13new_allocatorISt13_Rb_tree_nodeISt4pairIKmmEEEC2ERKS6_
FNDA:4818,_ZN9__gnu_cxx13new_allocatorISt13_Rb_tree_nodeISt4pairIKmmEEEC2ERKS6_
FN:89,_ZN9__gnu_cxx13new_allocatorISt13_Rb_tree_nodeISt4pairIKmmEEED2Ev
FNDA:4856,_ZN9__gnu_cxx13new_allocatorISt13_Rb_tree_nodeISt4pairIKmmEEED2Ev
FN:89,_ZN9__gnu_cxx13new_allocatorI4EdgeED2Ev
FNDA:4863,_ZN9__gnu_cxx13new_allocatorI4EdgeED2Ev
FN:103,_ZN9__gnu_cxx13new_allocatorISt13_Rb_tree_nodeISt4pairIKmmEEE8allocateEmPKv
FNDA:689,_ZN9__gnu_cxx13new_allocatorISt13_Rb_tree_nodeISt4pairIKmmEEE8allocateEmPKv
FN:103,_ZN9__gnu_cxx13new_allocatorI4EdgeE8allocateEmPKv
FNDA:768,_ZN9__gnu_cxx13new_allocatorI4EdgeE8allocateEmPKv
FN:132,_ZN9__gnu_cxx13new_allocatorISt13_Rb_tree_nodeISt4pairIKmmEEE10deallocateEPS5_m
FNDA:689,_ZN9__gnu_cxx13new_allocatorISt13_Rb_tree_nodeISt4pairIKmmEEE10deallocateEPS5_m
FN:132,_ZN9__gnu_cxx13new_allocatorI4EdgeE10deallocateEPS1_m
FNDA:768,_ZN9__gnu_cxx13new_allocatorI4EdgeE10deallocateEPS1_m
FN:160,_ZN9__gnu_cxx13new_allocatorISt13_Rb_tree_nodeISt4pairIKmmEEE9constructIS4_JRKS4_EEEvPT_DpOT0_
FNDA:661,_ZN9__gnu_cxx13new_allocatorISt13_Rb_tree_nodeISt4pairIKmmEEE9constructIS4_JRKS4_EEEvPT_DpOT0_
FN:166,_ZN9__gnu_cxx13new_allocatorISt13_Rb_tree_nodeISt4pairIKmmEEE7destroyIS4_EEvPT_
FNDA:689,_ZN9__gnu_cxx13new_allocatorISt13_Rb_tree_nodeISt4pairIKmmEEE7destroyIS4_EEvPT_
FN:197,_ZNK9__gnu_cxx13new_allocatorISt13_Rb_tree_nodeISt4pairIKmmEEE11_M_max_sizeEv
FNDA:689,_ZNK9__gnu_cxx13new_allocatorISt13_Rb_tree_nodeISt4pairIKmmEEE11_M_max_sizeEv
FN:197,_ZNK9__gnu_cxx13new_allocatorI4EdgeE11_M_max_sizeEv
FNDA:898,_ZNK9__gnu_cxx13new_allocatorI4EdgeE11_M_max_sizeEv
DA:82,4822
DA:82,4818
DA:89,4856
DA:89,4863
DA:103,689
DA:111,689
DA:115,0
DA:116,0
DA:117,0
DA:127,689
DA:103,768
DA:111,768
DA:115,0
DA:116,0
DA:117,0
DA:127,768
DA:132,689
DA:145,689
DA:132,768
DA:145,768
DA:160,661
DA:162,661
DA:166,689
DA:168,689
DA:197,689
DA:200,689
DA:197,898
DA:200,898
end_of_record
SF:/usr/include/c++/11/bits/alloc_traits.h
FN:463,_ZNSt16allocator_traitsISaISt13_Rb_tree_nodeISt4pairIKmmEEEE8allocateERS5_m
FNDA:689,_ZNSt16allocator_traitsISaISt13_Rb_tree_nodeISt4pairIKmmEEEE8allocateERS5_m
FN:463,_ZNSt16allocator_traitsISaI4EdgeEE8allocateERS1_m
FNDA:768,_ZNSt16allocator_traitsISaI4EdgeEE8allocateERS1_m
FN:495,_ZNSt16allocator_traitsISaISt13_Rb_tree_nodeISt4pairIKmmEEEE10deallocateERS5_PS4_m
FNDA:689,_ZNSt16allocator_traitsISaISt13_Rb_tree_nodeISt4pairIKmmEEEE10deallocateERS5_PS4_m
FN:495,_ZNSt16allocator_traitsISaI4EdgeEE10deallocateERS1_PS0_m
FNDA:768,_ZNSt16allocator_traitsISaI4EdgeEE10deallocateERS1_PS0_m
FN:511,_ZNSt16allocator_traitsISaISt13_Rb_tree_nodeISt4pairIKmmEEEE9constructIS3_JRKS3_EEEvRS5_PT_DpOT0_
FNDA:661,_ZNSt16allocator_traitsISaISt13_Rb_tree_nodeISt4pairIKmmEEEE9constructIS3_JRKS3_EEEvRS5_PT_DpOT0_
FN:531,_ZNSt16allocator_traitsISaISt13_Rb_tree_nodeISt4pairIKmmEEEE7destroyIS3_EEvRS5_PT_
FNDA:689,_ZNSt16allocator_traitsISaISt13_Rb_tree_nodeISt4pairIKmmEEEE7destroyIS3_EEvRS5_PT_
FN:562,_ZNSt16allocator_traitsISaISt13_Rb_tree_nodeISt4pairIKmmEEEE37select_on_container_copy_constructionERKS5_
FNDA:2409,_ZNSt16allocator_traitsISaISt13_Rb_tree_nodeISt4pairIKmmEEEE37select_on_container_copy_constructionERKS5_
FN:562,_ZNSt16allocator_traitsISaI4EdgeEE37select_on_container_copy_constructionERKS1_
FNDA:2409,_ZNSt16allocator_traitsISaI4EdgeEE37select_on_container_copy_constructionERKS1_
FN:845,_ZSt8_DestroyIP4EdgeS0_EvT_S2_RSaIT0_E
FNDA:2530,_ZSt8_DestroyIP4EdgeS0_EvT_S2_RSaIT0_E
DA:463,689
DA:464,689
DA:463,768
DA:464,768
DA:495,689
DA:496,689
DA:495,768
DA:496,768
DA:511,661
DA:516,661
DA:520,661
DA:531,689
DA:535,689
DA:539,689
DA:562,2409
DA:563,2409
DA:562,2409
DA:563,2409
DA:845,2530
DA:848,2530
DA:849,2530
end_of_record
SF:/usr/include/c++/11/bits/allocator.h
FN:159,_ZNSaI4EdgeEC2ERKS0_
FNDA:4822,_ZNSaI4EdgeEC2ERKS0_
FN:159,_ZNSaISt13_Rb_tree_nodeISt4pairIKmmEEEC2ERKS4_
FNDA:4818,_ZNSaISt13_Rb_tree_nodeISt4pairIKmmEEEC2ERKS4_
FN:174,_ZNSaISt13_Rb_tree_nodeISt4pairIKmmEEED2Ev
FNDA:4856,_ZNSaISt13_Rb_tree_nodeISt4pairIKmmEEED2Ev
FN:174,_ZNSaI4EdgeED2Ev
FNDA:4863,_ZNSaI4EdgeED2Ev
DA:159,4822
DA:160,4822
DA:159,4818
DA:160,4818
DA:174,4856
DA:174,4863
end_of_record
SF:/usr/include/c++/11/new
FN:174,_ZnwmPv
FNDA:2874,_ZnwmPv
FN:180,_ZdlPvS_
FNDA:0,_ZdlPvS_
DA:174,2874
DA:175,2874
DA:180,0
end_of_record
SF:/usr/include/c++/11/bits/stl_construct.h
FN:109,_ZSt10_ConstructI4EdgeJRKS0_EEvPT_DpOT0_
FNDA:923,_ZSt10_ConstructI4EdgeJRKS0_EEvPT_DpOT0_
FN:146,_ZSt8_DestroyI4EdgeEvPT_
FNDA:1010,_ZSt8_DestroyI4EdgeEvPT_
FN:160,_ZNSt12_Destroy_auxILb0EE9__destroyIP4EdgeEEvT_S4_
FNDA:2530,_ZNSt12_Destroy_auxILb0EE9__destroyIP4EdgeEEvT_S4_
FN:182,_ZSt8_DestroyIP4EdgeEvT_S2_
FNDA:2530,_ZSt8_DestroyIP4EdgeEvT_S2_
DA:109,923
DA:119,923
DA:120,923
DA:146,1010
DA:151,1010
DA:153,1010
DA:160,2530
DA:162,3540
DA:163,1010
DA:164,2530
DA:182,2530
DA:196,2530
DA:197,2530
end_of_record
SF:/usr/include/c++/11/bits/stl_tree.h
FN:112,_ZNSt18_Rb_tree_node_base10_S_minimumEPS_
FNDA:591,_ZNSt18_Rb_tree_node_base10_S_minimumEPS_
FN:126,_ZNSt18_Rb_tree_node_base10_S_maximumEPS_
FNDA:591,_ZNSt18_Rb_tree_node_base10_S_maximumEPS_
FN:152,_ZNSt20_Rb_tree_key_compareISt4lessImEEC2ERKS1_
FNDA:2409,_ZNSt20_Rb_tree_key_compareISt4lessImEEC2ERKS1_
FN:173,_ZNSt15_Rb_tree_headerC2Ev
FNDA:2458,_ZNSt15_Rb_tree_headerC2Ev
FN:206,_ZNSt15_Rb_tree_header8_M_resetEv
FNDA:2485,_ZNSt15_Rb_tree_header8_M_resetEv
FN:234,_ZNSt13_Rb_tree_nodeISt4pairIKmmEE9_M_valptrEv
FNDA:2081,_ZNSt13_Rb_tree_nodeISt4pairIKmmEE9_M_valptrEv
FN:523,_ZNSt8_Rb_treeImSt4pairIKmmESt10_Select1stIS2_ESt4lessImESaIS2_EE11_Alloc_nodeC2ERS8_
FNDA:591,_ZNSt8_Rb_treeImSt4pairIKmmESt10_Select1stIS2_ESt4lessImESaIS2_EE11_Alloc_nodeC2ERS8_
FN:528,_ZNKSt8_Rb_treeImSt4pairIKmmESt10_Select1stIS2_ESt4lessImESaIS2_EE11_Alloc_nodeclIRKS2_EEPSt13_Rb_tree_nodeIS2_EOT_
FNDA:661,_ZNKSt8_Rb_treeImSt4pairIKmmESt10_Select1stIS2_ESt4lessImESaIS2_EE11_Alloc_nodeclIRKS2_EEPSt13_Rb_tree_nodeIS2_EOT_
FN:547,_ZNSt8_Rb_treeImSt4pairIKmmESt10_Select1stIS2_ESt4lessImESaIS2_EE21_M_get_Node_allocatorEv
FNDA:2756,_ZNSt8_Rb_treeImSt4pairIKmmESt10_Select1stIS2_ESt4lessImESaIS2_EE21_M_get_Node_allocatorEv
FN:560,_ZNSt8_Rb_treeImSt4pairIKmmESt10_Select1stIS2_ESt4lessImESaIS2_EE11_M_get_nodeEv
FNDA:689,_ZNSt8_Rb_treeImSt4pairIKmmESt10_Select1stIS2_ESt4lessImESaIS2_EE11_M_get_nodeEv
FN:564,_ZNSt8_Rb_treeImSt4pairIKmmESt10_Select1stIS2_ESt4lessImESaIS2_EE11_M_put_nodeEPSt13_Rb_tree_nodeIS2_E
FNDA:689,_ZNSt8_Rb_treeImSt4pairIKmmESt10_Select1stIS2_ESt4lessImESaIS2_EE11_M_put_nodeEPSt13_Rb_tree_nodeIS2_E
FN:590,_ZNSt8_Rb_treeImSt4pairIKmmESt10_Select1stIS2_ESt4lessImESaIS2_EE17_M_construct_nodeIJRKS2_EEEvPSt13_Rb_tree_nodeIS2_EDpOT_
FNDA:661,_ZNSt8_Rb_treeImSt4pairIKmmESt10_Select1stIS2_ESt4lessImESaIS2_EE17_M_construct_nodeIJRKS2_EEEvPSt13_Rb_tree_nodeIS2_EDpOT_
FN:609,_ZNSt8_Rb_treeImSt4pairIKmmESt10_Select1stIS2_ESt4lessImESaIS2_EE14_M_create_nodeIJRKS2_EEEPSt13_Rb_tree_nodeIS2_EDpOT_
FNDA:661,_ZNSt8_Rb_treeImSt4pairIKmmESt10_Select1stIS2_ESt4lessImESaIS2_EE14_M_create_nodeIJRKS2_EEEPSt13_Rb_tree_nodeIS2_EDpOT_
FN:618,_ZNSt8_Rb_treeImSt4pairIKmmESt10_Select1stIS2_ESt4lessImESaIS2_EE15_M_destroy_nodeEPSt13_Rb_tree_nodeIS2_E
FNDA:689,_ZNSt8_Rb_treeImSt4pairIKmmESt10_Select1stIS2_ESt4lessImESaIS2_EE15_M_destroy_nodeEPSt13_Rb_tree_nodeIS2_E
FN:629,_ZNSt8_Rb_treeImSt4pairIKmmESt10_Select1stIS2_ESt4lessImESaIS2_EE12_M_drop_nodeEPSt13_Rb_tree_nodeIS2_E
FNDA:689,_ZNSt8_Rb_treeImSt4pairIKmmESt10_Select1stIS2_ESt4lessImESaIS2_EE12_M_drop_nodeEPSt13_Rb_tree_nodeIS2_E
FN:637,_ZNSt8_Rb_treeImSt4pairIKmmESt10_Select1stIS2_ESt4lessImESaIS2_EE13_M_clone_nodeILb0ENS8_11_Alloc_nodeEEEPSt13_Rb_tree_nodeIS2_ESD_RT0_
FNDA:661,_ZNSt8_Rb_treeImSt4pairIKmmESt10_Select1stIS2_ESt4lessImESaIS2_EE13_M_clone_nodeILb0ENS8_11_Alloc_nodeEEEPSt13_Rb_tree_nodeIS2_ESD_RT0_
FN:674,_ZNSt8_Rb_treeImSt4pairIKmmESt10_Select1stIS2_ESt4lessImESaIS2_EE13_Rb_tree_implIS6_Lb1EEC2ERKSA_
FNDA:2409,_ZNSt8_Rb_treeImSt4pairIKmmESt10_Select1stIS2_ESt4lessImESaIS2_EE13_Rb_tree_implIS6_Lb1EEC2ERKSA_
FN:710,_ZNSt8_Rb_treeImSt4pairIKmmESt10_Select1stIS2_ESt4lessImESaIS2_EE7_M_rootEv
FNDA:591,_ZNSt8_Rb_treeImSt4pairIKmmESt10_Select1stIS2_ESt4lessImESaIS2_EE7_M_rootEv
FN:714,_ZNKSt8_Rb_treeImSt4pairIKmmESt10_Select1stIS2_ESt4lessImESaIS2_EE7_M_rootEv
FNDA:2409,_ZNKSt8_Rb_treeImSt4pairIKmmESt10_Select1stIS2_ESt4lessImESaIS2_EE7_M_rootEv
FN:718,_ZNSt8_Rb_treeImSt4pairIKmmESt10_Select1stIS2_ESt4lessImESaIS2_EE11_M_leftmostEv
FNDA:597,_ZNSt8_Rb_treeImSt4pairIKmmESt10_Select1stIS2_ESt4lessImESaIS2_EE11_M_leftmostEv
FN:726,_ZNSt8_Rb_treeImSt4pairIKmmESt10_Select1stIS2_ESt4lessImESaIS2_EE12_M_rightmostEv
FNDA:605,_ZNSt8_Rb_treeImSt4pairIKmmESt10_Select1stIS2_ESt4lessImESaIS2_EE12_M_rightmostEv
FN:734,_ZNKSt8_Rb_treeImSt4pairIKmmESt10_Select1stIS2_ESt4lessImESaIS2_EE9_M_mbeginEv
FNDA:3119,_ZNKSt8_Rb_treeImSt4pairIKmmESt10_Select1stIS2_ESt4lessImESaIS2_EE9_M_mbeginEv
FN:738,_ZNSt8_Rb_treeImSt4pairIKmmESt10_Select1stIS2_ESt4lessImESaIS2_EE8_M_beginEv
FNDA:2528,_ZNSt8_Rb_treeImSt4pairIKmmESt10_Select1stIS2_ESt4lessImESaIS2_EE8_M_beginEv
FN:749,_ZNSt8_Rb_treeImSt4pairIKmmESt10_Select1stIS2_ESt4lessImESaIS2_EE6_M_endEv
FNDA:700,_ZNSt8_Rb_treeImSt4pairIKmmESt10_Select1stIS2_ESt4lessImESaIS2_EE6_M_endEv
FN:779,_ZNSt8_Rb_treeImSt4pairIKmmESt10_Select1stIS2_ESt4lessImESaIS2_EE7_S_leftEPSt18_Rb_tree_node_base
FNDA:1357,_ZNSt8_Rb_treeImSt4pairIKmmESt10_Select1stIS2_ESt4lessImESaIS2_EE7_S_leftEPSt18_Rb_tree_node_base
FN:787,_ZNSt8_Rb_treeImSt4pairIKmmESt10_Select1stIS2_ESt4lessImESaIS2_EE8_S_rightEPSt18_Rb_tree_node_base
FNDA:750,_ZNSt8_Rb_treeImSt4pairIKmmESt10_Select1stIS2_ESt4lessImESaIS2_EE8_S_rightEPSt18_Rb_tree_node_base
FN:799,_ZNSt8_Rb_treeImSt4pairIKmmESt10_Select1stIS2_ESt4lessImESaIS2_EE10_S_minimumEPSt18_Rb_tree_node_base
FNDA:591,_ZNSt8_Rb_treeImSt4pairIKmmESt10_Select1stIS2_ESt4lessImESaIS2_EE10_S_minimumEPSt18_Rb_tree_node_base
FN:807,_ZNSt8_Rb_treeImSt4pairIKmmESt10_Select1stIS2_ESt4lessImESaIS2_EE10_S_maximumEPSt18_Rb_tree_node_base
FNDA:591,_ZNSt8_Rb_treeImSt4pairIKmmESt10_Select1stIS2_ESt4lessImESaIS2_EE10_S_maximumEPSt18_Rb_tree_node_base
FN:887,_ZNSt8_Rb_treeImSt4pairIKmmESt10_Select1stIS2_ESt4lessImESaIS2_EE7_M_copyILb0ENS8_11_Alloc_nodeEEEPSt13_Rb_tree_nodeIS2_ERKS8_RT0_
FNDA:591,_ZNSt8_Rb_treeImSt4pairIKmmESt10_Select1stIS2_ESt4lessImESaIS2_EE7_M_copyILb0ENS8_11_Alloc_nodeEEEPSt13_Rb_tree_nodeIS2_ERKS8_RT0_
FN:898,_ZNSt8_Rb_treeImSt4pairIKmmESt10_Select1stIS2_ESt4lessImESaIS2_EE7_M_copyERKS8_
FNDA:591,_ZNSt8_Rb_treeImSt4pairIKmmESt10_Select1stIS2_ESt4lessImESaIS2_EE7_M_copyERKS8_
FN:935,_ZNSt8_Rb_treeImSt4pairIKmmESt10_Select1stIS2_ESt4lessImESaIS2_EEC2ERKS8_
FNDA:2409,_ZNSt8_Rb_treeImSt4pairIKmmESt10_Select1stIS2_ESt4lessImESaIS2_EEC2ERKS8_
FN:983,_ZNSt8_Rb_treeImSt4pairIKmmESt10_Select1stIS2_ESt4lessImESaIS2_EED2Ev
FNDA:2447,_ZNSt8_Rb_treeImSt4pairIKmmESt10_Select1stIS2_ESt4lessImESaIS2_EED2Ev
FN:1845,_ZNSt8_Rb_treeImSt4pairIKmmESt10_Select1stIS2_ESt4lessImESaIS2_EE7_M_copyILb0ENS8_11_Alloc_nodeEEEPSt13_Rb_tree_nodeIS2_ESD_PSt18_Rb_tree_node_baseRT0_
FNDA:642,_ZNSt8_Rb_treeImSt4pairIKmmESt10_Select1stIS2_ESt4lessImESaIS2_EE7_M_copyILb0ENS8_11_Alloc_nodeEEEPSt13_Rb_tree_nodeIS2_ESD_PSt18_Rb_tree_node_baseRT0_
FN:1883,_ZNSt8_Rb_treeImSt4pairIKmmESt10_Select1stIS2_ESt4lessImESaIS2_EE8_M_eraseEPSt13_Rb_tree_nodeIS2_E
FNDA:3159,_ZNSt8_Rb_treeImSt4pairIKmmESt10_Select1stIS2_ESt4lessImESaIS2_EE8_M_eraseEPSt13_Rb_tree_nodeIS2_E
DA:112,591
DA:114,610
DA:115,591
DA:126,591
DA:128,642
DA:129,591
DA:152,2409
DA:154,2409
DA:173,2458
DA:174,2458
DA:175,2458
DA:176,2458
DA:177,2458
DA:206,2485
DA:208,2485
DA:209,2485
DA:210,2485
DA:211,2485
DA:212,2485
DA:234,2081
DA:235,2081
DA:523,591
DA:524,591
DA:528,661
DA:529,661
DA:547,2756
DA:548,2756
DA:560,689
DA:561,689
DA:564,689
DA:565,689
DA:590,661
DA:594,661
DA:595,661
DA:605,661
DA:609,661
DA:611,661
DA:612,661
DA:613,661
DA:618,689
DA:623,689
DA:624,689
DA:626,689
DA:629,689
DA:631,689
DA:632,689
DA:633,689
DA:637,661
DA:645,661
DA:646,661
DA:647,661
DA:648,661
DA:649,661
DA:674,2409
DA:676,2409
DA:677,2409
DA:678,2409
DA:710,591
DA:711,591
DA:714,2409
DA:715,2409
DA:718,597
DA:719,597
DA:726,605
DA:727,605
DA:734,3119
DA:735,3119
DA:738,2528
DA:739,2528
DA:749,700
DA:750,700
DA:779,1357
DA:780,1357
DA:787,750
DA:788,750
DA:799,591
DA:800,591
DA:807,591
DA:808,591
DA:887,591
DA:890,591
DA:891,591
DA:892,591
DA:893,591
DA:894,591
DA:898,591
DA:900,591
DA:901,1182
DA:935,2409
DA:936,2409
DA:938,2409
DA:939,591
DA:940,2409
DA:983,2447
DA:984,2447
DA:1845,642
DA:1849,642
DA:1850,642
DA:1854,642
DA:1855,51
DA:1856,51
DA:1857,642
DA:1858,642
DA:1860,661
DA:1862,19
DA:1863,19
DA:1864,19
DA:1865,19
DA:1866,0
DA:1868,19
DA:1869,19
DA:1872,0
DA:1874,0
DA:1875,0
DA:1877,642
DA:1883,3159
DA:1887,3845
DA:1889,686
DA:1890,686
DA:1891,686
DA:1892,686
DA:1894,3159
end_of_record
TN:
SF:/home/imri/OS-FinalProject/GraphObj/edge.hpp
FN:21,_ZN4EdgeC2Ev
FNDA:6,_ZN4EdgeC2Ev
DA:21,6
end_of_record
SF:/usr/include/c++/11/iostream
end_of_record
SF:/usr/include/c++/11/bits/move.h
FN:49,_ZSt11__addressofISt6vectorImSaImEEEPT_RS3_
FNDA:0,_ZSt11__addressofISt6vectorImSaImEEEPT_RS3_
FN:49,_ZSt11__addressofI4EdgeEPT_RS1_
FNDA:0,_ZSt11__addressofI4EdgeEPT_RS1_
FN:77,_ZSt7forwardIRKSt6vectorImSaImEEEOT_RNSt16remove_referenceIS5_E4typeE
FNDA:0,_ZSt7forwardIRKSt6vectorImSaImEEEOT_RNSt16remove_referenceIS5_E4typeE
FN:77,_ZSt7forwardISt6vectorIS0_ImSaImEESaIS2_EEEOT_RNSt16remove_referenceIS5_E4typeE
FNDA:0,_ZSt7forwardISt6vectorIS0_ImSaImEESaIS2_EEEOT_RNSt16remove_referenceIS5_E4typeE
FN:104,_ZSt4moveIRSaISt6vectorImSaImEEEEONSt16remove_referenceIT_E4typeEOS6_
FNDA:0,_ZSt4moveIRSaISt6vectorImSaImEEEEONSt16remove_referenceIT_E4typeEOS6_
FN:104,_ZSt4moveIRSt6vectorIS0_ImSaImEESaIS2_EEEONSt16remove_referenceIT_E4typeEOS7_
FNDA:0,_ZSt4moveIRSt6vectorIS0_ImSaImEESaIS2_EEEONSt16remove_referenceIT_E4typeEOS7_
DA:49,0
DA:50,0
DA:49,0
DA:50,0
DA:77,0
DA:78,0
DA:77,0
DA:78,0
DA:104,0
DA:105,0
DA:104,0
DA:105,0
end_of_record
SF:/home/imri/OS-FinalProject/GraphObj/vertex.hpp
FN:29,_ZN6VertexC2Ev
FNDA:0,_ZN6VertexC2Ev
DA:29,0
end_of_record
SF:/home/imri/OS-FinalProject/DataStruct/UnionFind.hpp
end_of_record
SF:/usr/include/c++/11/ext/aligned_buffer.h
FN:64,_ZN9__gnu_cxx16__aligned_membufISt4pairIKmmEE7_M_addrEv
FNDA:0,_ZN9__gnu_cxx16__aligned_membufISt4pairIKmmEE7_M_addrEv
FN:72,_ZN9__gnu_cxx16__aligned_membufISt4pairIKmmEE6_M_ptrEv
FNDA:0,_ZN9__gnu_cxx16__aligned_membufISt4pairIKmmEE6_M_ptrEv
FN:102,_ZN9__gnu_cxx16__aligned_bufferI4EdgeE7_M_addrEv
FNDA:0,_ZN9__gnu_cxx16__aligned_bufferI4EdgeE7_M_addrEv
FN:114,_ZN9__gnu_cxx16__aligned_bufferI4EdgeE6_M_ptrEv
FNDA:0,_ZN9__gnu_cxx16__aligned_bufferI4EdgeE6_M_ptrEv
DA:64,0
DA:65,0
DA:72,0
DA:73,0
DA:102,0
DA:104,0
DA:114,0
DA:115,0
end_of_record
SF:/usr/include/c++/11/bits/stl_map.h
FN:185,_ZNSt3mapImmSt4lessImESaISt4pairIKmmEEEC2Ev
FNDA:0,_ZNSt3mapImmSt4lessImESaISt4pairIKmmEEEC2Ev
FN:302,_ZNSt3mapImmSt4lessImESaISt4pairIKmmEEED2Ev
FNDA:0,_ZNSt3mapImmSt4lessImESaISt4pairIKmmEEED2Ev
DA:185,0
DA:302,0
end_of_record
SF:/usr/include/c++/11/bits/stl_uninitialized.h
FN:85,_ZNSt20__uninitialized_copyILb0EE13__uninit_copyIN9__gnu_cxx17__normal_iteratorIPKSt6vectorImSaImEES4_IS6_SaIS6_EEEEPS6_EET0_T_SE_SD_
FNDA:0,_ZNSt20__uninitialized_copyILb0EE13__uninit_copyIN9__gnu_cxx17__normal_iteratorIPKSt6vectorImSaImEES4_IS6_SaIS6_EEEEPS6_EET0_T_SE_SD_
FN:108,_ZNSt20__uninitialized_copyILb1EE13__uninit_copyIN9__gnu_cxx17__normal_iteratorIPKmSt6vectorImSaImEEEEPmEET0_T_SC_SB_
FNDA:0,_ZNSt20__uninitialized_copyILb1EE13__uninit_copyIN9__gnu_cxx17__normal_iteratorIPKmSt6vectorImSaImEEEEPmEET0_T_SC_SB_
FN:126,_ZSt18uninitialized_copyIN9__gnu_cxx17__normal_iteratorIPKmSt6vectorImSaImEEEEPmET0_T_SA_S9_
FNDA:0,_ZSt18uninitialized_copyIN9__gnu_cxx17__normal_iteratorIPKmSt6vectorImSaImEEEEPmET0_T_SA_S9_
FN:126,_ZSt18uninitialized_copyIN9__gnu_cxx17__normal_iteratorIPKSt6vectorImSaImEES2_IS4_SaIS4_EEEEPS4_ET0_T_SC_SB_
FNDA:0,_ZSt18uninitialized_copyIN9__gnu_cxx17__normal_iteratorIPKSt6vectorImSaImEES2_IS4_SaIS4_EEEEPS4_ET0_T_SC_SB_
FN:331,_ZSt22__uninitialized_copy_aIN9__gnu_cxx17__normal_iteratorIPKmSt6vectorImSaImEEEEPmmET0_T_SA_S9_RSaIT1_E
FNDA:0,_ZSt22__uninitialized_copy_aIN9__gnu_cxx17__normal_iteratorIPKmSt6vectorImSaImEEEEPmmET0_T_SA_S9_RSaIT1_E
FN:331,_ZSt22__uninitialized_copy_aIN9__gnu_cxx17__normal_iteratorIPKSt6vectorImSaImEES2_IS4_SaIS4_EEEEPS4_S4_ET0_T_SC_SB_RSaIT1_E
FNDA:0,_ZSt22__uninitialized_copy_aIN9__gnu_cxx17__normal_iteratorIPKSt6vectorImSaImEES2_IS4_SaIS4_EEEEPS4_S4_ET0_T_SC_SB_RSaIT1_E
FN:573,_ZNSt27__uninitialized_default_n_1ILb0EE18__uninit_default_nIP4EdgemEET_S4_T0_
FNDA:1,_ZNSt27__uninitialized_default_n_1ILb0EE18__uninit_default_nIP4EdgemEET_S4_T0_
FN:630,_ZSt25__uninitialized_default_nIP4EdgemET_S2_T0_
FNDA:1,_ZSt25__uninitialized_default_nIP4EdgemET_S2_T0_
FN:702,_ZSt27__uninitialized_default_n_aIP4EdgemS0_ET_S2_T0_RSaIT1_E
FNDA:1,_ZSt27__uninitialized_default_n_aIP4EdgemS0_ET_S2_T0_RSaIT1_E
DA:85,0
DA:88,0
DA:91,0
DA:92,0
DA:93,0
DA:95,0
DA:97,0
DA:98,0
DA:108,0
DA:110,0
DA:126,0
DA:145,0
DA:151,0
DA:126,0
DA:145,0
DA:151,0
DA:331,0
DA:333,0
DA:331,0
DA:333,0
DA:573,1
DA:575,1
DA:578,4
DA:579,3
DA:580,1
DA:630,1
DA:635,1
DA:640,1
DA:702,1
DA:704,1
end_of_record
SF:/usr/include/c++/11/bits/stl_iterator.h
FN:1027,_ZN9__gnu_cxx17__normal_iteratorIPKmSt6vectorImSaImEEEC2ERKS2_
FNDA:0,_ZN9__gnu_cxx17__normal_iteratorIPKmSt6vectorImSaImEEEC2ERKS2_
FN:1027,_ZN9__gnu_cxx17__normal_iteratorIPKSt6vectorImSaImEES1_IS3_SaIS3_EEEC2ERKS5_
FNDA:0,_ZN9__gnu_cxx17__normal_iteratorIPKSt6vectorImSaImEES1_IS3_SaIS3_EEEC2ERKS5_
FN:1042,_ZNK9__gnu_cxx17__normal_iteratorIPKSt6vectorImSaImEES1_IS3_SaIS3_EEEdeEv
FNDA:0,_ZNK9__gnu_cxx17__normal_iteratorIPKSt6vectorImSaImEES1_IS3_SaIS3_EEEdeEv
FN:1052,_ZN9__gnu_cxx17__normal_iteratorIPKSt6vectorImSaImEES1_IS3_SaIS3_EEEppEv
FNDA:0,_ZN9__gnu_cxx17__normal_iteratorIPKSt6vectorImSaImEES1_IS3_SaIS3_EEEppEv
FN:1105,_ZNK9__gnu_cxx17__normal_iteratorIPKmSt6vectorImSaImEEE4baseEv
FNDA:0,_ZNK9__gnu_cxx17__normal_iteratorIPKmSt6vectorImSaImEEE4baseEv
FN:1105,_ZNK9__gnu_cxx17__normal_iteratorIPKSt6vectorImSaImEES1_IS3_SaIS3_EEE4baseEv
FNDA:0,_ZNK9__gnu_cxx17__normal_iteratorIPKSt6vectorImSaImEES1_IS3_SaIS3_EEE4baseEv
FN:1179,_ZN9__gnu_cxxneIPKSt6vectorImSaImEES1_IS3_SaIS3_EEEEbRKNS_17__normal_iteratorIT_T0_EESD_
FNDA:0,_ZN9__gnu_cxxneIPKSt6vectorImSaImEES1_IS3_SaIS3_EEEEbRKNS_17__normal_iteratorIT_T0_EESD_
FN:1291,_ZSt12__niter_baseIPKmSt6vectorImSaImEEET_N9__gnu_cxx17__normal_iteratorIS5_T0_EE
FNDA:0,_ZSt12__niter_baseIPKmSt6vectorImSaImEEET_N9__gnu_cxx17__normal_iteratorIS5_T0_EE
DA:1027,0
DA:1028,0
DA:1027,0
DA:1028,0
DA:1042,0
DA:1043,0
DA:1052,0
DA:1054,0
DA:1055,0
DA:1105,0
DA:1106,0
DA:1105,0
DA:1106,0
DA:1179,0
DA:1182,0
DA:1291,0
DA:1293,0
end_of_record
SF:/usr/include/c++/11/ext/alloc_traits.h
FN:97,_ZN9__gnu_cxx14__alloc_traitsISaImEmE17_S_select_on_copyERKS1_
FNDA:0,_ZN9__gnu_cxx14__alloc_traitsISaImEmE17_S_select_on_copyERKS1_
FN:97,_ZN9__gnu_cxx14__alloc_traitsISaISt6vectorImSaImEEES3_E17_S_select_on_copyERKS4_
FNDA:0,_ZN9__gnu_cxx14__alloc_traitsISaISt6vectorImSaImEEES3_E17_S_select_on_copyERKS4_
DA:97,0
DA:98,0
DA:97,0
DA:98,0
end_of_record
SF:/usr/include/c++/11/limits
FN:1274,_ZNSt14numeric_limitsImE3maxEv
FNDA:3,_ZNSt14numeric_limitsImE3maxEv
DA:1274,3
end_of_record
SF:/usr/include/c++/11/bits/stl_vector.h
FN:97,_ZNSt12_Vector_baseImSaImEE17_Vector_impl_dataC2Ev
FNDA:0,_ZNSt12_Vector_baseImSaImEE17_Vector_impl_dataC2Ev
FN:97,_ZNSt12_Vector_baseI4EdgeSaIS0_EE17_Vector_impl_dataC2Ev
FNDA:0,_ZNSt12_Vector_baseI4EdgeSaIS0_EE17_Vector_impl_dataC2Ev
FN:97,_ZNSt12_Vector_baseISt6vectorImSaImEESaIS2_EE17_Vector_impl_dataC2Ev
FNDA:0,_ZNSt12_Vector_baseISt6vectorImSaImEESaIS2_EE17_Vector_impl_dataC2Ev
FN:109,_ZNSt12_Vector_baseISt6vectorImSaImEESaIS2_EE17_Vector_impl_data12_M_copy_dataERKS5_
FNDA:0,_ZNSt12_Vector_baseISt6vectorImSaImEESaIS2_EE17_Vector_impl_data12_M_copy_dataERKS5_
FN:117,_ZNSt12_Vector_baseISt6vectorImSaImEESaIS2_EE17_Vector_impl_data12_M_swap_dataERS5_
FNDA:0,_ZNSt12_Vector_baseISt6vectorImSaImEESaIS2_EE17_Vector_impl_data12_M_swap_dataERS5_
FN:131,_ZNSt12_Vector_baseI4EdgeSaIS0_EE12_Vector_implC2Ev
FNDA:0,_ZNSt12_Vector_baseI4EdgeSaIS0_EE12_Vector_implC2Ev
FN:131,_ZNSt12_Vector_baseISt6vectorImSaImEESaIS2_EE12_Vector_implC2Ev
FNDA:0,_ZNSt12_Vector_baseISt6vectorImSaImEESaIS2_EE12_Vector_implC2Ev
FN:136,_ZNSt12_Vector_baseImSaImEE12_Vector_implC2ERKS0_
FNDA:0,_ZNSt12_Vector_baseImSaImEE12_Vector_implC2ERKS0_
FN:136,_ZNSt12_Vector_baseI4EdgeSaIS0_EE12_Vector_implC2ERKS1_
FNDA:0,_ZNSt12_Vector_baseI4EdgeSaIS0_EE12_Vector_implC2ERKS1_
FN:136,_ZNSt12_Vector_baseISt6vectorImSaImEESaIS2_EE12_Vector_implC2ERKS3_
FNDA:0,_ZNSt12_Vector_baseISt6vectorImSaImEESaIS2_EE12_Vector_implC2ERKS3_
FN:276,_ZNSt12_Vector_baseImSaImEE19_M_get_Tp_allocatorEv
FNDA:0,_ZNSt12_Vector_baseImSaImEE19_M_get_Tp_allocatorEv
FN:276,_ZNSt12_Vector_baseI4EdgeSaIS0_EE19_M_get_Tp_allocatorEv
FNDA:0,_ZNSt12_Vector_baseI4EdgeSaIS0_EE19_M_get_Tp_allocatorEv
FN:276,_ZNSt12_Vector_baseISt6vectorImSaImEESaIS2_EE19_M_get_Tp_allocatorEv
FNDA:0,_ZNSt12_Vector_baseISt6vectorImSaImEESaIS2_EE19_M_get_Tp_allocatorEv
FN:280,_ZNKSt12_Vector_baseISt6vectorImSaImEESaIS2_EE19_M_get_Tp_allocatorEv
FNDA:0,_ZNKSt12_Vector_baseISt6vectorImSaImEESaIS2_EE19_M_get_Tp_allocatorEv
FN:280,_ZNKSt12_Vector_baseImSaImEE19_M_get_Tp_allocatorEv
FNDA:0,_ZNKSt12_Vector_baseImSaImEE19_M_get_Tp_allocatorEv
FN:284,_ZNKSt12_Vector_baseISt6vectorImSaImEESaIS2_EE13get_allocatorEv
FNDA:0,_ZNKSt12_Vector_baseISt6vectorImSaImEESaIS2_EE13get_allocatorEv
FN:288,_ZNSt12_Vector_baseI4EdgeSaIS0_EEC2Ev
FNDA:0,_ZNSt12_Vector_baseI4EdgeSaIS0_EEC2Ev
FN:288,_ZNSt12_Vector_baseISt6vectorImSaImEESaIS2_EEC2Ev
FNDA:0,_ZNSt12_Vector_baseISt6vectorImSaImEESaIS2_EEC2Ev
FN:293,_ZNSt12_Vector_baseISt6vectorImSaImEESaIS2_EEC2ERKS3_
FNDA:0,_ZNSt12_Vector_baseISt6vectorImSaImEESaIS2_EEC2ERKS3_
FN:303,_ZNSt12_Vector_baseImSaImEEC2EmRKS0_
FNDA:0,_ZNSt12_Vector_baseImSaImEEC2EmRKS0_
FN:303,_ZNSt12_Vector_baseI4EdgeSaIS0_EEC2EmRKS1_
FNDA:0,_ZNSt12_Vector_baseI4EdgeSaIS0_EEC2EmRKS1_
FN:303,_ZNSt12_Vector_baseISt6vectorImSaImEESaIS2_EEC2EmRKS3_
FNDA:0,_ZNSt12_Vector_baseISt6vectorImSaImEESaIS2_EEC2EmRKS3_
FN:333,_ZNSt12_Vector_baseI4EdgeSaIS0_EED2Ev
FNDA:0,_ZNSt12_Vector_baseI4EdgeSaIS0_EED2Ev
FN:333,_ZNSt12_Vector_baseISt6vectorImSaImEESaIS2_EED2Ev
FNDA:0,_ZNSt12_Vector_baseISt6vectorImSaImEESaIS2_EED2Ev
FN:333,_ZNSt12_Vector_baseImSaImEED2Ev
FNDA:0,_ZNSt12_Vector_baseImSaImEED2Ev
FN:343,_ZNSt12_Vector_baseISt6vectorImSaImEESaIS2_EE11_M_allocateEm
FNDA:0,_ZNSt12_Vector_baseISt6vectorImSaImEESaIS2_EE11_M_allocateEm
FN:343,_ZNSt12_Vector_baseImSaImEE11_M_allocateEm
FNDA:0,_ZNSt12_Vector_baseImSaImEE11_M_allocateEm
FN:343,_ZNSt12_Vector_baseI4EdgeSaIS0_EE11_M_allocateEm
FNDA:0,_ZNSt12_Vector_baseI4EdgeSaIS0_EE11_M_allocateEm
FN:350,_ZNSt12_Vector_baseImSaImEE13_M_deallocateEPmm
FNDA:0,_ZNSt12_Vector_baseImSaImEE13_M_deallocateEPmm
FN:350,_ZNSt12_Vector_baseISt6vectorImSaImEESaIS2_EE13_M_deallocateEPS2_m
FNDA:0,_ZNSt12_Vector_baseISt6vectorImSaImEESaIS2_EE13_M_deallocateEPS2_m
FN:350,_ZNSt12_Vector_baseI4EdgeSaIS0_EE13_M_deallocateEPS0_m
FNDA:0,_ZNSt12_Vector_baseI4EdgeSaIS0_EE13_M_deallocateEPS0_m
FN:359,_ZNSt12_Vector_baseISt6vectorImSaImEESaIS2_EE17_M_create_storageEm
FNDA:0,_ZNSt12_Vector_baseISt6vectorImSaImEESaIS2_EE17_M_create_storageEm
FN:359,_ZNSt12_Vector_baseImSaImEE17_M_create_storageEm
FNDA:0,_ZNSt12_Vector_baseImSaImEE17_M_create_storageEm
FN:359,_ZNSt12_Vector_baseI4EdgeSaIS0_EE17_M_create_storageEm
FNDA:0,_ZNSt12_Vector_baseI4EdgeSaIS0_EE17_M_create_storageEm
FN:487,_ZNSt6vectorI4EdgeSaIS0_EEC2Ev
FNDA:0,_ZNSt6vectorI4EdgeSaIS0_EEC2Ev
FN:487,_ZNSt6vectorIS_ImSaImEESaIS1_EEC2Ev
FNDA:0,_ZNSt6vectorIS_ImSaImEESaIS1_EEC2Ev
FN:497,_ZNSt6vectorIS_ImSaImEESaIS1_EEC2ERKS2_
FNDA:0,_ZNSt6vectorIS_ImSaImEESaIS1_EEC2ERKS2_
FN:510,_ZNSt6vectorI4EdgeSaIS0_EEC2EmRKS1_
FNDA:1,_ZNSt6vectorI4EdgeSaIS0_EEC2EmRKS1_
FN:553,_ZNSt6vectorImSaImEEC2ERKS1_
FNDA:0,_ZNSt6vectorImSaImEEC2ERKS1_
FN:553,_ZNSt6vectorIS_ImSaImEESaIS1_EEC2ERKS3_
FNDA:0,_ZNSt6vectorIS_ImSaImEESaIS1_EEC2ERKS3_
FN:678,_ZNSt6vectorIS_ImSaImEESaIS1_EED2Ev
FNDA:0,_ZNSt6vectorIS_ImSaImEESaIS1_EED2Ev
FN:678,_ZNSt6vectorImSaImEED2Ev
FNDA:0,_ZNSt6vectorImSaImEED2Ev
FN:678,_ZNSt6vectorI4EdgeSaIS0_EED2Ev
FNDA:0,_ZNSt6vectorI4EdgeSaIS0_EED2Ev
FN:709,_ZNSt6vectorIS_ImSaImEESaIS1_EEaSEOS3_
FNDA:0,_ZNSt6vectorIS_ImSaImEESaIS1_EEaSEOS3_
FN:820,_ZNKSt6vectorImSaImEE5beginEv
FNDA:0,_ZNKSt6vectorImSaImEE5beginEv
FN:820,_ZNKSt6vectorIS_ImSaImEESaIS1_EE5beginEv
FNDA:0,_ZNKSt6vectorIS_ImSaImEESaIS1_EE5beginEv
FN:838,_ZNKSt6vectorImSaImEE3endEv
FNDA:0,_ZNKSt6vectorImSaImEE3endEv
FN:838,_ZNKSt6vectorIS_ImSaImEESaIS1_EE3endEv
FNDA:0,_ZNKSt6vectorIS_ImSaImEESaIS1_EE3endEv
FN:918,_ZNKSt6vectorImSaImEE4sizeEv
FNDA:0,_ZNKSt6vectorImSaImEE4sizeEv
FN:918,_ZNKSt6vectorIS_ImSaImEESaIS1_EE4sizeEv
FNDA:0,_ZNKSt6vectorIS_ImSaImEESaIS1_EE4sizeEv
FN:1043,_ZNSt6vectorI4EdgeSaIS0_EEixEm
FNDA:32,_ZNSt6vectorI4EdgeSaIS0_EEixEm
FN:1603,_ZNSt6vectorI4EdgeSaIS0_EE21_M_default_initializeEm
FNDA:1,_ZNSt6vectorI4EdgeSaIS0_EE21_M_default_initializeEm
FN:1767,_ZNSt6vectorI4EdgeSaIS0_EE17_S_check_init_lenEmRKS1_
FNDA:2,_ZNSt6vectorI4EdgeSaIS0_EE17_S_check_init_lenEmRKS1_
FN:1776,_ZNSt6vectorI4EdgeSaIS0_EE11_S_max_sizeERKS1_
FNDA:0,_ZNSt6vectorI4EdgeSaIS0_EE11_S_max_sizeERKS1_
FN:1815,_ZNSt6vectorIS_ImSaImEESaIS1_EE14_M_move_assignEOS3_St17integral_constantIbLb1EE
FNDA:0,_ZNSt6vectorIS_ImSaImEESaIS1_EE14_M_move_assignEOS3_St17integral_constantIbLb1EE
DA:97,0
DA:98,0
DA:99,0
DA:97,0
DA:98,0
DA:99,0
DA:97,0
DA:98,0
DA:99,0
DA:109,0
DA:111,0
DA:112,0
DA:113,0
DA:114,0
DA:117,0
DA:121,0
DA:122,0
DA:123,0
DA:124,0
DA:125,0
DA:131,0
DA:133,0
DA:134,0
DA:131,0
DA:133,0
DA:134,0
DA:136,0
DA:137,0
DA:138,0
DA:136,0
DA:137,0
DA:138,0
DA:136,0
DA:137,0
DA:138,0
DA:276,0
DA:277,0
DA:276,0
DA:277,0
DA:276,0
DA:277,0
DA:280,0
DA:281,0
DA:280,0
DA:281,0
DA:284,0
DA:285,0
DA:288,0
DA:288,0
DA:293,0
DA:294,0
DA:303,0
DA:304,0
DA:305,0
DA:303,0
DA:304,0
DA:305,0
DA:303,0
DA:304,0
DA:305,0
DA:333,0
DA:335,0
DA:336,0
DA:337,0
DA:333,0
DA:335,0
DA:336,0
DA:337,0
DA:333,0
DA:335,0
DA:336,0
DA:337,0
DA:343,0
DA:346,0
DA:343,0
DA:346,0
DA:343,0
DA:346,0
DA:350,0
DA:353,0
DA:354,0
DA:355,0
DA:350,0
DA:353,0
DA:354,0
DA:355,0
DA:350,0
DA:353,0
DA:354,0
DA:355,0
DA:359,0
DA:361,0
DA:362,0
DA:363,0
DA:364,0
DA:359,0
DA:361,0
DA:362,0
DA:363,0
DA:364,0
DA:359,0
DA:361,0
DA:362,0
DA:363,0
DA:364,0
DA:487,0
DA:487,0
DA:497,0
DA:498,0
DA:510,1
DA:511,1
DA:512,1
DA:553,0
DA:555,0
DA:557,0
DA:558,0
DA:560,0
DA:561,0
DA:553,0
DA:555,0
DA:557,0
DA:558,0
DA:560,0
DA:561,0
DA:678,0
DA:680,0
DA:681,0
DA:683,0
DA:678,0
DA:680,0
DA:681,0
DA:683,0
DA:678,0
DA:680,0
DA:681,0
DA:683,0
DA:709,0
DA:711,0
DA:714,0
DA:715,0
DA:820,0
DA:821,0
DA:820,0
DA:821,0
DA:838,0
DA:839,0
DA:838,0
DA:839,0
DA:918,0
DA:919,0
DA:918,0
DA:919,0
DA:1043,32
DA:1046,32
DA:1603,1
DA:1605,1
DA:1606,1
DA:1607,1
DA:1608,1
DA:1767,2
DA:1769,2
DA:1770,0
DA:1772,2
DA:1776,0
DA:1781,0
DA:1783,0
DA:1784,0
DA:1815,0
DA:1817,0
DA:1818,0
DA:1819,0
DA:1820,0
DA:1821,0
end_of_record
SF:/usr/include/c++/11/ext/new_allocator.h
FN:79,_ZN9__gnu_cxx13new_allocatorI4EdgeEC2Ev
FNDA:0,_ZN9__gnu_cxx13new_allocatorI4EdgeEC2Ev
FN:79,_ZN9__gnu_cxx13new_allocatorISt13_Rb_tree_nodeISt4pairIKmmEEEC2Ev
FNDA:0,_ZN9__gnu_cxx13new_allocatorISt13_Rb_tree_nodeISt4pairIKmmEEEC2Ev
FN:79,_ZN9__gnu_cxx13new_allocatorISt6vectorImSaImEEEC2Ev
FNDA:0,_ZN9__gnu_cxx13new_allocatorISt6vectorImSaImEEEC2Ev
FN:82,_ZN9__gnu_cxx13new_allocatorImEC2ERKS1_
FNDA:0,_ZN9__gnu_cxx13new_allocatorImEC2ERKS1_
FN:82,_ZN9__gnu_cxx13new_allocatorISt6vectorImSaImEEEC2ERKS4_
FNDA:0,_ZN9__gnu_cxx13new_allocatorISt6vectorImSaImEEEC2ERKS4_
FN:82,_ZN9__gnu_cxx13new_allocatorI4EdgeEC2ERKS2_
FNDA:0,_ZN9__gnu_cxx13new_allocatorI4EdgeEC2ERKS2_
FN:89,_ZN9__gnu_cxx13new_allocatorI4EdgeED2Ev
FNDA:0,_ZN9__gnu_cxx13new_allocatorI4EdgeED2Ev
FN:89,_ZN9__gnu_cxx13new_allocatorISt13_Rb_tree_nodeISt4pairIKmmEEED2Ev
FNDA:0,_ZN9__gnu_cxx13new_allocatorISt13_Rb_tree_nodeISt4pairIKmmEEED2Ev
FN:89,_ZN9__gnu_cxx13new_allocatorISt6vectorImSaImEEED2Ev
FNDA:0,_ZN9__gnu_cxx13new_allocatorISt6vectorImSaImEEED2Ev
FN:89,_ZN9__gnu_cxx13new_allocatorImED2Ev
FNDA:0,_ZN9__gnu_cxx13new_allocatorImED2Ev
FN:103,_ZN9__gnu_cxx13new_allocatorISt6vectorImSaImEEE8allocateEmPKv
FNDA:0,_ZN9__gnu_cxx13new_allocatorISt6vectorImSaImEEE8allocateEmPKv
FN:103,_ZN9__gnu_cxx13new_allocatorI4EdgeE8allocateEmPKv
FNDA:0,_ZN9__gnu_cxx13new_allocatorI4EdgeE8allocateEmPKv
FN:103,_ZN9__gnu_cxx13new_allocatorImE8allocateEmPKv
FNDA:0,_ZN9__gnu_cxx13new_allocatorImE8allocateEmPKv
FN:132,_ZN9__gnu_cxx13new_allocatorImE10deallocateEPmm
FNDA:0,_ZN9__gnu_cxx13new_allocatorImE10deallocateEPmm
FN:132,_ZN9__gnu_cxx13new_allocatorI4EdgeE10deallocateEPS1_m
FNDA:0,_ZN9__gnu_cxx13new_allocatorI4EdgeE10deallocateEPS1_m
FN:132,_ZN9__gnu_cxx13new_allocatorISt6vectorImSaImEEE10deallocateEPS3_m
FNDA:0,_ZN9__gnu_cxx13new_allocatorISt6vectorImSaImEEE10deallocateEPS3_m
FN:132,_ZN9__gnu_cxx13new_allocatorISt13_Rb_tree_nodeISt4pairIKmmEEE10deallocateEPS5_m
FNDA:0,_ZN9__gnu_cxx13new_allocatorISt13_Rb_tree_nodeISt4pairIKmmEEE10deallocateEPS5_m
FN:154,_ZNK9__gnu_cxx13new_allocatorI4EdgeE8max_sizeEv
FNDA:0,_ZNK9__gnu_cxx13new_allocatorI4EdgeE8max_sizeEv
FN:166,_ZN9__gnu_cxx13new_allocatorISt13_Rb_tree_nodeISt4pairIKmmEEE7destroyIS4_EEvPT_
FNDA:0,_ZN9__gnu_cxx13new_allocatorISt13_Rb_tree_nodeISt4pairIKmmEEE7destroyIS4_EEvPT_
FN:197,_ZNK9__gnu_cxx13new_allocatorI4EdgeE11_M_max_sizeEv
FNDA:0,_ZNK9__gnu_cxx13new_allocatorI4EdgeE11_M_max_sizeEv
FN:197,_ZNK9__gnu_cxx13new_allocatorISt6vectorImSaImEEE11_M_max_sizeEv
FNDA:0,_ZNK9__gnu_cxx13new_allocatorISt6vectorImSaImEEE11_M_max_sizeEv
FN:197,_ZNK9__gnu_cxx13new_allocatorImE11_M_max_sizeEv
FNDA:0,_ZNK9__gnu_cxx13new_allocatorImE11_M_max_sizeEv
DA:79,0
DA:79,0
DA:79,0
DA:82,0
DA:82,0
DA:82,0
DA:89,0
DA:89,0
DA:89,0
DA:89,0
DA:103,0
DA:111,0
DA:115,0
DA:116,0
DA:117,0
DA:127,0
DA:103,0
DA:111,0
DA:115,0
DA:116,0
DA:117,0
DA:127,0
DA:103,0
DA:111,0
DA:115,0
DA:116,0
DA:117,0
DA:127,0
DA:132,0
DA:145,0
DA:132,0
DA:145,0
DA:132,0
DA:145,0
DA:132,0
DA:145,0
DA:154,0
DA:155,0
DA:166,0
DA:168,0
DA:197,0
DA:200,0
DA:197,0
DA:200,0
DA:197,0
DA:200,0
end_of_record
SF:/home/imri/OS-FinalProject/MST/Boruvka.hpp
end_of_record
SF:/usr/include/c++/11/bits/alloc_traits.h
FN:463,_ZNSt16allocator_traitsISaImEE8allocateERS0_m
FNDA:0,_ZNSt16allocator_traitsISaImEE8allocateERS0_m
FN:463,_ZNSt16allocator_traitsISaISt6vectorImSaImEEEE8allocateERS3_m
FNDA:0,_ZNSt16allocator_traitsISaISt6vectorImSaImEEEE8allocateERS3_m
FN:463,_ZNSt16allocator_traitsISaI4EdgeEE8allocateERS1_m
FNDA:0,_ZNSt16allocator_traitsISaI4EdgeEE8allocateERS1_m
FN:495,_ZNSt16allocator_traitsISaISt13_Rb_tree_nodeISt4pairIKmmEEEE10deallocateERS5_PS4_m
FNDA:0,_ZNSt16allocator_traitsISaISt13_Rb_tree_nodeISt4pairIKmmEEEE10deallocateERS5_PS4_m
FN:495,_ZNSt16allocator_traitsISaImEE10deallocateERS0_Pmm
FNDA:0,_ZNSt16allocator_traitsISaImEE10deallocateERS0_Pmm
FN:495,_ZNSt16allocator_traitsISaISt6vectorImSaImEEEE10deallocateERS3_PS2_m
FNDA:0,_ZNSt16allocator_traitsISaISt6vectorImSaImEEEE10deallocateERS3_PS2_m
FN:495,_ZNSt16allocator_traitsISaI4EdgeEE10deallocateERS1_PS0_m
FNDA:0,_ZNSt16allocator_traitsISaI4EdgeEE10deallocateERS1_PS0_m
FN:531,_ZNSt16allocator_traitsISaISt13_Rb_tree_nodeISt4pairIKmmEEEE7destroyIS3_EEvRS5_PT_
FNDA:0,_ZNSt16allocator_traitsISaISt13_Rb_tree_nodeISt4pairIKmmEEEE7destroyIS3_EEvRS5_PT_
FN:547,_ZNSt16allocator_traitsISaI4EdgeEE8max_sizeERKS1_
FNDA:0,_ZNSt16allocator_traitsISaI4EdgeEE8max_sizeERKS1_
FN:562,_ZNSt16allocator_traitsISaImEE37select_on_container_copy_constructionERKS0_
FNDA:0,_ZNSt16allocator_traitsISaImEE37select_on_container_copy_constructionERKS0_
FN:562,_ZNSt16allocator_traitsISaISt6vectorImSaImEEEE37select_on_container_copy_constructionERKS3_
FNDA:0,_ZNSt16allocator_traitsISaISt6vectorImSaImEEEE37select_on_container_copy_constructionERKS3_
FN:710,_ZSt15__alloc_on_moveISaISt6vectorImSaImEEEEvRT_S5_
FNDA:0,_ZSt15__alloc_on_moveISaISt6vectorImSaImEEEEvRT_S5_
FN:845,_ZSt8_DestroyIPSt6vectorImSaImEES2_EvT_S4_RSaIT0_E
FNDA:0,_ZSt8_DestroyIPSt6vectorImSaImEES2_EvT_S4_RSaIT0_E
FN:845,_ZSt8_DestroyIP4EdgeS0_EvT_S2_RSaIT0_E
FNDA:0,_ZSt8_DestroyIP4EdgeS0_EvT_S2_RSaIT0_E
FN:845,_ZSt8_DestroyIPmmEvT_S1_RSaIT0_E
FNDA:0,_ZSt8_DestroyIPmmEvT_S1_RSaIT0_E
DA:463,0
DA:464,0
DA:463,0
DA:464,0
DA:463,0
DA:464,0
DA:495,0
DA:496,0
DA:495,0
DA:496,0
DA:495,0
DA:496,0
DA:495,0
DA:496,0
DA:531,0
DA:535,0
DA:539,0
DA:547,0
DA:550,0
DA:562,0
DA:563,0
DA:562,0
DA:563,0
DA:710,0
DA:716,0
DA:720,0
DA:845,0
DA:848,0
DA:849,0
DA:845,0
DA:848,0
DA:849,0
DA:845,0
DA:848,0
DA:849,0
end_of_record
SF:/usr/include/c++/11/bits/stl_pair.h
end_of_record
SF:/usr/include/c++/11/bits/allocator.h
FN:156,_ZNSaISt6vectorImSaImEEEC2Ev
FNDA:0,_ZNSaISt6vectorImSaImEEEC2Ev
FN:156,_ZNSaISt13_Rb_tree_nodeISt4pairIKmmEEEC2Ev
FNDA:0,_ZNSaISt13_Rb_tree_nodeISt4pairIKmmEEEC2Ev
FN:156,_ZNSaI4EdgeEC2Ev
FNDA:0,_ZNSaI4EdgeEC2Ev
FN:159,_ZNSaImEC2ERKS_
FNDA:0,_ZNSaImEC2ERKS_
FN:159,_ZNSaISt6vectorImSaImEEEC2ERKS2_
FNDA:0,_ZNSaISt6vectorImSaImEEEC2ERKS2_
FN:159,_ZNSaI4EdgeEC2ERKS0_
FNDA:0,_ZNSaI4EdgeEC2ERKS0_
FN:174,_ZNSaImED2Ev
FNDA:0,_ZNSaImED2Ev
FN:174,_ZNSaISt6vectorImSaImEEED2Ev
FNDA:0,_ZNSaISt6vectorImSaImEEED2Ev
FN:174,_ZNSaISt13_Rb_tree_nodeISt4pairIKmmEEED2Ev
FNDA:0,_ZNSaISt13_Rb_tree_nodeISt4pairIKmmEEED2Ev
FN:174,_ZNSaI4EdgeED2Ev
FNDA:0,_ZNSaI4EdgeED2Ev
DA:156,0
DA:156,0
DA:156,0
DA:159,0
DA:160,0
DA:159,0
DA:160,0
DA:159,0
DA:160,0
DA:174,0
DA:174,0
DA:174,0
DA:174,0
end_of_record
SF:/home/imri/OS-FinalProject/MST/MST_Strategy.hpp
FN:8,_ZN12MST_StrategyD0Ev
FNDA:0,_ZN12MST_StrategyD0Ev
FN:8,_ZN12MST_StrategyD2Ev
FNDA:4,_ZN12MST_StrategyD2Ev
DA:8,0
DA:8,4
end_of_record
SF:/usr/include/c++/11/tuple
FN:192,_ZNSt10_Head_baseILm1ERSt6vectorIS0_ImSaImEESaIS2_EELb0EEC2ES5_
FNDA:0,_ZNSt10_Head_baseILm1ERSt6vectorIS0_ImSaImEESaIS2_EELb0EEC2ES5_
FN:192,_ZNSt10_Head_baseILm0ERSt6vectorIS0_ImSaImEESaIS2_EELb0EEC2ES5_
FNDA:0,_ZNSt10_Head_baseILm0ERSt6vectorIS0_ImSaImEESaIS2_EELb0EEC2ES5_
FN:233,_ZNSt10_Head_baseILm1ERSt6vectorIS0_ImSaImEESaIS2_EELb0EE7_M_headERS6_
FNDA:0,_ZNSt10_Head_baseILm1ERSt6vectorIS0_ImSaImEESaIS2_EELb0EE7_M_headERS6_
FN:233,_ZNSt10_Head_baseILm0ERSt6vectorIS0_ImSaImEESaIS2_EELb0EE7_M_headERS6_
FNDA:0,_ZNSt10_Head_baseILm0ERSt6vectorIS0_ImSaImEESaIS2_EELb0EE7_M_headERS6_
FN:268,_ZNSt11_Tuple_implILm0EJRSt6vectorIS0_ImSaImEESaIS2_EES5_EE7_M_headERS6_
FNDA:0,_ZNSt11_Tuple_implILm0EJRSt6vectorIS0_ImSaImEESaIS2_EES5_EE7_M_headERS6_
FN:274,_ZNSt11_Tuple_implILm0EJRSt6vectorIS0_ImSaImEESaIS2_EES5_EE7_M_tailERS6_
FNDA:0,_ZNSt11_Tuple_implILm0EJRSt6vectorIS0_ImSaImEESaIS2_EES5_EE7_M_tailERS6_
FN:283,_ZNSt11_Tuple_implILm0EJRSt6vectorIS0_ImSaImEESaIS2_EES5_EEC2ES5_S5_
FNDA:0,_ZNSt11_Tuple_implILm0EJRSt6vectorIS0_ImSaImEESaIS2_EES5_EEC2ES5_S5_
FN:424,_ZNSt11_Tuple_implILm1EJRSt6vectorIS0_ImSaImEESaIS2_EEEE7_M_headERS6_
FNDA:0,_ZNSt11_Tuple_implILm1EJRSt6vectorIS0_ImSaImEESaIS2_EEEE7_M_headERS6_
FN:434,_ZNSt11_Tuple_implILm1EJRSt6vectorIS0_ImSaImEESaIS2_EEEEC2ES5_
FNDA:0,_ZNSt11_Tuple_implILm1EJRSt6vectorIS0_ImSaImEESaIS2_EEEEC2ES5_
FN:1063,_ZNSt5tupleIJRSt6vectorIS0_ImSaImEESaIS2_EES5_EEC2ILb1ELb1EEES5_S5_
FNDA:0,_ZNSt5tupleIJRSt6vectorIS0_ImSaImEESaIS2_EES5_EEC2ILb1ELb1EEES5_S5_
FN:1321,_ZNSt5tupleIJRSt6vectorIS0_ImSaImEESaIS2_EES5_EEaSIS4_S4_EENSt9enable_ifIXcl12__assignableIT_T0_EEERS6_E4typeEOSt4pairIS9_SA_E
FNDA:0,_ZNSt5tupleIJRSt6vectorIS0_ImSaImEESaIS2_EES5_EEaSIS4_S4_EENSt9enable_ifIXcl12__assignableIT_T0_EEERS6_E4typeEOSt4pairIS9_SA_E
FN:1746,_ZSt3tieIJSt6vectorIS0_ImSaImEESaIS2_EES4_EESt5tupleIJDpRT_EES8_
FNDA:0,_ZSt3tieIJSt6vectorIS0_ImSaImEESaIS2_EES4_EESt5tupleIJDpRT_EES8_
DA:192,0
DA:193,0
DA:192,0
DA:193,0
DA:233,0
DA:233,0
DA:268,0
DA:274,0
DA:283,0
DA:284,0
DA:285,0
DA:424,0
DA:434,0
DA:435,0
DA:436,0
DA:1063,0
DA:1065,0
DA:1321,0
DA:1324,0
DA:1325,0
DA:1326,0
DA:1746,0
DA:1747,0
end_of_record
SF:/usr/include/c++/11/bits/hashtable_policy.h
FN:237,_ZNSt8__detail21_Hash_node_value_baseI4EdgeE9_M_valptrEv
FNDA:0,_ZNSt8__detail21_Hash_node_value_baseI4EdgeE9_M_valptrEv
FN:245,_ZNSt8__detail21_Hash_node_value_baseI4EdgeE4_M_vEv
FNDA:0,_ZNSt8__detail21_Hash_node_value_baseI4EdgeE4_M_vEv
FN:282,_ZNKSt8__detail10_Hash_nodeI4EdgeLb1EE7_M_nextEv
FNDA:0,_ZNKSt8__detail10_Hash_nodeI4EdgeLb1EE7_M_nextEv
FN:299,_ZNSt8__detail19_Node_iterator_baseI4EdgeLb1EE7_M_incrEv
FNDA:0,_ZNSt8__detail19_Node_iterator_baseI4EdgeLb1EE7_M_incrEv
FN:309,_ZNSt8__detailneERKNS_19_Node_iterator_baseI4EdgeLb1EEES4_
FNDA:0,_ZNSt8__detailneERKNS_19_Node_iterator_baseI4EdgeLb1EEES4_
FN:342,_ZNKSt8__detail14_Node_iteratorI4EdgeLb1ELb1EEdeEv
FNDA:12,_ZNKSt8__detail14_Node_iteratorI4EdgeLb1ELb1EEdeEv
FN:346,_ZNKSt8__detail14_Node_iteratorI4EdgeLb1ELb1EEptEv
FNDA:12,_ZNKSt8__detail14_Node_iteratorI4EdgeLb1ELb1EEptEv
FN:350,_ZNSt8__detail14_Node_iteratorI4EdgeLb1ELb1EEppEv
FNDA:9,_ZNSt8__detail14_Node_iteratorI4EdgeLb1ELb1EEppEv
DA:237,0
DA:238,0
DA:245,0
DA:246,0
DA:282,0
DA:283,0
DA:299,0
DA:300,0
DA:309,0
DA:311,0
DA:342,12
DA:343,12
DA:346,12
DA:347,12
DA:350,9
DA:352,9
DA:353,9
end_of_record
SF:/usr/include/c++/11/bits/stl_construct.h
FN:109,_ZSt10_ConstructI4EdgeJEEvPT_DpOT0_
FNDA:3,_ZSt10_ConstructI4EdgeJEEvPT_DpOT0_
FN:109,_ZSt10_ConstructISt6vectorImSaImEEJRKS2_EEvPT_DpOT0_
FNDA:0,_ZSt10_ConstructISt6vectorImSaImEEJRKS2_EEvPT_DpOT0_
FN:146,_ZSt8_DestroyISt6vectorImSaImEEEvPT_
FNDA:0,_ZSt8_DestroyISt6vectorImSaImEEEvPT_
FN:146,_ZSt8_DestroyI4EdgeEvPT_
FNDA:0,_ZSt8_DestroyI4EdgeEvPT_
FN:160,_ZNSt12_Destroy_auxILb0EE9__destroyIPSt6vectorImSaImEEEEvT_S6_
FNDA:0,_ZNSt12_Destroy_auxILb0EE9__destroyIPSt6vectorImSaImEEEEvT_S6_
FN:160,_ZNSt12_Destroy_auxILb0EE9__destroyIP4EdgeEEvT_S4_
FNDA:0,_ZNSt12_Destroy_auxILb0EE9__destroyIP4EdgeEEvT_S4_
FN:172,_ZNSt12_Destroy_auxILb1EE9__destroyIPmEEvT_S3_
FNDA:0,_ZNSt12_Destroy_auxILb1EE9__destroyIPmEEvT_S3_
FN:182,_ZSt8_DestroyIPSt6vectorImSaImEEEvT_S4_
FNDA:0,_ZSt8_DestroyIPSt6vectorImSaImEEEvT_S4_
FN:182,_ZSt8_DestroyIP4EdgeEvT_S2_
FNDA:0,_ZSt8_DestroyIP4EdgeEvT_S2_
FN:182,_ZSt8_DestroyIPmEvT_S1_
FNDA:0,_ZSt8_DestroyIPmEvT_S1_
DA:109,3
DA:119,3
DA:120,3
DA:109,0
DA:119,0
DA:120,0
DA:146,0
DA:151,0
DA:153,0
DA:146,0
DA:151,0
DA:153,0
DA:160,0
DA:162,0
DA:163,0
DA:164,0
DA:160,0
DA:162,0
DA:163,0
DA:164,0
DA:172,0
DA:182,0
DA:196,0
DA:197,0
DA:182,0
DA:196,0
DA:197,0
DA:182,0
DA:196,0
DA:197,0
end_of_record
SF:/usr/include/c++/11/new
FN:174,_ZnwmPv
FNDA:0,_ZnwmPv
FN:180,_ZdlPvS_
FNDA:0,_ZdlPvS_
DA:174,0
DA:175,0
DA:180,0
end_of_record
SF:/usr/include/c++/11/bits/stl_algobase.h
FN:230,_ZSt3minImERKT_S2_S2_
FNDA:0,_ZSt3minImERKT_S2_S2_
FN:313,_ZSt12__niter_baseIPmET_S1_
FNDA:0,_ZSt12__niter_baseIPmET_S1_
FN:335,_ZSt12__niter_wrapIPmET_RKS1_S1_
FNDA:0,_ZSt12__niter_wrapIPmET_RKS1_S1_
FN:420,_ZNSt11__copy_moveILb0ELb1ESt26random_access_iterator_tagE8__copy_mImEEPT_PKS3_S6_S4_
FNDA:0,_ZNSt11__copy_moveILb0ELb1ESt26random_access_iterator_tagE8__copy_mImEEPT_PKS3_S6_S4_
FN:486,_ZSt14__copy_move_a2ILb0EPKmPmET1_T0_S4_S3_
FNDA:0,_ZSt14__copy_move_a2ILb0EPKmPmET1_T0_S4_S3_
FN:521,_ZSt14__copy_move_a1ILb0EPKmPmET1_T0_S4_S3_
FNDA:0,_ZSt14__copy_move_a1ILb0EPKmPmET1_T0_S4_S3_
FN:527,_ZSt13__copy_move_aILb0EN9__gnu_cxx17__normal_iteratorIPKmSt6vectorImSaImEEEEPmET1_T0_SA_S9_
FNDA:0,_ZSt13__copy_move_aILb0EN9__gnu_cxx17__normal_iteratorIPKmSt6vectorImSaImEEEEPmET1_T0_SA_S9_
FN:611,_ZSt4copyIN9__gnu_cxx17__normal_iteratorIPKmSt6vectorImSaImEEEEPmET0_T_SA_S9_
FNDA:0,_ZSt4copyIN9__gnu_cxx17__normal_iteratorIPKmSt6vectorImSaImEEEEPmET0_T_SA_S9_
DA:230,0
DA:235,0
DA:236,0
DA:237,0
DA:313,0
DA:315,0
DA:335,0
DA:336,0
DA:420,0
DA:429,0
DA:430,0
DA:431,0
DA:432,0
DA:486,0
DA:495,0
DA:521,0
DA:522,0
DA:527,0
DA:529,0
DA:532,0
DA:611,0
DA:620,0
end_of_record
SF:/home/imri/OS-FinalProject/MST/Boruvka.cpp
FN:5,_ZN7BoruvkaclEP5Graph
FNDA:1,_ZN7BoruvkaclEP5Graph
DA:5,1
DA:8,1
DA:11,1
DA:14,1
DA:17,1
DA:20,1
DA:24,2
DA:27,4
DA:29,3
DA:30,3
DA:34,4
DA:36,3
DA:37,3
DA:40,3
DA:42,3
DA:44,3
DA:46,3
DA:48,3
DA:57,4
DA:59,3
DA:61,3
DA:62,3
DA:64,3
DA:66,2
DA:67,2
DA:68,2
DA:75,1
DA:76,1
DA:78,1
DA:79,1
DA:82,1
DA:83,1
end_of_record
SF:/usr/include/c++/11/bits/stl_tree.h
FN:146,_ZNSt20_Rb_tree_key_compareISt4lessImEEC2Ev
FNDA:0,_ZNSt20_Rb_tree_key_compareISt4lessImEEC2Ev
FN:173,_ZNSt15_Rb_tree_headerC2Ev
FNDA:0,_ZNSt15_Rb_tree_headerC2Ev
FN:206,_ZNSt15_Rb_tree_header8_M_resetEv
FNDA:0,_ZNSt15_Rb_tree_header8_M_resetEv
FN:234,_ZNSt13_Rb_tree_nodeISt4pairIKmmEE9_M_valptrEv
FNDA:0,_ZNSt13_Rb_tree_nodeISt4pairIKmmEE9_M_valptrEv
FN:547,_ZNSt8_Rb_treeImSt4pairIKmmESt10_Select1stIS2_ESt4lessImESaIS2_EE21_M_get_Node_allocatorEv
FNDA:0,_ZNSt8_Rb_treeImSt4pairIKmmESt10_Select1stIS2_ESt4lessImESaIS2_EE21_M_get_Node_allocatorEv
FN:564,_ZNSt8_Rb_treeImSt4pairIKmmESt10_Select1stIS2_ESt4lessImESaIS2_EE11_M_put_nodeEPSt13_Rb_tree_nodeIS2_E
FNDA:0,_ZNSt8_Rb_treeImSt4pairIKmmESt10_Select1stIS2_ESt4lessImESaIS2_EE11_M_put_nodeEPSt13_Rb_tree_nodeIS2_E
FN:618,_ZNSt8_Rb_treeImSt4pairIKmmESt10_Select1stIS2_ESt4lessImESaIS2_EE15_M_destroy_nodeEPSt13_Rb_tree_nodeIS2_E
FNDA:0,_ZNSt8_Rb_treeImSt4pairIKmmESt10_Select1stIS2_ESt4lessImESaIS2_EE15_M_destroy_nodeEPSt13_Rb_tree_nodeIS2_E
FN:629,_ZNSt8_Rb_treeImSt4pairIKmmESt10_Select1stIS2_ESt4lessImESaIS2_EE12_M_drop_nodeEPSt13_Rb_tree_nodeIS2_E
FNDA:0,_ZNSt8_Rb_treeImSt4pairIKmmESt10_Select1stIS2_ESt4lessImESaIS2_EE12_M_drop_nodeEPSt13_Rb_tree_nodeIS2_E
FN:667,_ZNSt8_Rb_treeImSt4pairIKmmESt10_Select1stIS2_ESt4lessImESaIS2_EE13_Rb_tree_implIS6_Lb1EEC2Ev
FNDA:0,_ZNSt8_Rb_treeImSt4pairIKmmESt10_Select1stIS2_ESt4lessImESaIS2_EE13_Rb_tree_implIS6_Lb1EEC2Ev
FN:734,_ZNKSt8_Rb_treeImSt4pairIKmmESt10_Select1stIS2_ESt4lessImESaIS2_EE9_M_mbeginEv
FNDA:0,_ZNKSt8_Rb_treeImSt4pairIKmmESt10_Select1stIS2_ESt4lessImESaIS2_EE9_M_mbeginEv
FN:738,_ZNSt8_Rb_treeImSt4pairIKmmESt10_Select1stIS2_ESt4lessImESaIS2_EE8_M_beginEv
FNDA:0,_ZNSt8_Rb_treeImSt4pairIKmmESt10_Select1stIS2_ESt4lessImESaIS2_EE8_M_beginEv
FN:779,_ZNSt8_Rb_treeImSt4pairIKmmESt10_Select1stIS2_ESt4lessImESaIS2_EE7_S_leftEPSt18_Rb_tree_node_base
FNDA:0,_ZNSt8_Rb_treeImSt4pairIKmmESt10_Select1stIS2_ESt4lessImESaIS2_EE7_S_leftEPSt18_Rb_tree_node_base
FN:787,_ZNSt8_Rb_treeImSt4pairIKmmESt10_Select1stIS2_ESt4lessImESaIS2_EE8_S_rightEPSt18_Rb_tree_node_base
FNDA:0,_ZNSt8_Rb_treeImSt4pairIKmmESt10_Select1stIS2_ESt4lessImESaIS2_EE8_S_rightEPSt18_Rb_tree_node_base
FN:928,_ZNSt8_Rb_treeImSt4pairIKmmESt10_Select1stIS2_ESt4lessImESaIS2_EEC2Ev
FNDA:0,_ZNSt8_Rb_treeImSt4pairIKmmESt10_Select1stIS2_ESt4lessImESaIS2_EEC2Ev
FN:983,_ZNSt8_Rb_treeImSt4pairIKmmESt10_Select1stIS2_ESt4lessImESaIS2_EED2Ev
FNDA:0,_ZNSt8_Rb_treeImSt4pairIKmmESt10_Select1stIS2_ESt4lessImESaIS2_EED2Ev
FN:1883,_ZNSt8_Rb_treeImSt4pairIKmmESt10_Select1stIS2_ESt4lessImESaIS2_EE8_M_eraseEPSt13_Rb_tree_nodeIS2_E
FNDA:0,_ZNSt8_Rb_treeImSt4pairIKmmESt10_Select1stIS2_ESt4lessImESaIS2_EE8_M_eraseEPSt13_Rb_tree_nodeIS2_E
DA:146,0
DA:150,0
DA:173,0
DA:174,0
DA:175,0
DA:176,0
DA:177,0
DA:206,0
DA:208,0
DA:209,0
DA:210,0
DA:211,0
DA:212,0
DA:234,0
DA:235,0
DA:547,0
DA:548,0
DA:564,0
DA:565,0
DA:618,0
DA:623,0
DA:624,0
DA:626,0
DA:629,0
DA:631,0
DA:632,0
DA:633,0
DA:667,0
DA:671,0
DA:672,0
DA:734,0
DA:735,0
DA:738,0
DA:739,0
DA:779,0
DA:780,0
DA:787,0
DA:788,0
DA:928,0
DA:983,0
DA:984,0
DA:1883,0
DA:1887,0
DA:1889,0
DA:1890,0
DA:1891,0
DA:1892,0
DA:1894,0
end_of_record
SF:/usr/include/c++/11/bits/cpp_type_traits.h
FN:560,_ZSt12__miter_baseIN9__gnu_cxx17__normal_iteratorIPKmSt6vectorImSaImEEEEET_S8_
FNDA:0,_ZSt12__miter_baseIN9__gnu_cxx17__normal_iteratorIPKmSt6vectorImSaImEEEEET_S8_
DA:560,0
DA:561,0
end_of_record
TN:
SF:/usr/include/c++/11/bits/move.h
FN:49,_ZSt11__addressofIKZN6TarjanclEP5GraphEUliE0_EPT_RS5_
FNDA:8,_ZSt11__addressofIKZN6TarjanclEP5GraphEUliE0_EPT_RS5_
FN:49,_ZSt11__addressofISt6vectorImSaImEEEPT_RS3_
FNDA:0,_ZSt11__addressofISt6vectorImSaImEEEPT_RS3_
FN:49,_ZSt11__addressofIiEPT_RS0_
FNDA:1,_ZSt11__addressofIiEPT_RS0_
FN:49,_ZSt11__addressofI4EdgeEPT_RS1_
FNDA:0,_ZSt11__addressofI4EdgeEPT_RS1_
FN:77,_ZSt7forwardIRK4EdgeEOT_RNSt16remove_referenceIS3_E4typeE
FNDA:0,_ZSt7forwardIRK4EdgeEOT_RNSt16remove_referenceIS3_E4typeE
FN:77,_ZSt7forwardIiEOT_RNSt16remove_referenceIS0_E4typeE
FNDA:0,_ZSt7forwardIiEOT_RNSt16remove_referenceIS0_E4typeE
FN:77,_ZSt7forwardIZN6TarjanclEP5GraphEUliE0_EOT_RNSt16remove_referenceIS4_E4typeE
FNDA:3,_ZSt7forwardIZN6TarjanclEP5GraphEUliE0_EOT_RNSt16remove_referenceIS4_E4typeE
FN:77,_ZSt7forwardISt6vectorIS0_ImSaImEESaIS2_EEEOT_RNSt16remove_referenceIS5_E4typeE
FNDA:0,_ZSt7forwardISt6vectorIS0_ImSaImEESaIS2_EEEOT_RNSt16remove_referenceIS5_E4typeE
FN:77,_ZSt7forwardIRZN6TarjanclEP5GraphEUliE0_EOT_RNSt16remove_referenceIS5_E4typeE
FNDA:16,_ZSt7forwardIRZN6TarjanclEP5GraphEUliE0_EOT_RNSt16remove_referenceIS5_E4typeE
FN:77,_ZSt7forwardIRKZN6TarjanclEP5GraphEUliE0_EOT_RNSt16remove_referenceIS6_E4typeE
FNDA:0,_ZSt7forwardIRKZN6TarjanclEP5GraphEUliE0_EOT_RNSt16remove_referenceIS6_E4typeE
FN:77,_ZSt7forwardIRKSt6vectorImSaImEEEOT_RNSt16remove_referenceIS5_E4typeE
FNDA:0,_ZSt7forwardIRKSt6vectorImSaImEEEOT_RNSt16remove_referenceIS5_E4typeE
FN:104,_ZSt4moveIR4EdgeEONSt16remove_referenceIT_E4typeEOS3_
FNDA:0,_ZSt4moveIR4EdgeEONSt16remove_referenceIT_E4typeEOS3_
FN:104,_ZSt4moveIRSaISt6vectorImSaImEEEEONSt16remove_referenceIT_E4typeEOS6_
FNDA:0,_ZSt4moveIRSaISt6vectorImSaImEEEEONSt16remove_referenceIT_E4typeEOS6_
FN:104,_ZSt4moveIRSt6vectorIS0_ImSaImEESaIS2_EEEONSt16remove_referenceIT_E4typeEOS7_
FNDA:0,_ZSt4moveIRSt6vectorIS0_ImSaImEESaIS2_EEEONSt16remove_referenceIT_E4typeEOS7_
FN:104,_ZSt4moveIRZN6TarjanclEP5GraphEUlRK4EdgeS5_E_EONSt16remove_referenceIT_E4typeEOS9_
FNDA:2,_ZSt4moveIRZN6TarjanclEP5GraphEUlRK4EdgeS5_E_EONSt16remove_referenceIT_E4typeEOS9_
FN:104,_ZSt4moveIRN9__gnu_cxx5__ops15_Iter_comp_iterIZN6TarjanclEP5GraphEUlRK4EdgeS8_E_EEEONSt16remove_referenceIT_E4typeEOSD_
FNDA:0,_ZSt4moveIRN9__gnu_cxx5__ops15_Iter_comp_iterIZN6TarjanclEP5GraphEUlRK4EdgeS8_E_EEEONSt16remove_referenceIT_E4typeEOSD_
FN:196,_ZSt4swapI4EdgeENSt9enable_ifIXsrSt6__and_IJSt6__not_ISt15__is_tuple_likeIT_EESt21is_move_constructibleIS5_ESt18is_move_assignableIS5_EEE5valueEvE4typeERS5_SF_
FNDA:0,_ZSt4swapI4EdgeENSt9enable_ifIXsrSt6__and_IJSt6__not_ISt15__is_tuple_likeIT_EESt21is_move_constructibleIS5_ESt18is_move_assignableIS5_EEE5valueEvE4typeERS5_SF_
DA:49,0
DA:50,0
DA:49,1
DA:50,1
DA:49,0
DA:50,0
DA:49,8
DA:50,8
DA:77,0
DA:78,0
DA:77,0
DA:78,0
DA:77,0
DA:78,0
DA:77,16
DA:78,16
DA:77,0
DA:78,0
DA:77,3
DA:78,3
DA:77,0
DA:78,0
DA:104,0
DA:105,0
DA:104,0
DA:105,0
DA:104,0
DA:105,0
DA:104,0
DA:105,0
DA:104,2
DA:105,2
DA:196,0
DA:204,0
DA:205,0
DA:206,0
DA:207,0
end_of_record
SF:/home/imri/OS-FinalProject/GraphObj/vertex.hpp
end_of_record
SF:/usr/include/c++/11/iostream
end_of_record
SF:/home/imri/OS-FinalProject/MST/Tarjan.hpp
end_of_record
SF:/usr/include/c++/11/ext/aligned_buffer.h
FN:64,_ZN9__gnu_cxx16__aligned_membufISt4pairIKmmEE7_M_addrEv
FNDA:0,_ZN9__gnu_cxx16__aligned_membufISt4pairIKmmEE7_M_addrEv
FN:72,_ZN9__gnu_cxx16__aligned_membufISt4pairIKmmEE6_M_ptrEv
FNDA:0,_ZN9__gnu_cxx16__aligned_membufISt4pairIKmmEE6_M_ptrEv
FN:102,_ZN9__gnu_cxx16__aligned_bufferI4EdgeE7_M_addrEv
FNDA:0,_ZN9__gnu_cxx16__aligned_bufferI4EdgeE7_M_addrEv
FN:114,_ZN9__gnu_cxx16__aligned_bufferI4EdgeE6_M_ptrEv
FNDA:0,_ZN9__gnu_cxx16__aligned_bufferI4EdgeE6_M_ptrEv
DA:64,0
DA:65,0
DA:72,0
DA:73,0
DA:102,0
DA:104,0
DA:114,0
DA:115,0
end_of_record
SF:/usr/include/c++/11/bits/std_function.h
FN:85,_ZNSt9_Any_data9_M_accessEv
FNDA:0,_ZNSt9_Any_data9_M_accessEv
FN:86,_ZNKSt9_Any_data9_M_accessEv
FNDA:0,_ZNKSt9_Any_data9_M_accessEv
FN:90,_ZNSt9_Any_data9_M_accessIZN6TarjanclEP5GraphEUliE0_EERT_v
FNDA:1,_ZNSt9_Any_data9_M_accessIZN6TarjanclEP5GraphEUliE0_EERT_v
FN:90,_ZNSt9_Any_data9_M_accessIPZN6TarjanclEP5GraphEUliE0_EERT_v
FNDA:0,_ZNSt9_Any_data9_M_accessIPZN6TarjanclEP5GraphEUliE0_EERT_v
FN:90,_ZNSt9_Any_data9_M_accessIPKSt9type_infoEERT_v
FNDA:0,_ZNSt9_Any_data9_M_accessIPKSt9type_infoEERT_v
FN:95,_ZNKSt9_Any_data9_M_accessIZN6TarjanclEP5GraphEUliE0_EERKT_v
FNDA:8,_ZNKSt9_Any_data9_M_accessIZN6TarjanclEP5GraphEUliE0_EERKT_v
FN:134,_ZNSt14_Function_base13_Base_managerIZN6TarjanclEP5GraphEUliE0_E14_M_get_pointerERKSt9_Any_data
FNDA:8,_ZNSt14_Function_base13_Base_managerIZN6TarjanclEP5GraphEUliE0_E14_M_get_pointerERKSt9_Any_data
FN:150,_ZNSt14_Function_base13_Base_managerIZN6TarjanclEP5GraphEUliE0_E9_M_createIRKS4_EEvRSt9_Any_dataOT_St17integral_constantIbLb1EE
FNDA:0,_ZNSt14_Function_base13_Base_managerIZN6TarjanclEP5GraphEUliE0_E9_M_createIRKS4_EEvRSt9_Any_dataOT_St17integral_constantIbLb1EE
FN:150,_ZNSt14_Function_base13_Base_managerIZN6TarjanclEP5GraphEUliE0_E9_M_createIS4_EEvRSt9_Any_dataOT_St17integral_constantIbLb1EE
FNDA:1,_ZNSt14_Function_base13_Base_managerIZN6TarjanclEP5GraphEUliE0_E9_M_createIS4_EEvRSt9_Any_dataOT_St17integral_constantIbLb1EE
FN:166,_ZNSt14_Function_base13_Base_managerIZN6TarjanclEP5GraphEUliE0_E10_M_destroyERSt9_Any_dataSt17integral_constantIbLb1EE
FNDA:1,_ZNSt14_Function_base13_Base_managerIZN6TarjanclEP5GraphEUliE0_E10_M_destroyERSt9_Any_dataSt17integral_constantIbLb1EE
FN:180,_ZNSt14_Function_base13_Base_managerIZN6TarjanclEP5GraphEUliE0_E10_M_managerERSt9_Any_dataRKS6_St18_Manager_operation
FNDA:1,_ZNSt14_Function_base13_Base_managerIZN6TarjanclEP5GraphEUliE0_E10_M_managerERSt9_Any_dataRKS6_St18_Manager_operation
FN:211,_ZNSt14_Function_base13_Base_managerIZN6TarjanclEP5GraphEUliE0_E15_M_init_functorIS4_EEvRSt9_Any_dataOT_
FNDA:1,_ZNSt14_Function_base13_Base_managerIZN6TarjanclEP5GraphEUliE0_E15_M_init_functorIS4_EEvRSt9_Any_dataOT_
FN:211,_ZNSt14_Function_base13_Base_managerIZN6TarjanclEP5GraphEUliE0_E15_M_init_functorIRKS4_EEvRSt9_Any_dataOT_
FNDA:0,_ZNSt14_Function_base13_Base_managerIZN6TarjanclEP5GraphEUliE0_E15_M_init_functorIRKS4_EEvRSt9_Any_dataOT_
FN:235,_ZNSt14_Function_base13_Base_managerIZN6TarjanclEP5GraphEUliE0_E21_M_not_empty_functionIS4_EEbRKT_
FNDA:1,_ZNSt14_Function_base13_Base_managerIZN6TarjanclEP5GraphEUliE0_E21_M_not_empty_functionIS4_EEbRKT_
FN:239,_ZNSt14_Function_baseC2Ev
FNDA:0,_ZNSt14_Function_baseC2Ev
FN:241,_ZNSt14_Function_baseD2Ev
FNDA:0,_ZNSt14_Function_baseD2Ev
FN:247,_ZNKSt14_Function_base8_M_emptyEv
FNDA:0,_ZNKSt14_Function_base8_M_emptyEv
FN:267,_ZNSt17_Function_handlerIFiiEZN6TarjanclEP5GraphEUliE0_E10_M_managerERSt9_Any_dataRKS6_St18_Manager_operation
FNDA:1,_ZNSt17_Function_handlerIFiiEZN6TarjanclEP5GraphEUliE0_E10_M_managerERSt9_Any_dataRKS6_St18_Manager_operation
FN:288,_ZNSt17_Function_handlerIFiiEZN6TarjanclEP5GraphEUliE0_E9_M_invokeERKSt9_Any_dataOi
FNDA:8,_ZNSt17_Function_handlerIFiiEZN6TarjanclEP5GraphEUliE0_E9_M_invokeERKSt9_Any_dataOi
FN:435,_ZNSt8functionIFiiEEC2IZN6TarjanclEP5GraphEUliE0_vEEOT_
FNDA:1,_ZNSt8functionIFiiEEC2IZN6TarjanclEP5GraphEUliE0_vEEOT_
FN:586,_ZNKSt8functionIFiiEEclEi
FNDA:8,_ZNKSt8functionIFiiEEclEi
DA:85,0
DA:86,0
DA:90,1
DA:91,1
DA:90,0
DA:91,0
DA:90,0
DA:91,0
DA:95,8
DA:96,8
DA:134,8
DA:138,8
DA:139,8
DA:150,0
DA:152,0
DA:153,0
DA:150,1
DA:152,1
DA:153,1
DA:166,1
DA:168,1
DA:169,1
DA:180,1
DA:183,1
DA:185,0
DA:187,0
DA:191,0
DA:193,0
DA:194,0
DA:195,0
DA:197,0
DA:198,0
DA:199,0
DA:200,0
DA:202,1
DA:203,1
DA:204,1
DA:206,1
DA:211,0
DA:215,0
DA:216,0
DA:211,1
DA:215,1
DA:216,1
DA:235,1
DA:236,1
DA:239,0
DA:241,0
DA:243,0
DA:244,0
DA:245,0
DA:247,0
DA:267,1
DA:270,1
DA:273,0
DA:274,0
DA:275,0
DA:277,0
DA:278,0
DA:279,0
DA:281,1
DA:282,1
DA:284,1
DA:288,8
DA:290,8
DA:291,8
DA:435,1
DA:437,1
DA:447,1
DA:449,1
DA:451,1
DA:452,1
DA:454,1
DA:586,8
DA:588,8
DA:589,0
DA:590,8
end_of_record
SF:/usr/include/c++/11/bits/predefined_ops.h
FN:150,_ZN9__gnu_cxx5__ops15_Iter_comp_iterIZN6TarjanclEP5GraphEUlRK4EdgeS7_E_EC2ES8_
FNDA:1,_ZN9__gnu_cxx5__ops15_Iter_comp_iterIZN6TarjanclEP5GraphEUlRK4EdgeS7_E_EC2ES8_
FN:157,_ZN9__gnu_cxx5__ops15_Iter_comp_iterIZN6TarjanclEP5GraphEUlRK4EdgeS7_E_EclINS_17__normal_iteratorIPS5_St6vectorIS5_SaIS5_EEEESG_EEbT_T0_
FNDA:2,_ZN9__gnu_cxx5__ops15_Iter_comp_iterIZN6TarjanclEP5GraphEUlRK4EdgeS7_E_EclINS_17__normal_iteratorIPS5_St6vectorIS5_SaIS5_EEEESG_EEbT_T0_
FN:164,_ZN9__gnu_cxx5__ops16__iter_comp_iterIZN6TarjanclEP5GraphEUlRK4EdgeS7_E_EENS0_15_Iter_comp_iterIT_EESA_
FNDA:1,_ZN9__gnu_cxx5__ops16__iter_comp_iterIZN6TarjanclEP5GraphEUlRK4EdgeS7_E_EENS0_15_Iter_comp_iterIT_EESA_
FN:187,_ZN9__gnu_cxx5__ops14_Iter_comp_valIZN6TarjanclEP5GraphEUlRK4EdgeS7_E_EC2EONS0_15_Iter_comp_iterIS8_EE
FNDA:0,_ZN9__gnu_cxx5__ops14_Iter_comp_valIZN6TarjanclEP5GraphEUlRK4EdgeS7_E_EC2EONS0_15_Iter_comp_iterIS8_EE
FN:195,_ZN9__gnu_cxx5__ops14_Iter_comp_valIZN6TarjanclEP5GraphEUlRK4EdgeS7_E_EclINS_17__normal_iteratorIPS5_St6vectorIS5_SaIS5_EEEES5_EEbT_RT0_
FNDA:0,_ZN9__gnu_cxx5__ops14_Iter_comp_valIZN6TarjanclEP5GraphEUlRK4EdgeS7_E_EclINS_17__normal_iteratorIPS5_St6vectorIS5_SaIS5_EEEES5_EEbT_RT0_
FN:231,_ZN9__gnu_cxx5__ops14_Val_comp_iterIZN6TarjanclEP5GraphEUlRK4EdgeS7_E_EC2EONS0_15_Iter_comp_iterIS8_EE
FNDA:0,_ZN9__gnu_cxx5__ops14_Val_comp_iterIZN6TarjanclEP5GraphEUlRK4EdgeS7_E_EC2EONS0_15_Iter_comp_iterIS8_EE
FN:239,_ZN9__gnu_cxx5__ops14_Val_comp_iterIZN6TarjanclEP5GraphEUlRK4EdgeS7_E_EclIS5_NS_17__normal_iteratorIPS5_St6vectorIS5_SaIS5_EEEEEEbRT_T0_
FNDA:0,_ZN9__gnu_cxx5__ops14_Val_comp_iterIZN6TarjanclEP5GraphEUlRK4EdgeS7_E_EclIS5_NS_17__normal_iteratorIPS5_St6vectorIS5_SaIS5_EEEEEEbRT_T0_
FN:252,_ZN9__gnu_cxx5__ops15__val_comp_iterIZN6TarjanclEP5GraphEUlRK4EdgeS7_E_EENS0_14_Val_comp_iterIT_EENS0_15_Iter_comp_iterISA_EE
FNDA:0,_ZN9__gnu_cxx5__ops15__val_comp_iterIZN6TarjanclEP5GraphEUlRK4EdgeS7_E_EENS0_14_Val_comp_iterIT_EENS0_15_Iter_comp_iterISA_EE
DA:150,1
DA:151,1
DA:152,1
DA:157,2
DA:158,2
DA:164,1
DA:165,1
DA:187,0
DA:188,0
DA:189,0
DA:195,0
DA:196,0
DA:231,0
DA:232,0
DA:233,0
DA:239,0
DA:240,0
DA:252,0
DA:253,0
end_of_record
SF:/usr/include/c++/11/bits/stl_iterator_base_types.h
FN:238,_ZSt19__iterator_categoryIPiENSt15iterator_traitsIT_E17iterator_categoryERKS2_
FNDA:0,_ZSt19__iterator_categoryIPiENSt15iterator_traitsIT_E17iterator_categoryERKS2_
FN:238,_ZSt19__iterator_categoryINSt8__detail14_Node_iteratorI4EdgeLb1ELb1EEEENSt15iterator_traitsIT_E17iterator_categoryERKS5_
FNDA:2,_ZSt19__iterator_categoryINSt8__detail14_Node_iteratorI4EdgeLb1ELb1EEEENSt15iterator_traitsIT_E17iterator_categoryERKS5_
DA:238,0
DA:239,0
DA:238,2
DA:239,2
end_of_record
SF:/usr/include/c++/11/bits/stl_iterator_base_funcs.h
FN:80,_ZSt10__distanceINSt8__detail14_Node_iteratorI4EdgeLb1ELb1EEEENSt15iterator_traitsIT_E15difference_typeES5_S5_St18input_iterator_tag
FNDA:1,_ZSt10__distanceINSt8__detail14_Node_iteratorI4EdgeLb1ELb1EEEENSt15iterator_traitsIT_E15difference_typeES5_S5_St18input_iterator_tag
FN:138,_ZSt8distanceINSt8__detail14_Node_iteratorI4EdgeLb1ELb1EEEENSt15iterator_traitsIT_E15difference_typeES5_S5_
FNDA:1,_ZSt8distanceINSt8__detail14_Node_iteratorI4EdgeLb1ELb1EEEENSt15iterator_traitsIT_E15difference_typeES5_S5_
DA:80,1
DA:86,1
DA:87,4
DA:89,3
DA:90,3
DA:92,1
DA:138,1
DA:141,1
DA:142,1
end_of_record
SF:/home/imri/OS-FinalProject/GraphObj/edge.hpp
end_of_record
SF:/home/imri/OS-FinalProject/MST/Tarjan.cpp
FN:4,_ZN6TarjanclEP5Graph
FNDA:1,_ZN6TarjanclEP5Graph
FN:11,_ZZN6TarjanclEP5GraphENKUlRK4EdgeS4_E_clES4_S4_
FNDA:2,_ZZN6TarjanclEP5GraphENKUlRK4EdgeS4_E_clES4_S4_
FN:24,_ZZN6TarjanclEP5GraphENKUliE0_clEi
FNDA:8,_ZZN6TarjanclEP5GraphENKUliE0_clEi
FN:31,_ZZN6TarjanclEP5GraphENKUliiE1_clEii
FNDA:2,_ZZN6TarjanclEP5GraphENKUliiE1_clEii
DA:4,1
DA:7,1
DA:10,1
DA:11,1
DA:12,2
DA:16,1
DA:19,1
DA:20,4
DA:21,3
DA:24,8
DA:25,8
DA:26,8
DA:27,0
DA:28,1
DA:31,6
DA:32,2
DA:33,2
DA:34,2
DA:35,2
DA:36,3
DA:39,2
DA:41,2
DA:42,2
DA:45,2
DA:47,2
DA:48,2
DA:52,2
DA:53,1
DA:56,1
DA:57,1
DA:59,1
DA:60,1
DA:63,1
DA:64,1
end_of_record
SF:/usr/include/c++/11/bits/invoke.h
FN:60,_ZSt13__invoke_implIiRZN6TarjanclEP5GraphEUliE0_JiEET_St14__invoke_otherOT0_DpOT1_
FNDA:8,_ZSt13__invoke_implIiRZN6TarjanclEP5GraphEUliE0_JiEET_St14__invoke_otherOT0_DpOT1_
FN:104,_ZSt10__invoke_rIiRZN6TarjanclEP5GraphEUliE0_JiEENSt9enable_ifIX16is_invocable_r_vIT_T0_DpT1_EES6_E4typeEOS7_DpOS8_
FNDA:8,_ZSt10__invoke_rIiRZN6TarjanclEP5GraphEUliE0_JiEENSt9enable_ifIX16is_invocable_r_vIT_T0_DpT1_EES6_E4typeEOS7_DpOS8_
DA:60,8
DA:61,8
DA:104,8
DA:114,8
DA:116,8
end_of_record
SF:/usr/include/c++/11/new
FN:174,_ZnwmPv
FNDA:0,_ZnwmPv
FN:180,_ZdlPvS_
FNDA:0,_ZdlPvS_
DA:174,0
DA:175,0
DA:180,0
end_of_record
SF:/usr/include/c++/11/bits/stl_construct.h
FN:109,_ZSt10_ConstructIiJEEvPT_DpOT0_
FNDA:1,_ZSt10_ConstructIiJEEvPT_DpOT0_
FN:109,_ZSt10_ConstructI4EdgeJRKS0_EEvPT_DpOT0_
FNDA:0,_ZSt10_ConstructI4EdgeJRKS0_EEvPT_DpOT0_
FN:109,_ZSt10_ConstructISt6vectorImSaImEEJRKS2_EEvPT_DpOT0_
FNDA:0,_ZSt10_ConstructISt6vectorImSaImEEJRKS2_EEvPT_DpOT0_
FN:146,_ZSt8_DestroyISt6vectorImSaImEEEvPT_
FNDA:0,_ZSt8_DestroyISt6vectorImSaImEEEvPT_
FN:146,_ZSt8_DestroyI4EdgeEvPT_
FNDA:0,_ZSt8_DestroyI4EdgeEvPT_
FN:160,_ZNSt12_Destroy_auxILb0EE9__destroyIPSt6vectorImSaImEEEEvT_S6_
FNDA:0,_ZNSt12_Destroy_auxILb0EE9__destroyIPSt6vectorImSaImEEEEvT_S6_
FN:160,_ZNSt12_Destroy_auxILb0EE9__destroyIP4EdgeEEvT_S4_
FNDA:0,_ZNSt12_Destroy_auxILb0EE9__destroyIP4EdgeEEvT_S4_
FN:172,_ZNSt12_Destroy_auxILb1EE9__destroyIPmEEvT_S3_
FNDA:0,_ZNSt12_Destroy_auxILb1EE9__destroyIPmEEvT_S3_
FN:172,_ZNSt12_Destroy_auxILb1EE9__destroyIPiEEvT_S3_
FNDA:0,_ZNSt12_Destroy_auxILb1EE9__destroyIPiEEvT_S3_
FN:182,_ZSt8_DestroyIPmEvT_S1_
FNDA:0,_ZSt8_DestroyIPmEvT_S1_
FN:182,_ZSt8_DestroyIPSt6vectorImSaImEEEvT_S4_
FNDA:0,_ZSt8_DestroyIPSt6vectorImSaImEEEvT_S4_
FN:182,_ZSt8_DestroyIPiEvT_S1_
FNDA:0,_ZSt8_DestroyIPiEvT_S1_
FN:182,_ZSt8_DestroyIP4EdgeEvT_S2_
FNDA:0,_ZSt8_DestroyIP4EdgeEvT_S2_
DA:109,1
DA:119,1
DA:120,1
DA:109,0
DA:119,0
DA:120,0
DA:109,0
DA:119,0
DA:120,0
DA:146,0
DA:151,0
DA:153,0
DA:146,0
DA:151,0
DA:153,0
DA:160,0
DA:162,0
DA:163,0
DA:164,0
DA:160,0
DA:162,0
DA:163,0
DA:164,0
DA:172,0
DA:172,0
DA:182,0
DA:196,0
DA:197,0
DA:182,0
DA:196,0
DA:197,0
DA:182,0
DA:196,0
DA:197,0
DA:182,0
DA:196,0
DA:197,0
end_of_record
SF:/usr/include/c++/11/bits/stl_algo.h
FN:79,_ZSt22__move_median_to_firstIN9__gnu_cxx17__normal_iteratorIP4EdgeSt6vectorIS2_SaIS2_EEEENS0_5__ops15_Iter_comp_iterIZN6TarjanclEP5GraphEUlRKS2_SE_E_EEEvT_SH_SH_SH_T0_
FNDA:0,_ZSt22__move_median_to_firstIN9__gnu_cxx17__normal_iteratorIP4EdgeSt6vectorIS2_SaIS2_EEEENS0_5__ops15_Iter_comp_iterIZN6TarjanclEP5GraphEUlRKS2_SE_E_EEEvT_SH_SH_SH_T0_
FN:1642,_ZSt13__heap_selectIN9__gnu_cxx17__normal_iteratorIP4EdgeSt6vectorIS2_SaIS2_EEEENS0_5__ops15_Iter_comp_iterIZN6TarjanclEP5GraphEUlRKS2_SE_E_EEEvT_SH_SH_T0_
FNDA:0,_ZSt13__heap_selectIN9__gnu_cxx17__normal_iteratorIP4EdgeSt6vectorIS2_SaIS2_EEEENS0_5__ops15_Iter_comp_iterIZN6TarjanclEP5GraphEUlRKS2_SE_E_EEEvT_SH_SH_T0_
FN:1799,_ZSt25__unguarded_linear_insertIN9__gnu_cxx17__normal_iteratorIP4EdgeSt6vectorIS2_SaIS2_EEEENS0_5__ops14_Val_comp_iterIZN6TarjanclEP5GraphEUlRKS2_SE_E_EEEvT_T0_
FNDA:0,_ZSt25__unguarded_linear_insertIN9__gnu_cxx17__normal_iteratorIP4EdgeSt6vectorIS2_SaIS2_EEEENS0_5__ops14_Val_comp_iterIZN6TarjanclEP5GraphEUlRKS2_SE_E_EEEvT_T0_
FN:1819,_ZSt16__insertion_sortIN9__gnu_cxx17__normal_iteratorIP4EdgeSt6vectorIS2_SaIS2_EEEENS0_5__ops15_Iter_comp_iterIZN6TarjanclEP5GraphEUlRKS2_SE_E_EEEvT_SH_T0_
FNDA:1,_ZSt16__insertion_sortIN9__gnu_cxx17__normal_iteratorIP4EdgeSt6vectorIS2_SaIS2_EEEENS0_5__ops15_Iter_comp_iterIZN6TarjanclEP5GraphEUlRKS2_SE_E_EEEvT_SH_T0_
FN:1843,_ZSt26__unguarded_insertion_sortIN9__gnu_cxx17__normal_iteratorIP4EdgeSt6vectorIS2_SaIS2_EEEENS0_5__ops15_Iter_comp_iterIZN6TarjanclEP5GraphEUlRKS2_SE_E_EEEvT_SH_T0_
FNDA:0,_ZSt26__unguarded_insertion_sortIN9__gnu_cxx17__normal_iteratorIP4EdgeSt6vectorIS2_SaIS2_EEEENS0_5__ops15_Iter_comp_iterIZN6TarjanclEP5GraphEUlRKS2_SE_E_EEEvT_SH_T0_
FN:1861,_ZSt22__final_insertion_sortIN9__gnu_cxx17__normal_iteratorIP4EdgeSt6vectorIS2_SaIS2_EEEENS0_5__ops15_Iter_comp_iterIZN6TarjanclEP5GraphEUlRKS2_SE_E_EEEvT_SH_T0_
FNDA:1,_ZSt22__final_insertion_sortIN9__gnu_cxx17__normal_iteratorIP4EdgeSt6vectorIS2_SaIS2_EEEENS0_5__ops15_Iter_comp_iterIZN6TarjanclEP5GraphEUlRKS2_SE_E_EEEvT_SH_T0_
FN:1878,_ZSt21__unguarded_partitionIN9__gnu_cxx17__normal_iteratorIP4EdgeSt6vectorIS2_SaIS2_EEEENS0_5__ops15_Iter_comp_iterIZN6TarjanclEP5GraphEUlRKS2_SE_E_EEET_SH_SH_SH_T0_
FNDA:0,_ZSt21__unguarded_partitionIN9__gnu_cxx17__normal_iteratorIP4EdgeSt6vectorIS2_SaIS2_EEEENS0_5__ops15_Iter_comp_iterIZN6TarjanclEP5GraphEUlRKS2_SE_E_EEET_SH_SH_SH_T0_
FN:1900,_ZSt27__unguarded_partition_pivotIN9__gnu_cxx17__normal_iteratorIP4EdgeSt6vectorIS2_SaIS2_EEEENS0_5__ops15_Iter_comp_iterIZN6TarjanclEP5GraphEUlRKS2_SE_E_EEET_SH_SH_T0_
FNDA:0,_ZSt27__unguarded_partition_pivotIN9__gnu_cxx17__normal_iteratorIP4EdgeSt6vectorIS2_SaIS2_EEEENS0_5__ops15_Iter_comp_iterIZN6TarjanclEP5GraphEUlRKS2_SE_E_EEET_SH_SH_T0_
FN:1912,_ZSt14__partial_sortIN9__gnu_cxx17__normal_iteratorIP4EdgeSt6vectorIS2_SaIS2_EEEENS0_5__ops15_Iter_comp_iterIZN6TarjanclEP5GraphEUlRKS2_SE_E_EEEvT_SH_SH_T0_
FNDA:0,_ZSt14__partial_sortIN9__gnu_cxx17__normal_iteratorIP4EdgeSt6vectorIS2_SaIS2_EEEENS0_5__ops15_Iter_comp_iterIZN6TarjanclEP5GraphEUlRKS2_SE_E_EEEvT_SH_SH_T0_
FN:1925,_ZSt16__introsort_loopIN9__gnu_cxx17__normal_iteratorIP4EdgeSt6vectorIS2_SaIS2_EEEElNS0_5__ops15_Iter_comp_iterIZN6TarjanclEP5GraphEUlRKS2_SE_E_EEEvT_SH_T0_T1_
FNDA:1,_ZSt16__introsort_loopIN9__gnu_cxx17__normal_iteratorIP4EdgeSt6vectorIS2_SaIS2_EEEElNS0_5__ops15_Iter_comp_iterIZN6TarjanclEP5GraphEUlRKS2_SE_E_EEEvT_SH_T0_T1_
FN:1949,_ZSt6__sortIN9__gnu_cxx17__normal_iteratorIP4EdgeSt6vectorIS2_SaIS2_EEEENS0_5__ops15_Iter_comp_iterIZN6TarjanclEP5GraphEUlRKS2_SE_E_EEEvT_SH_T0_
FNDA:1,_ZSt6__sortIN9__gnu_cxx17__normal_iteratorIP4EdgeSt6vectorIS2_SaIS2_EEEENS0_5__ops15_Iter_comp_iterIZN6TarjanclEP5GraphEUlRKS2_SE_E_EEEvT_SH_T0_
FN:4863,_ZSt4sortIN9__gnu_cxx17__normal_iteratorIP4EdgeSt6vectorIS2_SaIS2_EEEEZN6TarjanclEP5GraphEUlRKS2_SC_E_EvT_SE_T0_
FNDA:1,_ZSt4sortIN9__gnu_cxx17__normal_iteratorIP4EdgeSt6vectorIS2_SaIS2_EEEEZN6TarjanclEP5GraphEUlRKS2_SC_E_EvT_SE_T0_
DA:79,0
DA:82,0
DA:84,0
DA:85,0
DA:86,0
DA:87,0
DA:89,0
DA:91,0
DA:92,0
DA:93,0
DA:94,0
DA:96,0
DA:97,0
DA:1642,0
DA:1646,0
DA:1647,0
DA:1648,0
DA:1649,0
DA:1650,0
DA:1799,0
DA:1803,0
DA:1804,0
DA:1805,0
DA:1806,0
DA:1808,0
DA:1809,0
DA:1810,0
DA:1812,0
DA:1813,0
DA:1819,1
DA:1822,1
DA:1824,3
DA:1826,2
DA:1829,2
DA:1830,2
DA:1831,2
DA:1832,2
DA:1834,0
DA:1843,0
DA:1846,0
DA:1847,0
DA:1849,0
DA:1861,1
DA:1864,1
DA:1866,0
DA:1867,0
DA:1871,1
DA:1872,1
DA:1878,0
DA:1884,0
DA:1885,0
DA:1886,0
DA:1887,0
DA:1888,0
DA:1889,0
DA:1890,0
DA:1891,0
DA:1892,0
DA:1900,0
DA:1903,0
DA:1904,0
DA:1906,0
DA:1912,0
DA:1917,0
DA:1918,0
DA:1919,0
DA:1925,1
DA:1929,1
DA:1931,0
DA:1933,0
DA:1934,0
DA:1936,0
DA:1938,0
DA:1939,0
DA:1940,0
DA:1949,1
DA:1952,1
DA:1954,1
DA:1955,1
DA:1957,1
DA:1959,1
DA:4863,1
DA:4875,1
DA:4876,1
end_of_record
SF:/usr/include/c++/11/bits/allocator.h
FN:156,_ZNSaISt6vectorImSaImEEEC2Ev
FNDA:0,_ZNSaISt6vectorImSaImEEEC2Ev
FN:156,_ZNSaIiEC2Ev
FNDA:0,_ZNSaIiEC2Ev
FN:156,_ZNSaI4EdgeEC2Ev
FNDA:0,_ZNSaI4EdgeEC2Ev
FN:159,_ZNSaImEC2ERKS_
FNDA:0,_ZNSaImEC2ERKS_
FN:159,_ZNSaISt6vectorImSaImEEEC2ERKS2_
FNDA:0,_ZNSaISt6vectorImSaImEEEC2ERKS2_
FN:159,_ZNSaI4EdgeEC2ERKS0_
FNDA:0,_ZNSaI4EdgeEC2ERKS0_
FN:159,_ZNSaIiEC2ERKS_
FNDA:0,_ZNSaIiEC2ERKS_
FN:174,_ZNSaImED2Ev
FNDA:0,_ZNSaImED2Ev
FN:174,_ZNSaISt13_Rb_tree_nodeISt4pairIKmmEEED2Ev
FNDA:0,_ZNSaISt13_Rb_tree_nodeISt4pairIKmmEEED2Ev
FN:174,_ZNSaISt6vectorImSaImEEED2Ev
FNDA:0,_ZNSaISt6vectorImSaImEEED2Ev
FN:174,_ZNSaIiED2Ev
FNDA:0,_ZNSaIiED2Ev
FN:174,_ZNSaI4EdgeED2Ev
FNDA:0,_ZNSaI4EdgeED2Ev
DA:156,0
DA:156,0
DA:156,0
DA:159,0
DA:160,0
DA:159,0
DA:160,0
DA:159,0
DA:160,0
DA:159,0
DA:160,0
DA:174,0
DA:174,0
DA:174,0
DA:174,0
DA:174,0
end_of_record
SF:/home/imri/OS-FinalProject/MST/MST_Strategy.hpp
FN:8,_ZN12MST_StrategyD0Ev
FNDA:0,_ZN12MST_StrategyD0Ev
FN:8,_ZN12MST_StrategyD2Ev
FNDA:0,_ZN12MST_StrategyD2Ev
DA:8,0
DA:8,0
end_of_record
SF:/usr/include/c++/11/tuple
FN:192,_ZNSt10_Head_baseILm1ERSt6vectorIS0_ImSaImEESaIS2_EELb0EEC2ES5_
FNDA:0,_ZNSt10_Head_baseILm1ERSt6vectorIS0_ImSaImEESaIS2_EELb0EEC2ES5_
FN:192,_ZNSt10_Head_baseILm0ERSt6vectorIS0_ImSaImEESaIS2_EELb0EEC2ES5_
FNDA:0,_ZNSt10_Head_baseILm0ERSt6vectorIS0_ImSaImEESaIS2_EELb0EEC2ES5_
FN:233,_ZNSt10_Head_baseILm1ERSt6vectorIS0_ImSaImEESaIS2_EELb0EE7_M_headERS6_
FNDA:0,_ZNSt10_Head_baseILm1ERSt6vectorIS0_ImSaImEESaIS2_EELb0EE7_M_headERS6_
FN:233,_ZNSt10_Head_baseILm0ERSt6vectorIS0_ImSaImEESaIS2_EELb0EE7_M_headERS6_
FNDA:0,_ZNSt10_Head_baseILm0ERSt6vectorIS0_ImSaImEESaIS2_EELb0EE7_M_headERS6_
FN:268,_ZNSt11_Tuple_implILm0EJRSt6vectorIS0_ImSaImEESaIS2_EES5_EE7_M_headERS6_
FNDA:0,_ZNSt11_Tuple_implILm0EJRSt6vectorIS0_ImSaImEESaIS2_EES5_EE7_M_headERS6_
FN:274,_ZNSt11_Tuple_implILm0EJRSt6vectorIS0_ImSaImEESaIS2_EES5_EE7_M_tailERS6_
FNDA:0,_ZNSt11_Tuple_implILm0EJRSt6vectorIS0_ImSaImEESaIS2_EES5_EE7_M_tailERS6_
FN:283,_ZNSt11_Tuple_implILm0EJRSt6vectorIS0_ImSaImEESaIS2_EES5_EEC2ES5_S5_
FNDA:0,_ZNSt11_Tuple_implILm0EJRSt6vectorIS0_ImSaImEESaIS2_EES5_EEC2ES5_S5_
FN:424,_ZNSt11_Tuple_implILm1EJRSt6vectorIS0_ImSaImEESaIS2_EEEE7_M_headERS6_
FNDA:0,_ZNSt11_Tuple_implILm1EJRSt6vectorIS0_ImSaImEESaIS2_EEEE7_M_headERS6_
FN:434,_ZNSt11_Tuple_implILm1EJRSt6vectorIS0_ImSaImEESaIS2_EEEEC2ES5_
FNDA:0,_ZNSt11_Tuple_implILm1EJRSt6vectorIS0_ImSaImEESaIS2_EEEEC2ES5_
FN:1063,_ZNSt5tupleIJRSt6vectorIS0_ImSaImEESaIS2_EES5_EEC2ILb1ELb1EEES5_S5_
FNDA:0,_ZNSt5tupleIJRSt6vectorIS0_ImSaImEESaIS2_EES5_EEC2ILb1ELb1EEES5_S5_
FN:1321,_ZNSt5tupleIJRSt6vectorIS0_ImSaImEESaIS2_EES5_EEaSIS4_S4_EENSt9enable_ifIXcl12__assignableIT_T0_EEERS6_E4typeEOSt4pairIS9_SA_E
FNDA:0,_ZNSt5tupleIJRSt6vectorIS0_ImSaImEESaIS2_EES5_EEaSIS4_S4_EENSt9enable_ifIXcl12__assignableIT_T0_EEERS6_E4typeEOSt4pairIS9_SA_E
FN:1746,_ZSt3tieIJSt6vectorIS0_ImSaImEESaIS2_EES4_EESt5tupleIJDpRT_EES8_
FNDA:0,_ZSt3tieIJSt6vectorIS0_ImSaImEESaIS2_EES4_EESt5tupleIJDpRT_EES8_
DA:192,0
DA:193,0
DA:192,0
DA:193,0
DA:233,0
DA:233,0
DA:268,0
DA:274,0
DA:283,0
DA:284,0
DA:285,0
DA:424,0
DA:434,0
DA:435,0
DA:436,0
DA:1063,0
DA:1065,0
DA:1321,0
DA:1324,0
DA:1325,0
DA:1326,0
DA:1746,0
DA:1747,0
end_of_record
SF:/usr/include/c++/11/bits/hashtable_policy.h
FN:237,_ZNSt8__detail21_Hash_node_value_baseI4EdgeE9_M_valptrEv
FNDA:0,_ZNSt8__detail21_Hash_node_value_baseI4EdgeE9_M_valptrEv
FN:245,_ZNSt8__detail21_Hash_node_value_baseI4EdgeE4_M_vEv
FNDA:0,_ZNSt8__detail21_Hash_node_value_baseI4EdgeE4_M_vEv
FN:282,_ZNKSt8__detail10_Hash_nodeI4EdgeLb1EE7_M_nextEv
FNDA:0,_ZNKSt8__detail10_Hash_nodeI4EdgeLb1EE7_M_nextEv
FN:299,_ZNSt8__detail19_Node_iterator_baseI4EdgeLb1EE7_M_incrEv
FNDA:0,_ZNSt8__detail19_Node_iterator_baseI4EdgeLb1EE7_M_incrEv
FN:309,_ZNSt8__detailneERKNS_19_Node_iterator_baseI4EdgeLb1EEES4_
FNDA:0,_ZNSt8__detailneERKNS_19_Node_iterator_baseI4EdgeLb1EEES4_
FN:342,_ZNKSt8__detail14_Node_iteratorI4EdgeLb1ELb1EEdeEv
FNDA:0,_ZNKSt8__detail14_Node_iteratorI4EdgeLb1ELb1EEdeEv
FN:350,_ZNSt8__detail14_Node_iteratorI4EdgeLb1ELb1EEppEv
FNDA:0,_ZNSt8__detail14_Node_iteratorI4EdgeLb1ELb1EEppEv
DA:237,0
DA:238,0
DA:245,0
DA:246,0
DA:282,0
DA:283,0
DA:299,0
DA:300,0
DA:309,0
DA:311,0
DA:342,0
DA:343,0
DA:350,0
DA:352,0
DA:353,0
end_of_record
SF:/usr/include/c++/11/bits/stl_tree.h
FN:234,_ZNSt13_Rb_tree_nodeISt4pairIKmmEE9_M_valptrEv
FNDA:0,_ZNSt13_Rb_tree_nodeISt4pairIKmmEE9_M_valptrEv
FN:547,_ZNSt8_Rb_treeImSt4pairIKmmESt10_Select1stIS2_ESt4lessImESaIS2_EE21_M_get_Node_allocatorEv
FNDA:0,_ZNSt8_Rb_treeImSt4pairIKmmESt10_Select1stIS2_ESt4lessImESaIS2_EE21_M_get_Node_allocatorEv
FN:564,_ZNSt8_Rb_treeImSt4pairIKmmESt10_Select1stIS2_ESt4lessImESaIS2_EE11_M_put_nodeEPSt13_Rb_tree_nodeIS2_E
FNDA:0,_ZNSt8_Rb_treeImSt4pairIKmmESt10_Select1stIS2_ESt4lessImESaIS2_EE11_M_put_nodeEPSt13_Rb_tree_nodeIS2_E
FN:618,_ZNSt8_Rb_treeImSt4pairIKmmESt10_Select1stIS2_ESt4lessImESaIS2_EE15_M_destroy_nodeEPSt13_Rb_tree_nodeIS2_E
FNDA:0,_ZNSt8_Rb_treeImSt4pairIKmmESt10_Select1stIS2_ESt4lessImESaIS2_EE15_M_destroy_nodeEPSt13_Rb_tree_nodeIS2_E
FN:629,_ZNSt8_Rb_treeImSt4pairIKmmESt10_Select1stIS2_ESt4lessImESaIS2_EE12_M_drop_nodeEPSt13_Rb_tree_nodeIS2_E
FNDA:0,_ZNSt8_Rb_treeImSt4pairIKmmESt10_Select1stIS2_ESt4lessImESaIS2_EE12_M_drop_nodeEPSt13_Rb_tree_nodeIS2_E
FN:734,_ZNKSt8_Rb_treeImSt4pairIKmmESt10_Select1stIS2_ESt4lessImESaIS2_EE9_M_mbeginEv
FNDA:0,_ZNKSt8_Rb_treeImSt4pairIKmmESt10_Select1stIS2_ESt4lessImESaIS2_EE9_M_mbeginEv
FN:738,_ZNSt8_Rb_treeImSt4pairIKmmESt10_Select1stIS2_ESt4lessImESaIS2_EE8_M_beginEv
FNDA:0,_ZNSt8_Rb_treeImSt4pairIKmmESt10_Select1stIS2_ESt4lessImESaIS2_EE8_M_beginEv
FN:779,_ZNSt8_Rb_treeImSt4pairIKmmESt10_Select1stIS2_ESt4lessImESaIS2_EE7_S_leftEPSt18_Rb_tree_node_base
FNDA:0,_ZNSt8_Rb_treeImSt4pairIKmmESt10_Select1stIS2_ESt4lessImESaIS2_EE7_S_leftEPSt18_Rb_tree_node_base
FN:787,_ZNSt8_Rb_treeImSt4pairIKmmESt10_Select1stIS2_ESt4lessImESaIS2_EE8_S_rightEPSt18_Rb_tree_node_base
FNDA:0,_ZNSt8_Rb_treeImSt4pairIKmmESt10_Select1stIS2_ESt4lessImESaIS2_EE8_S_rightEPSt18_Rb_tree_node_base
FN:983,_ZNSt8_Rb_treeImSt4pairIKmmESt10_Select1stIS2_ESt4lessImESaIS2_EED2Ev
FNDA:0,_ZNSt8_Rb_treeImSt4pairIKmmESt10_Select1stIS2_ESt4lessImESaIS2_EED2Ev
FN:1883,_ZNSt8_Rb_treeImSt4pairIKmmESt10_Select1stIS2_ESt4lessImESaIS2_EE8_M_eraseEPSt13_Rb_tree_nodeIS2_E
FNDA:0,_ZNSt8_Rb_treeImSt4pairIKmmESt10_Select1stIS2_ESt4lessImESaIS2_EE8_M_eraseEPSt13_Rb_tree_nodeIS2_E
DA:234,0
DA:235,0
DA:547,0
DA:548,0
DA:564,0
DA:565,0
DA:618,0
DA:623,0
DA:624,0
DA:626,0
DA:629,0
DA:631,0
DA:632,0
DA:633,0
DA:734,0
DA:735,0
DA:738,0
DA:739,0
DA:779,0
DA:780,0
DA:787,0
DA:788,0
DA:983,0
DA:984,0
DA:1883,0
DA:1887,0
DA:1889,0
DA:1890,0
DA:1891,0
DA:1892,0
DA:1894,0
end_of_record
SF:/usr/include/c++/11/bits/cpp_type_traits.h
FN:560,_ZSt12__miter_baseIN9__gnu_cxx17__normal_iteratorIPKmSt6vectorImSaImEEEEET_S8_
FNDA:0,_ZSt12__miter_baseIN9__gnu_cxx17__normal_iteratorIPKmSt6vectorImSaImEEEEET_S8_
FN:560,_ZSt12__miter_baseIN9__gnu_cxx17__normal_iteratorIP4EdgeSt6vectorIS2_SaIS2_EEEEET_S8_
FNDA:0,_ZSt12__miter_baseIN9__gnu_cxx17__normal_iteratorIP4EdgeSt6vectorIS2_SaIS2_EEEEET_S8_
DA:560,0
DA:561,0
DA:560,0
DA:561,0
end_of_record
SF:/usr/include/c++/11/bits/stl_heap.h
FN:134,_ZSt11__push_heapIN9__gnu_cxx17__normal_iteratorIP4EdgeSt6vectorIS2_SaIS2_EEEElS2_NS0_5__ops14_Iter_comp_valIZN6TarjanclEP5GraphEUlRKS2_SE_E_EEEvT_T0_SI_T1_RT2_
FNDA:0,_ZSt11__push_heapIN9__gnu_cxx17__normal_iteratorIP4EdgeSt6vectorIS2_SaIS2_EEEElS2_NS0_5__ops14_Iter_comp_valIZN6TarjanclEP5GraphEUlRKS2_SE_E_EEEvT_T0_SI_T1_RT2_
FN:223,_ZSt13__adjust_heapIN9__gnu_cxx17__normal_iteratorIP4EdgeSt6vectorIS2_SaIS2_EEEElS2_NS0_5__ops15_Iter_comp_iterIZN6TarjanclEP5GraphEUlRKS2_SE_E_EEEvT_T0_SI_T1_T2_
FNDA:0,_ZSt13__adjust_heapIN9__gnu_cxx17__normal_iteratorIP4EdgeSt6vectorIS2_SaIS2_EEEElS2_NS0_5__ops15_Iter_comp_iterIZN6TarjanclEP5GraphEUlRKS2_SE_E_EEEvT_T0_SI_T1_T2_
FN:253,_ZSt10__pop_heapIN9__gnu_cxx17__normal_iteratorIP4EdgeSt6vectorIS2_SaIS2_EEEENS0_5__ops15_Iter_comp_iterIZN6TarjanclEP5GraphEUlRKS2_SE_E_EEEvT_SH_SH_RT0_
FNDA:0,_ZSt10__pop_heapIN9__gnu_cxx17__normal_iteratorIP4EdgeSt6vectorIS2_SaIS2_EEEENS0_5__ops15_Iter_comp_iterIZN6TarjanclEP5GraphEUlRKS2_SE_E_EEEvT_SH_SH_RT0_
FN:339,_ZSt11__make_heapIN9__gnu_cxx17__normal_iteratorIP4EdgeSt6vectorIS2_SaIS2_EEEENS0_5__ops15_Iter_comp_iterIZN6TarjanclEP5GraphEUlRKS2_SE_E_EEEvT_SH_RT0_
FNDA:0,_ZSt11__make_heapIN9__gnu_cxx17__normal_iteratorIP4EdgeSt6vectorIS2_SaIS2_EEEENS0_5__ops15_Iter_comp_iterIZN6TarjanclEP5GraphEUlRKS2_SE_E_EEEvT_SH_RT0_
FN:418,_ZSt11__sort_heapIN9__gnu_cxx17__normal_iteratorIP4EdgeSt6vectorIS2_SaIS2_EEEENS0_5__ops15_Iter_comp_iterIZN6TarjanclEP5GraphEUlRKS2_SE_E_EEEvT_SH_RT0_
FNDA:0,_ZSt11__sort_heapIN9__gnu_cxx17__normal_iteratorIP4EdgeSt6vectorIS2_SaIS2_EEEENS0_5__ops15_Iter_comp_iterIZN6TarjanclEP5GraphEUlRKS2_SE_E_EEEvT_SH_RT0_
DA:134,0
DA:138,0
DA:139,0
DA:141,0
DA:142,0
DA:143,0
DA:145,0
DA:146,0
DA:223,0
DA:226,0
DA:227,0
DA:228,0
DA:230,0
DA:231,0
DA:233,0
DA:234,0
DA:235,0
DA:237,0
DA:239,0
DA:240,0
DA:242,0
DA:245,0
DA:246,0
DA:247,0
DA:248,0
DA:253,0
DA:261,0
DA:262,0
DA:263,0
DA:264,0
DA:265,0
DA:266,0
DA:339,0
DA:347,0
DA:348,0
DA:350,0
DA:351,0
DA:352,0
DA:354,0
DA:355,0
DA:357,0
DA:358,0
DA:359,0
DA:418,0
DA:421,0
DA:423,0
DA:424,0
DA:426,0
end_of_record
SF:/usr/include/c++/11/bits/stl_algobase.h
FN:152,_ZSt9iter_swapIN9__gnu_cxx17__normal_iteratorIP4EdgeSt6vectorIS2_SaIS2_EEEES7_EvT_T0_
FNDA:0,_ZSt9iter_swapIN9__gnu_cxx17__normal_iteratorIP4EdgeSt6vectorIS2_SaIS2_EEEES7_EvT_T0_
FN:230,_ZSt3minImERKT_S2_S2_
FNDA:0,_ZSt3minImERKT_S2_S2_
FN:313,_ZSt12__niter_baseIPmET_S1_
FNDA:0,_ZSt12__niter_baseIPmET_S1_
FN:328,_ZSt12__niter_wrapIN9__gnu_cxx17__normal_iteratorIP4EdgeSt6vectorIS2_SaIS2_EEEES3_ET_S8_T0_
FNDA:0,_ZSt12__niter_wrapIN9__gnu_cxx17__normal_iteratorIP4EdgeSt6vectorIS2_SaIS2_EEEES3_ET_S8_T0_
FN:335,_ZSt12__niter_wrapIPmET_RKS1_S1_
FNDA:0,_ZSt12__niter_wrapIPmET_RKS1_S1_
FN:420,_ZNSt11__copy_moveILb0ELb1ESt26random_access_iterator_tagE8__copy_mImEEPT_PKS3_S6_S4_
FNDA:0,_ZNSt11__copy_moveILb0ELb1ESt26random_access_iterator_tagE8__copy_mImEEPT_PKS3_S6_S4_
FN:486,_ZSt14__copy_move_a2ILb0EPKmPmET1_T0_S4_S3_
FNDA:0,_ZSt14__copy_move_a2ILb0EPKmPmET1_T0_S4_S3_
FN:521,_ZSt14__copy_move_a1ILb0EPKmPmET1_T0_S4_S3_
FNDA:0,_ZSt14__copy_move_a1ILb0EPKmPmET1_T0_S4_S3_
FN:527,_ZSt13__copy_move_aILb0EN9__gnu_cxx17__normal_iteratorIPKmSt6vectorImSaImEEEEPmET1_T0_SA_S9_
FNDA:0,_ZSt13__copy_move_aILb0EN9__gnu_cxx17__normal_iteratorIPKmSt6vectorImSaImEEEEPmET1_T0_SA_S9_
FN:611,_ZSt4copyIN9__gnu_cxx17__normal_iteratorIPKmSt6vectorImSaImEEEEPmET0_T_SA_S9_
FNDA:0,_ZSt4copyIN9__gnu_cxx17__normal_iteratorIPKmSt6vectorImSaImEEEEPmET0_T_SA_S9_
FN:714,_ZNSt20__copy_move_backwardILb1ELb0ESt26random_access_iterator_tagE13__copy_move_bIP4EdgeS4_EET0_T_S6_S5_
FNDA:0,_ZNSt20__copy_move_backwardILb1ELb0ESt26random_access_iterator_tagE13__copy_move_bIP4EdgeS4_EET0_T_S6_S5_
FN:750,_ZSt23__copy_move_backward_a2ILb1EP4EdgeS1_ET1_T0_S3_S2_
FNDA:0,_ZSt23__copy_move_backward_a2ILb1EP4EdgeS1_ET1_T0_S3_S2_
FN:768,_ZSt23__copy_move_backward_a1ILb1EP4EdgeS1_ET1_T0_S3_S2_
FNDA:0,_ZSt23__copy_move_backward_a1ILb1EP4EdgeS1_ET1_T0_S3_S2_
FN:796,_ZSt22__copy_move_backward_aILb1EN9__gnu_cxx17__normal_iteratorIP4EdgeSt6vectorIS2_SaIS2_EEEES7_ET1_T0_S9_S8_
FNDA:0,_ZSt22__copy_move_backward_aILb1EN9__gnu_cxx17__normal_iteratorIP4EdgeSt6vectorIS2_SaIS2_EEEES7_ET1_T0_S9_S8_
FN:884,_ZSt13move_backwardIN9__gnu_cxx17__normal_iteratorIP4EdgeSt6vectorIS2_SaIS2_EEEES7_ET0_T_S9_S8_
FNDA:0,_ZSt13move_backwardIN9__gnu_cxx17__normal_iteratorIP4EdgeSt6vectorIS2_SaIS2_EEEES7_ET0_T_S9_S8_
FN:919,_ZSt9__fill_a1IPiiEN9__gnu_cxx11__enable_ifIXsrSt11__is_scalarIT0_E7__valueEvE6__typeET_S8_RKS4_
FNDA:0,_ZSt9__fill_a1IPiiEN9__gnu_cxx11__enable_ifIXsrSt11__is_scalarIT0_E7__valueEvE6__typeET_S8_RKS4_
FN:968,_ZSt8__fill_aIPiiEvT_S1_RKT0_
FNDA:0,_ZSt8__fill_aIPiiEvT_S1_RKT0_
FN:1010,_ZSt17__size_to_integerm
FNDA:0,_ZSt17__size_to_integerm
FN:1109,_ZSt10__fill_n_aIPimiET_S1_T0_RKT1_St26random_access_iterator_tag
FNDA:0,_ZSt10__fill_n_aIPimiET_S1_T0_RKT1_St26random_access_iterator_tag
FN:1144,_ZSt6fill_nIPimiET_S1_T0_RKT1_
FNDA:0,_ZSt6fill_nIPimiET_S1_T0_RKT1_
FN:1514,_ZSt4__lgl
FNDA:0,_ZSt4__lgl
DA:152,0
DA:182,0
DA:184,0
DA:230,0
DA:235,0
DA:236,0
DA:237,0
DA:313,0
DA:315,0
DA:328,0
DA:329,0
DA:335,0
DA:336,0
DA:420,0
DA:429,0
DA:430,0
DA:431,0
DA:432,0
DA:486,0
DA:495,0
DA:521,0
DA:522,0
DA:527,0
DA:529,0
DA:532,0
DA:611,0
DA:620,0
DA:714,0
DA:717,0
DA:718,0
DA:719,0
DA:720,0
DA:750,0
DA:760,0
DA:762,0
DA:768,0
DA:769,0
DA:796,0
DA:798,0
DA:801,0
DA:884,0
DA:894,0
DA:896,0
DA:919,0
DA:922,0
DA:923,0
DA:924,0
DA:925,0
DA:968,0
DA:969,0
DA:1010,0
DA:1109,0
DA:1115,0
DA:1116,0
DA:1120,0
DA:1121,0
DA:1144,0
DA:1149,0
DA:1150,0
DA:1514,0
DA:1515,0
end_of_record
SF:/usr/include/c++/11/bits/stl_iterator.h
FN:1027,_ZN9__gnu_cxx17__normal_iteratorIPKmSt6vectorImSaImEEEC2ERKS2_
FNDA:0,_ZN9__gnu_cxx17__normal_iteratorIPKmSt6vectorImSaImEEEC2ERKS2_
FN:1027,_ZN9__gnu_cxx17__normal_iteratorIP4EdgeSt6vectorIS1_SaIS1_EEEC2ERKS2_
FNDA:0,_ZN9__gnu_cxx17__normal_iteratorIP4EdgeSt6vectorIS1_SaIS1_EEEC2ERKS2_
FN:1027,_ZN9__gnu_cxx17__normal_iteratorIPKSt6vectorImSaImEES1_IS3_SaIS3_EEEC2ERKS5_
FNDA:0,_ZN9__gnu_cxx17__normal_iteratorIPKSt6vectorImSaImEES1_IS3_SaIS3_EEEC2ERKS5_
FN:1042,_ZNK9__gnu_cxx17__normal_iteratorIP4EdgeSt6vectorIS1_SaIS1_EEEdeEv
FNDA:0,_ZNK9__gnu_cxx17__normal_iteratorIP4EdgeSt6vectorIS1_SaIS1_EEEdeEv
FN:1042,_ZNK9__gnu_cxx17__normal_iteratorIPKSt6vectorImSaImEES1_IS3_SaIS3_EEEdeEv
FNDA:0,_ZNK9__gnu_cxx17__normal_iteratorIPKSt6vectorImSaImEES1_IS3_SaIS3_EEEdeEv
FN:1052,_ZN9__gnu_cxx17__normal_iteratorIP4EdgeSt6vectorIS1_SaIS1_EEEppEv
FNDA:0,_ZN9__gnu_cxx17__normal_iteratorIP4EdgeSt6vectorIS1_SaIS1_EEEppEv
FN:1052,_ZN9__gnu_cxx17__normal_iteratorIPKSt6vectorImSaImEES1_IS3_SaIS3_EEEppEv
FNDA:0,_ZN9__gnu_cxx17__normal_iteratorIPKSt6vectorImSaImEES1_IS3_SaIS3_EEEppEv
FN:1066,_ZN9__gnu_cxx17__normal_iteratorIP4EdgeSt6vectorIS1_SaIS1_EEEmmEv
FNDA:0,_ZN9__gnu_cxx17__normal_iteratorIP4EdgeSt6vectorIS1_SaIS1_EEEmmEv
FN:1090,_ZNK9__gnu_cxx17__normal_iteratorIP4EdgeSt6vectorIS1_SaIS1_EEEplEl
FNDA:0,_ZNK9__gnu_cxx17__normal_iteratorIP4EdgeSt6vectorIS1_SaIS1_EEEplEl
FN:1100,_ZNK9__gnu_cxx17__normal_iteratorIP4EdgeSt6vectorIS1_SaIS1_EEEmiEl
FNDA:0,_ZNK9__gnu_cxx17__normal_iteratorIP4EdgeSt6vectorIS1_SaIS1_EEEmiEl
FN:1105,_ZNK9__gnu_cxx17__normal_iteratorIPKmSt6vectorImSaImEEE4baseEv
FNDA:0,_ZNK9__gnu_cxx17__normal_iteratorIPKmSt6vectorImSaImEEE4baseEv
FN:1105,_ZNK9__gnu_cxx17__normal_iteratorIPKSt6vectorImSaImEES1_IS3_SaIS3_EEE4baseEv
FNDA:0,_ZNK9__gnu_cxx17__normal_iteratorIPKSt6vectorImSaImEES1_IS3_SaIS3_EEE4baseEv
FN:1105,_ZNK9__gnu_cxx17__normal_iteratorIP4EdgeSt6vectorIS1_SaIS1_EEE4baseEv
FNDA:0,_ZNK9__gnu_cxx17__normal_iteratorIP4EdgeSt6vectorIS1_SaIS1_EEE4baseEv
FN:1163,_ZN9__gnu_cxxeqIP4EdgeSt6vectorIS1_SaIS1_EEEEbRKNS_17__normal_iteratorIT_T0_EESB_
FNDA:0,_ZN9__gnu_cxxeqIP4EdgeSt6vectorIS1_SaIS1_EEEEbRKNS_17__normal_iteratorIT_T0_EESB_
FN:1179,_ZN9__gnu_cxxneIP4EdgeSt6vectorIS1_SaIS1_EEEEbRKNS_17__normal_iteratorIT_T0_EESB_
FNDA:0,_ZN9__gnu_cxxneIP4EdgeSt6vectorIS1_SaIS1_EEEEbRKNS_17__normal_iteratorIT_T0_EESB_
FN:1179,_ZN9__gnu_cxxneIPKSt6vectorImSaImEES1_IS3_SaIS3_EEEEbRKNS_17__normal_iteratorIT_T0_EESD_
FNDA:0,_ZN9__gnu_cxxneIPKSt6vectorImSaImEES1_IS3_SaIS3_EEEEbRKNS_17__normal_iteratorIT_T0_EESD_
FN:1195,_ZN9__gnu_cxxltIP4EdgeSt6vectorIS1_SaIS1_EEEEbRKNS_17__normal_iteratorIT_T0_EESB_
FNDA:0,_ZN9__gnu_cxxltIP4EdgeSt6vectorIS1_SaIS1_EEEEbRKNS_17__normal_iteratorIT_T0_EESB_
FN:1268,_ZN9__gnu_cxxmiIP4EdgeSt6vectorIS1_SaIS1_EEEENS_17__normal_iteratorIT_T0_E15difference_typeERKS9_SC_
FNDA:0,_ZN9__gnu_cxxmiIP4EdgeSt6vectorIS1_SaIS1_EEEENS_17__normal_iteratorIT_T0_E15difference_typeERKS9_SC_
FN:1291,_ZSt12__niter_baseIP4EdgeSt6vectorIS0_SaIS0_EEET_N9__gnu_cxx17__normal_iteratorIS5_T0_EE
FNDA:0,_ZSt12__niter_baseIP4EdgeSt6vectorIS0_SaIS0_EEET_N9__gnu_cxx17__normal_iteratorIS5_T0_EE
FN:1291,_ZSt12__niter_baseIPKmSt6vectorImSaImEEET_N9__gnu_cxx17__normal_iteratorIS5_T0_EE
FNDA:0,_ZSt12__niter_baseIPKmSt6vectorImSaImEEET_N9__gnu_cxx17__normal_iteratorIS5_T0_EE
DA:1027,0
DA:1028,0
DA:1027,0
DA:1028,0
DA:1027,0
DA:1028,0
DA:1042,0
DA:1043,0
DA:1042,0
DA:1043,0
DA:1052,0
DA:1054,0
DA:1055,0
DA:1052,0
DA:1054,0
DA:1055,0
DA:1066,0
DA:1068,0
DA:1069,0
DA:1090,0
DA:1091,0
DA:1100,0
DA:1101,0
DA:1105,0
DA:1106,0
DA:1105,0
DA:1106,0
DA:1105,0
DA:1106,0
DA:1163,0
DA:1166,0
DA:1179,0
DA:1182,0
DA:1179,0
DA:1182,0
DA:1195,0
DA:1198,0
DA:1268,0
DA:1271,0
DA:1291,0
DA:1293,0
DA:1291,0
DA:1293,0
end_of_record
SF:/usr/include/c++/11/ext/alloc_traits.h
FN:97,_ZN9__gnu_cxx14__alloc_traitsISaImEmE17_S_select_on_copyERKS1_
FNDA:0,_ZN9__gnu_cxx14__alloc_traitsISaImEmE17_S_select_on_copyERKS1_
FN:97,_ZN9__gnu_cxx14__alloc_traitsISaISt6vectorImSaImEEES3_E17_S_select_on_copyERKS4_
FNDA:0,_ZN9__gnu_cxx14__alloc_traitsISaISt6vectorImSaImEEES3_E17_S_select_on_copyERKS4_
DA:97,0
DA:98,0
DA:97,0
DA:98,0
end_of_record
SF:/usr/include/c++/11/bits/stl_map.h
FN:302,_ZNSt3mapImmSt4lessImESaISt4pairIKmmEEED2Ev
FNDA:0,_ZNSt3mapImmSt4lessImESaISt4pairIKmmEEED2Ev
DA:302,0
end_of_record
SF:/usr/include/c++/11/bits/stl_uninitialized.h
FN:85,_ZNSt20__uninitialized_copyILb0EE13__uninit_copyINSt8__detail14_Node_iteratorI4EdgeLb1ELb1EEEPS4_EET0_T_S8_S7_
FNDA:1,_ZNSt20__uninitialized_copyILb0EE13__uninit_copyINSt8__detail14_Node_iteratorI4EdgeLb1ELb1EEEPS4_EET0_T_S8_S7_
FN:85,_ZNSt20__uninitialized_copyILb0EE13__uninit_copyIN9__gnu_cxx17__normal_iteratorIPKSt6vectorImSaImEES4_IS6_SaIS6_EEEEPS6_EET0_T_SE_SD_
FNDA:0,_ZNSt20__uninitialized_copyILb0EE13__uninit_copyIN9__gnu_cxx17__normal_iteratorIPKSt6vectorImSaImEES4_IS6_SaIS6_EEEEPS6_EET0_T_SE_SD_
FN:108,_ZNSt20__uninitialized_copyILb1EE13__uninit_copyIN9__gnu_cxx17__normal_iteratorIPKmSt6vectorImSaImEEEEPmEET0_T_SC_SB_
FNDA:0,_ZNSt20__uninitialized_copyILb1EE13__uninit_copyIN9__gnu_cxx17__normal_iteratorIPKmSt6vectorImSaImEEEEPmEET0_T_SC_SB_
FN:126,_ZSt18uninitialized_copyIN9__gnu_cxx17__normal_iteratorIPKmSt6vectorImSaImEEEEPmET0_T_SA_S9_
FNDA:0,_ZSt18uninitialized_copyIN9__gnu_cxx17__normal_iteratorIPKmSt6vectorImSaImEEEEPmET0_T_SA_S9_
FN:126,_ZSt18uninitialized_copyINSt8__detail14_Node_iteratorI4EdgeLb1ELb1EEEPS2_ET0_T_S6_S5_
FNDA:1,_ZSt18uninitialized_copyINSt8__detail14_Node_iteratorI4EdgeLb1ELb1EEEPS2_ET0_T_S6_S5_
FN:126,_ZSt18uninitialized_copyIN9__gnu_cxx17__normal_iteratorIPKSt6vectorImSaImEES2_IS4_SaIS4_EEEEPS4_ET0_T_SC_SB_
FNDA:0,_ZSt18uninitialized_copyIN9__gnu_cxx17__normal_iteratorIPKSt6vectorImSaImEES2_IS4_SaIS4_EEEEPS4_ET0_T_SC_SB_
FN:331,_ZSt22__uninitialized_copy_aIN9__gnu_cxx17__normal_iteratorIPKmSt6vectorImSaImEEEEPmmET0_T_SA_S9_RSaIT1_E
FNDA:0,_ZSt22__uninitialized_copy_aIN9__gnu_cxx17__normal_iteratorIPKmSt6vectorImSaImEEEEPmmET0_T_SA_S9_RSaIT1_E
FN:331,_ZSt22__uninitialized_copy_aINSt8__detail14_Node_iteratorI4EdgeLb1ELb1EEEPS2_S2_ET0_T_S6_S5_RSaIT1_E
FNDA:1,_ZSt22__uninitialized_copy_aINSt8__detail14_Node_iteratorI4EdgeLb1ELb1EEEPS2_S2_ET0_T_S6_S5_RSaIT1_E
FN:331,_ZSt22__uninitialized_copy_aIN9__gnu_cxx17__normal_iteratorIPKSt6vectorImSaImEES2_IS4_SaIS4_EEEEPS4_S4_ET0_T_SC_SB_RSaIT1_E
FNDA:0,_ZSt22__uninitialized_copy_aIN9__gnu_cxx17__normal_iteratorIPKSt6vectorImSaImEES2_IS4_SaIS4_EEEEPS4_S4_ET0_T_SC_SB_RSaIT1_E
FN:595,_ZNSt27__uninitialized_default_n_1ILb1EE18__uninit_default_nIPimEET_S3_T0_
FNDA:1,_ZNSt27__uninitialized_default_n_1ILb1EE18__uninit_default_nIPimEET_S3_T0_
FN:630,_ZSt25__uninitialized_default_nIPimET_S1_T0_
FNDA:1,_ZSt25__uninitialized_default_nIPimET_S1_T0_
FN:702,_ZSt27__uninitialized_default_n_aIPimiET_S1_T0_RSaIT1_E
FNDA:1,_ZSt27__uninitialized_default_n_aIPimiET_S1_T0_RSaIT1_E
DA:85,1
DA:88,1
DA:91,4
DA:92,3
DA:93,1
DA:95,0
DA:97,0
DA:98,0
DA:85,0
DA:88,0
DA:91,0
DA:92,0
DA:93,0
DA:95,0
DA:97,0
DA:98,0
DA:108,0
DA:110,0
DA:126,0
DA:145,0
DA:151,0
DA:126,1
DA:145,1
DA:151,1
DA:126,0
DA:145,0
DA:151,0
DA:331,0
DA:333,0
DA:331,1
DA:333,1
DA:331,0
DA:333,0
DA:595,1
DA:597,1
DA:600,1
DA:601,1
DA:602,1
DA:603,1
DA:605,1
DA:630,1
DA:635,1
DA:640,1
DA:702,1
DA:704,1
end_of_record
SF:/usr/include/c++/11/bits/stl_pair.h
end_of_record
SF:/usr/include/c++/11/bits/alloc_traits.h
FN:463,_ZNSt16allocator_traitsISaISt6vectorImSaImEEEE8allocateERS3_m
FNDA:0,_ZNSt16allocator_traitsISaISt6vectorImSaImEEEE8allocateERS3_m
FN:463,_ZNSt16allocator_traitsISaIiEE8allocateERS0_m
FNDA:0,_ZNSt16allocator_traitsISaIiEE8allocateERS0_m
FN:463,_ZNSt16allocator_traitsISaImEE8allocateERS0_m
FNDA:0,_ZNSt16allocator_traitsISaImEE8allocateERS0_m
FN:463,_ZNSt16allocator_traitsISaI4EdgeEE8allocateERS1_m
FNDA:0,_ZNSt16allocator_traitsISaI4EdgeEE8allocateERS1_m
FN:495,_ZNSt16allocator_traitsISaImEE10deallocateERS0_Pmm
FNDA:0,_ZNSt16allocator_traitsISaImEE10deallocateERS0_Pmm
FN:495,_ZNSt16allocator_traitsISaISt6vectorImSaImEEEE10deallocateERS3_PS2_m
FNDA:0,_ZNSt16allocator_traitsISaISt6vectorImSaImEEEE10deallocateERS3_PS2_m
FN:495,_ZNSt16allocator_traitsISaISt13_Rb_tree_nodeISt4pairIKmmEEEE10deallocateERS5_PS4_m
FNDA:0,_ZNSt16allocator_traitsISaISt13_Rb_tree_nodeISt4pairIKmmEEEE10deallocateERS5_PS4_m
FN:495,_ZNSt16allocator_traitsISaIiEE10deallocateERS0_Pim
FNDA:0,_ZNSt16allocator_traitsISaIiEE10deallocateERS0_Pim
FN:495,_ZNSt16allocator_traitsISaI4EdgeEE10deallocateERS1_PS0_m
FNDA:0,_ZNSt16allocator_traitsISaI4EdgeEE10deallocateERS1_PS0_m
FN:531,_ZNSt16allocator_traitsISaISt13_Rb_tree_nodeISt4pairIKmmEEEE7destroyIS3_EEvRS5_PT_
FNDA:0,_ZNSt16allocator_traitsISaISt13_Rb_tree_nodeISt4pairIKmmEEEE7destroyIS3_EEvRS5_PT_
FN:547,_ZNSt16allocator_traitsISaI4EdgeEE8max_sizeERKS1_
FNDA:0,_ZNSt16allocator_traitsISaI4EdgeEE8max_sizeERKS1_
FN:547,_ZNSt16allocator_traitsISaIiEE8max_sizeERKS0_
FNDA:0,_ZNSt16allocator_traitsISaIiEE8max_sizeERKS0_
FN:562,_ZNSt16allocator_traitsISaImEE37select_on_container_copy_constructionERKS0_
FNDA:0,_ZNSt16allocator_traitsISaImEE37select_on_container_copy_constructionERKS0_
FN:562,_ZNSt16allocator_traitsISaISt6vectorImSaImEEEE37select_on_container_copy_constructionERKS3_
FNDA:0,_ZNSt16allocator_traitsISaISt6vectorImSaImEEEE37select_on_container_copy_constructionERKS3_
FN:710,_ZSt15__alloc_on_moveISaISt6vectorImSaImEEEEvRT_S5_
FNDA:0,_ZSt15__alloc_on_moveISaISt6vectorImSaImEEEEvRT_S5_
FN:845,_ZSt8_DestroyIPmmEvT_S1_RSaIT0_E
FNDA:0,_ZSt8_DestroyIPmmEvT_S1_RSaIT0_E
FN:845,_ZSt8_DestroyIPSt6vectorImSaImEES2_EvT_S4_RSaIT0_E
FNDA:0,_ZSt8_DestroyIPSt6vectorImSaImEES2_EvT_S4_RSaIT0_E
FN:845,_ZSt8_DestroyIPiiEvT_S1_RSaIT0_E
FNDA:0,_ZSt8_DestroyIPiiEvT_S1_RSaIT0_E
FN:845,_ZSt8_DestroyIP4EdgeS0_EvT_S2_RSaIT0_E
FNDA:0,_ZSt8_DestroyIP4EdgeS0_EvT_S2_RSaIT0_E
DA:463,0
DA:464,0
DA:463,0
DA:464,0
DA:463,0
DA:464,0
DA:463,0
DA:464,0
DA:495,0
DA:496,0
DA:495,0
DA:496,0
DA:495,0
DA:496,0
DA:495,0
DA:496,0
DA:495,0
DA:496,0
DA:531,0
DA:535,0
DA:539,0
DA:547,0
DA:550,0
DA:547,0
DA:550,0
DA:562,0
DA:563,0
DA:562,0
DA:563,0
DA:710,0
DA:716,0
DA:720,0
DA:845,0
DA:848,0
DA:849,0
DA:845,0
DA:848,0
DA:849,0
DA:845,0
DA:848,0
DA:849,0
DA:845,0
DA:848,0
DA:849,0
end_of_record
SF:/usr/include/c++/11/ext/new_allocator.h
FN:79,_ZN9__gnu_cxx13new_allocatorI4EdgeEC2Ev
FNDA:0,_ZN9__gnu_cxx13new_allocatorI4EdgeEC2Ev
FN:79,_ZN9__gnu_cxx13new_allocatorISt6vectorImSaImEEEC2Ev
FNDA:0,_ZN9__gnu_cxx13new_allocatorISt6vectorImSaImEEEC2Ev
FN:79,_ZN9__gnu_cxx13new_allocatorIiEC2Ev
FNDA:0,_ZN9__gnu_cxx13new_allocatorIiEC2Ev
FN:82,_ZN9__gnu_cxx13new_allocatorIiEC2ERKS1_
FNDA:0,_ZN9__gnu_cxx13new_allocatorIiEC2ERKS1_
FN:82,_ZN9__gnu_cxx13new_allocatorI4EdgeEC2ERKS2_
FNDA:0,_ZN9__gnu_cxx13new_allocatorI4EdgeEC2ERKS2_
FN:82,_ZN9__gnu_cxx13new_allocatorISt6vectorImSaImEEEC2ERKS4_
FNDA:0,_ZN9__gnu_cxx13new_allocatorISt6vectorImSaImEEEC2ERKS4_
FN:82,_ZN9__gnu_cxx13new_allocatorImEC2ERKS1_
FNDA:0,_ZN9__gnu_cxx13new_allocatorImEC2ERKS1_
FN:89,_ZN9__gnu_cxx13new_allocatorImED2Ev
FNDA:0,_ZN9__gnu_cxx13new_allocatorImED2Ev
FN:89,_ZN9__gnu_cxx13new_allocatorISt13_Rb_tree_nodeISt4pairIKmmEEED2Ev
FNDA:0,_ZN9__gnu_cxx13new_allocatorISt13_Rb_tree_nodeISt4pairIKmmEEED2Ev
FN:89,_ZN9__gnu_cxx13new_allocatorISt6vectorImSaImEEED2Ev
FNDA:0,_ZN9__gnu_cxx13new_allocatorISt6vectorImSaImEEED2Ev
FN:89,_ZN9__gnu_cxx13new_allocatorIiED2Ev
FNDA:0,_ZN9__gnu_cxx13new_allocatorIiED2Ev
FN:89,_ZN9__gnu_cxx13new_allocatorI4EdgeED2Ev
FNDA:0,_ZN9__gnu_cxx13new_allocatorI4EdgeED2Ev
FN:103,_ZN9__gnu_cxx13new_allocatorIiE8allocateEmPKv
FNDA:0,_ZN9__gnu_cxx13new_allocatorIiE8allocateEmPKv
FN:103,_ZN9__gnu_cxx13new_allocatorImE8allocateEmPKv
FNDA:0,_ZN9__gnu_cxx13new_allocatorImE8allocateEmPKv
FN:103,_ZN9__gnu_cxx13new_allocatorI4EdgeE8allocateEmPKv
FNDA:0,_ZN9__gnu_cxx13new_allocatorI4EdgeE8allocateEmPKv
FN:103,_ZN9__gnu_cxx13new_allocatorISt6vectorImSaImEEE8allocateEmPKv
FNDA:0,_ZN9__gnu_cxx13new_allocatorISt6vectorImSaImEEE8allocateEmPKv
FN:132,_ZN9__gnu_cxx13new_allocatorISt13_Rb_tree_nodeISt4pairIKmmEEE10deallocateEPS5_m
FNDA:0,_ZN9__gnu_cxx13new_allocatorISt13_Rb_tree_nodeISt4pairIKmmEEE10deallocateEPS5_m
FN:132,_ZN9__gnu_cxx13new_allocatorIiE10deallocateEPim
FNDA:0,_ZN9__gnu_cxx13new_allocatorIiE10deallocateEPim
FN:132,_ZN9__gnu_cxx13new_allocatorI4EdgeE10deallocateEPS1_m
FNDA:0,_ZN9__gnu_cxx13new_allocatorI4EdgeE10deallocateEPS1_m
FN:132,_ZN9__gnu_cxx13new_allocatorISt6vectorImSaImEEE10deallocateEPS3_m
FNDA:0,_ZN9__gnu_cxx13new_allocatorISt6vectorImSaImEEE10deallocateEPS3_m
FN:132,_ZN9__gnu_cxx13new_allocatorImE10deallocateEPmm
FNDA:0,_ZN9__gnu_cxx13new_allocatorImE10deallocateEPmm
FN:154,_ZNK9__gnu_cxx13new_allocatorIiE8max_sizeEv
FNDA:0,_ZNK9__gnu_cxx13new_allocatorIiE8max_sizeEv
FN:154,_ZNK9__gnu_cxx13new_allocatorI4EdgeE8max_sizeEv
FNDA:0,_ZNK9__gnu_cxx13new_allocatorI4EdgeE8max_sizeEv
FN:166,_ZN9__gnu_cxx13new_allocatorISt13_Rb_tree_nodeISt4pairIKmmEEE7destroyIS4_EEvPT_
FNDA:0,_ZN9__gnu_cxx13new_allocatorISt13_Rb_tree_nodeISt4pairIKmmEEE7destroyIS4_EEvPT_
FN:197,_ZNK9__gnu_cxx13new_allocatorI4EdgeE11_M_max_sizeEv
FNDA:0,_ZNK9__gnu_cxx13new_allocatorI4EdgeE11_M_max_sizeEv
FN:197,_ZNK9__gnu_cxx13new_allocatorIiE11_M_max_sizeEv
FNDA:0,_ZNK9__gnu_cxx13new_allocatorIiE11_M_max_sizeEv
FN:197,_ZNK9__gnu_cxx13new_allocatorISt6vectorImSaImEEE11_M_max_sizeEv
FNDA:0,_ZNK9__gnu_cxx13new_allocatorISt6vectorImSaImEEE11_M_max_sizeEv
FN:197,_ZNK9__gnu_cxx13new_allocatorImE11_M_max_sizeEv
FNDA:0,_ZNK9__gnu_cxx13new_allocatorImE11_M_max_sizeEv
DA:79,0
DA:79,0
DA:79,0
DA:82,0
DA:82,0
DA:82,0
DA:82,0
DA:89,0
DA:89,0
DA:89,0
DA:89,0
DA:89,0
DA:103,0
DA:111,0
DA:115,0
DA:116,0
DA:117,0
DA:127,0
DA:103,0
DA:111,0
DA:115,0
DA:116,0
DA:117,0
DA:127,0
DA:103,0
DA:111,0
DA:115,0
DA:116,0
DA:117,0
DA:127,0
DA:103,0
DA:111,0
DA:115,0
DA:116,0
DA:117,0
DA:127,0
DA:132,0
DA:145,0
DA:132,0
DA:145,0
DA:132,0
DA:145,0
DA:132,0
DA:145,0
DA:132,0
DA:145,0
DA:154,0
DA:155,0
DA:154,0
DA:155,0
DA:166,0
DA:168,0
DA:197,0
DA:200,0
DA:197,0
DA:200,0
DA:197,0
DA:200,0
DA:197,0
DA:200,0
end_of_record
SF:/usr/include/c++/11/bits/stl_vector.h
FN:97,_ZNSt12_Vector_baseImSaImEE17_Vector_impl_dataC2Ev
FNDA:0,_ZNSt12_Vector_baseImSaImEE17_Vector_impl_dataC2Ev
FN:97,_ZNSt12_Vector_baseISt6vectorImSaImEESaIS2_EE17_Vector_impl_dataC2Ev
FNDA:0,_ZNSt12_Vector_baseISt6vectorImSaImEESaIS2_EE17_Vector_impl_dataC2Ev
FN:97,_ZNSt12_Vector_baseIiSaIiEE17_Vector_impl_dataC2Ev
FNDA:0,_ZNSt12_Vector_baseIiSaIiEE17_Vector_impl_dataC2Ev
FN:97,_ZNSt12_Vector_baseI4EdgeSaIS0_EE17_Vector_impl_dataC2Ev
FNDA:0,_ZNSt12_Vector_baseI4EdgeSaIS0_EE17_Vector_impl_dataC2Ev
FN:109,_ZNSt12_Vector_baseISt6vectorImSaImEESaIS2_EE17_Vector_impl_data12_M_copy_dataERKS5_
FNDA:0,_ZNSt12_Vector_baseISt6vectorImSaImEESaIS2_EE17_Vector_impl_data12_M_copy_dataERKS5_
FN:117,_ZNSt12_Vector_baseISt6vectorImSaImEESaIS2_EE17_Vector_impl_data12_M_swap_dataERS5_
FNDA:0,_ZNSt12_Vector_baseISt6vectorImSaImEESaIS2_EE17_Vector_impl_data12_M_swap_dataERS5_
FN:131,_ZNSt12_Vector_baseISt6vectorImSaImEESaIS2_EE12_Vector_implC2Ev
FNDA:0,_ZNSt12_Vector_baseISt6vectorImSaImEESaIS2_EE12_Vector_implC2Ev
FN:136,_ZNSt12_Vector_baseImSaImEE12_Vector_implC2ERKS0_
FNDA:0,_ZNSt12_Vector_baseImSaImEE12_Vector_implC2ERKS0_
FN:136,_ZNSt12_Vector_baseI4EdgeSaIS0_EE12_Vector_implC2ERKS1_
FNDA:0,_ZNSt12_Vector_baseI4EdgeSaIS0_EE12_Vector_implC2ERKS1_
FN:136,_ZNSt12_Vector_baseIiSaIiEE12_Vector_implC2ERKS0_
FNDA:0,_ZNSt12_Vector_baseIiSaIiEE12_Vector_implC2ERKS0_
FN:136,_ZNSt12_Vector_baseISt6vectorImSaImEESaIS2_EE12_Vector_implC2ERKS3_
FNDA:0,_ZNSt12_Vector_baseISt6vectorImSaImEESaIS2_EE12_Vector_implC2ERKS3_
FN:276,_ZNSt12_Vector_baseI4EdgeSaIS0_EE19_M_get_Tp_allocatorEv
FNDA:0,_ZNSt12_Vector_baseI4EdgeSaIS0_EE19_M_get_Tp_allocatorEv
FN:276,_ZNSt12_Vector_baseIiSaIiEE19_M_get_Tp_allocatorEv
FNDA:0,_ZNSt12_Vector_baseIiSaIiEE19_M_get_Tp_allocatorEv
FN:276,_ZNSt12_Vector_baseISt6vectorImSaImEESaIS2_EE19_M_get_Tp_allocatorEv
FNDA:0,_ZNSt12_Vector_baseISt6vectorImSaImEESaIS2_EE19_M_get_Tp_allocatorEv
FN:276,_ZNSt12_Vector_baseImSaImEE19_M_get_Tp_allocatorEv
FNDA:0,_ZNSt12_Vector_baseImSaImEE19_M_get_Tp_allocatorEv
FN:280,_ZNKSt12_Vector_baseISt6vectorImSaImEESaIS2_EE19_M_get_Tp_allocatorEv
FNDA:0,_ZNKSt12_Vector_baseISt6vectorImSaImEESaIS2_EE19_M_get_Tp_allocatorEv
FN:280,_ZNKSt12_Vector_baseImSaImEE19_M_get_Tp_allocatorEv
FNDA:0,_ZNKSt12_Vector_baseImSaImEE19_M_get_Tp_allocatorEv
FN:284,_ZNKSt12_Vector_baseISt6vectorImSaImEESaIS2_EE13get_allocatorEv
FNDA:0,_ZNKSt12_Vector_baseISt6vectorImSaImEESaIS2_EE13get_allocatorEv
FN:288,_ZNSt12_Vector_baseISt6vectorImSaImEESaIS2_EEC2Ev
FNDA:0,_ZNSt12_Vector_baseISt6vectorImSaImEESaIS2_EEC2Ev
FN:293,_ZNSt12_Vector_baseI4EdgeSaIS0_EEC2ERKS1_
FNDA:1,_ZNSt12_Vector_baseI4EdgeSaIS0_EEC2ERKS1_
FN:293,_ZNSt12_Vector_baseISt6vectorImSaImEESaIS2_EEC2ERKS3_
FNDA:0,_ZNSt12_Vector_baseISt6vectorImSaImEESaIS2_EEC2ERKS3_
FN:303,_ZNSt12_Vector_baseIiSaIiEEC2EmRKS0_
FNDA:0,_ZNSt12_Vector_baseIiSaIiEEC2EmRKS0_
FN:303,_ZNSt12_Vector_baseImSaImEEC2EmRKS0_
FNDA:0,_ZNSt12_Vector_baseImSaImEEC2EmRKS0_
FN:303,_ZNSt12_Vector_baseISt6vectorImSaImEESaIS2_EEC2EmRKS3_
FNDA:0,_ZNSt12_Vector_baseISt6vectorImSaImEESaIS2_EEC2EmRKS3_
FN:333,_ZNSt12_Vector_baseISt6vectorImSaImEESaIS2_EED2Ev
FNDA:0,_ZNSt12_Vector_baseISt6vectorImSaImEESaIS2_EED2Ev
FN:333,_ZNSt12_Vector_baseI4EdgeSaIS0_EED2Ev
FNDA:0,_ZNSt12_Vector_baseI4EdgeSaIS0_EED2Ev
FN:333,_ZNSt12_Vector_baseIiSaIiEED2Ev
FNDA:0,_ZNSt12_Vector_baseIiSaIiEED2Ev
FN:333,_ZNSt12_Vector_baseImSaImEED2Ev
FNDA:0,_ZNSt12_Vector_baseImSaImEED2Ev
FN:343,_ZNSt12_Vector_baseIiSaIiEE11_M_allocateEm
FNDA:0,_ZNSt12_Vector_baseIiSaIiEE11_M_allocateEm
FN:343,_ZNSt12_Vector_baseImSaImEE11_M_allocateEm
FNDA:0,_ZNSt12_Vector_baseImSaImEE11_M_allocateEm
FN:343,_ZNSt12_Vector_baseI4EdgeSaIS0_EE11_M_allocateEm
FNDA:0,_ZNSt12_Vector_baseI4EdgeSaIS0_EE11_M_allocateEm
FN:343,_ZNSt12_Vector_baseISt6vectorImSaImEESaIS2_EE11_M_allocateEm
FNDA:0,_ZNSt12_Vector_baseISt6vectorImSaImEESaIS2_EE11_M_allocateEm
FN:350,_ZNSt12_Vector_baseI4EdgeSaIS0_EE13_M_deallocateEPS0_m
FNDA:0,_ZNSt12_Vector_baseI4EdgeSaIS0_EE13_M_deallocateEPS0_m
FN:350,_ZNSt12_Vector_baseImSaImEE13_M_deallocateEPmm
FNDA:0,_ZNSt12_Vector_baseImSaImEE13_M_deallocateEPmm
FN:350,_ZNSt12_Vector_baseISt6vectorImSaImEESaIS2_EE13_M_deallocateEPS2_m
FNDA:0,_ZNSt12_Vector_baseISt6vectorImSaImEESaIS2_EE13_M_deallocateEPS2_m
FN:350,_ZNSt12_Vector_baseIiSaIiEE13_M_deallocateEPim
FNDA:0,_ZNSt12_Vector_baseIiSaIiEE13_M_deallocateEPim
FN:359,_ZNSt12_Vector_baseImSaImEE17_M_create_storageEm
FNDA:0,_ZNSt12_Vector_baseImSaImEE17_M_create_storageEm
FN:359,_ZNSt12_Vector_baseISt6vectorImSaImEESaIS2_EE17_M_create_storageEm
FNDA:0,_ZNSt12_Vector_baseISt6vectorImSaImEESaIS2_EE17_M_create_storageEm
FN:359,_ZNSt12_Vector_baseIiSaIiEE17_M_create_storageEm
FNDA:0,_ZNSt12_Vector_baseIiSaIiEE17_M_create_storageEm
FN:487,_ZNSt6vectorIS_ImSaImEESaIS1_EEC2Ev
FNDA:0,_ZNSt6vectorIS_ImSaImEESaIS1_EEC2Ev
FN:497,_ZNSt6vectorIS_ImSaImEESaIS1_EEC2ERKS2_
FNDA:0,_ZNSt6vectorIS_ImSaImEESaIS1_EEC2ERKS2_
FN:510,_ZNSt6vectorIiSaIiEEC2EmRKS0_
FNDA:1,_ZNSt6vectorIiSaIiEEC2EmRKS0_
FN:553,_ZNSt6vectorImSaImEEC2ERKS1_
FNDA:0,_ZNSt6vectorImSaImEEC2ERKS1_
FN:553,_ZNSt6vectorIS_ImSaImEESaIS1_EEC2ERKS3_
FNDA:0,_ZNSt6vectorIS_ImSaImEESaIS1_EEC2ERKS3_
FN:653,_ZNSt6vectorI4EdgeSaIS0_EEC2INSt8__detail14_Node_iteratorIS0_Lb1ELb1EEEvEET_S7_RKS1_
FNDA:1,_ZNSt6vectorI4EdgeSaIS0_EEC2INSt8__detail14_Node_iteratorIS0_Lb1ELb1EEEvEET_S7_RKS1_
FN:678,_ZNSt6vectorIiSaIiEED2Ev
FNDA:0,_ZNSt6vectorIiSaIiEED2Ev
FN:678,_ZNSt6vectorImSaImEED2Ev
FNDA:0,_ZNSt6vectorImSaImEED2Ev
FN:678,_ZNSt6vectorI4EdgeSaIS0_EED2Ev
FNDA:0,_ZNSt6vectorI4EdgeSaIS0_EED2Ev
FN:678,_ZNSt6vectorIS_ImSaImEESaIS1_EED2Ev
FNDA:0,_ZNSt6vectorIS_ImSaImEESaIS1_EED2Ev
FN:709,_ZNSt6vectorIS_ImSaImEESaIS1_EEaSEOS3_
FNDA:0,_ZNSt6vectorIS_ImSaImEESaIS1_EEaSEOS3_
FN:811,_ZNSt6vectorI4EdgeSaIS0_EE5beginEv
FNDA:0,_ZNSt6vectorI4EdgeSaIS0_EE5beginEv
FN:820,_ZNKSt6vectorImSaImEE5beginEv
FNDA:0,_ZNKSt6vectorImSaImEE5beginEv
FN:820,_ZNKSt6vectorIS_ImSaImEESaIS1_EE5beginEv
FNDA:0,_ZNKSt6vectorIS_ImSaImEESaIS1_EE5beginEv
FN:829,_ZNSt6vectorI4EdgeSaIS0_EE3endEv
FNDA:0,_ZNSt6vectorI4EdgeSaIS0_EE3endEv
FN:838,_ZNKSt6vectorIS_ImSaImEESaIS1_EE3endEv
FNDA:0,_ZNKSt6vectorIS_ImSaImEESaIS1_EE3endEv
FN:838,_ZNKSt6vectorImSaImEE3endEv
FNDA:0,_ZNKSt6vectorImSaImEE3endEv
FN:918,_ZNKSt6vectorImSaImEE4sizeEv
FNDA:0,_ZNKSt6vectorImSaImEE4sizeEv
FN:918,_ZNKSt6vectorIS_ImSaImEESaIS1_EE4sizeEv
FNDA:0,_ZNKSt6vectorIS_ImSaImEESaIS1_EE4sizeEv
FN:1043,_ZNSt6vectorIiSaIiEEixEm
FNDA:0,_ZNSt6vectorIiSaIiEEixEm
FN:1577,_ZNSt6vectorI4EdgeSaIS0_EE19_M_range_initializeINSt8__detail14_Node_iteratorIS0_Lb1ELb1EEEEEvT_S7_St20forward_iterator_tag
FNDA:1,_ZNSt6vectorI4EdgeSaIS0_EE19_M_range_initializeINSt8__detail14_Node_iteratorIS0_Lb1ELb1EEEEEvT_S7_St20forward_iterator_tag
FN:1603,_ZNSt6vectorIiSaIiEE21_M_default_initializeEm
FNDA:1,_ZNSt6vectorIiSaIiEE21_M_default_initializeEm
FN:1767,_ZNSt6vectorIiSaIiEE17_S_check_init_lenEmRKS0_
FNDA:0,_ZNSt6vectorIiSaIiEE17_S_check_init_lenEmRKS0_
FN:1767,_ZNSt6vectorI4EdgeSaIS0_EE17_S_check_init_lenEmRKS1_
FNDA:0,_ZNSt6vectorI4EdgeSaIS0_EE17_S_check_init_lenEmRKS1_
FN:1776,_ZNSt6vectorI4EdgeSaIS0_EE11_S_max_sizeERKS1_
FNDA:0,_ZNSt6vectorI4EdgeSaIS0_EE11_S_max_sizeERKS1_
FN:1776,_ZNSt6vectorIiSaIiEE11_S_max_sizeERKS0_
FNDA:0,_ZNSt6vectorIiSaIiEE11_S_max_sizeERKS0_
FN:1815,_ZNSt6vectorIS_ImSaImEESaIS1_EE14_M_move_assignEOS3_St17integral_constantIbLb1EE
FNDA:0,_ZNSt6vectorIS_ImSaImEESaIS1_EE14_M_move_assignEOS3_St17integral_constantIbLb1EE
DA:97,0
DA:98,0
DA:99,0
DA:97,0
DA:98,0
DA:99,0
DA:97,0
DA:98,0
DA:99,0
DA:97,0
DA:98,0
DA:99,0
DA:109,0
DA:111,0
DA:112,0
DA:113,0
DA:114,0
DA:117,0
DA:121,0
DA:122,0
DA:123,0
DA:124,0
DA:125,0
DA:131,0
DA:133,0
DA:134,0
DA:136,0
DA:137,0
DA:138,0
DA:136,0
DA:137,0
DA:138,0
DA:136,0
DA:137,0
DA:138,0
DA:136,0
DA:137,0
DA:138,0
DA:276,0
DA:277,0
DA:276,0
DA:277,0
DA:276,0
DA:277,0
DA:276,0
DA:277,0
DA:280,0
DA:281,0
DA:280,0
DA:281,0
DA:284,0
DA:285,0
DA:288,0
DA:293,0
DA:294,0
DA:293,1
DA:294,1
DA:303,0
DA:304,0
DA:305,0
DA:303,0
DA:304,0
DA:305,0
DA:303,0
DA:304,0
DA:305,0
DA:333,0
DA:335,0
DA:336,0
DA:337,0
DA:333,0
DA:335,0
DA:336,0
DA:337,0
DA:333,0
DA:335,0
DA:336,0
DA:337,0
DA:333,0
DA:335,0
DA:336,0
DA:337,0
DA:343,0
DA:346,0
DA:343,0
DA:346,0
DA:343,0
DA:346,0
DA:343,0
DA:346,0
DA:350,0
DA:353,0
DA:354,0
DA:355,0
DA:350,0
DA:353,0
DA:354,0
DA:355,0
DA:350,0
DA:353,0
DA:354,0
DA:355,0
DA:350,0
DA:353,0
DA:354,0
DA:355,0
DA:359,0
DA:361,0
DA:362,0
DA:363,0
DA:364,0
DA:359,0
DA:361,0
DA:362,0
DA:363,0
DA:364,0
DA:359,0
DA:361,0
DA:362,0
DA:363,0
DA:364,0
DA:487,0
DA:497,0
DA:498,0
DA:510,1
DA:511,1
DA:512,1
DA:553,0
DA:555,0
DA:557,0
DA:558,0
DA:560,0
DA:561,0
DA:553,0
DA:555,0
DA:557,0
DA:558,0
DA:560,0
DA:561,0
DA:653,1
DA:655,1
DA:657,1
DA:658,1
DA:659,1
DA:678,0
DA:680,0
DA:681,0
DA:683,0
DA:678,0
DA:680,0
DA:681,0
DA:683,0
DA:678,0
DA:680,0
DA:681,0
DA:683,0
DA:678,0
DA:680,0
DA:681,0
DA:683,0
DA:709,0
DA:711,0
DA:714,0
DA:715,0
DA:811,0
DA:812,0
DA:820,0
DA:821,0
DA:820,0
DA:821,0
DA:829,0
DA:830,0
DA:838,0
DA:839,0
DA:838,0
DA:839,0
DA:918,0
DA:919,0
DA:918,0
DA:919,0
DA:1043,0
DA:1046,0
DA:1577,1
DA:1580,1
DA:1582,1
DA:1583,1
DA:1584,1
DA:1585,1
DA:1587,1
DA:1588,1
DA:1603,1
DA:1605,1
DA:1606,1
DA:1607,1
DA:1608,1
DA:1767,0
DA:1769,0
DA:1770,0
DA:1772,0
DA:1767,0
DA:1769,0
DA:1770,0
DA:1772,0
DA:1776,0
DA:1781,0
DA:1783,0
DA:1784,0
DA:1776,0
DA:1781,0
DA:1783,0
DA:1784,0
DA:1815,0
DA:1817,0
DA:1818,0
DA:1819,0
DA:1820,0
DA:1821,0
end_of_record
TN:
SF:/usr/include/c++/11/bits/stl_function.h
FN:399,_ZNKSt4lessINSt7__cxx1112basic_stringIcSt11char_traitsIcESaIcEEEEclERKS5_S8_
FNDA:51,_ZNKSt4lessINSt7__cxx1112basic_stringIcSt11char_traitsIcESaIcEEEEclERKS5_S8_
FN:1174,_ZNKSt10_Select1stISt4pairIKNSt7__cxx1112basic_stringIcSt11char_traitsIcESaIcEEEP12MST_StrategyEEclERKSA_
FNDA:50,_ZNKSt10_Select1stISt4pairIKNSt7__cxx1112basic_stringIcSt11char_traitsIcESaIcEEEP12MST_StrategyEEclERKSA_
DA:399,51
DA:400,51
DA:1174,50
DA:1175,50
end_of_record
SF:/home/imri/OS-FinalProject/MST/Tarjan.hpp
end_of_record
SF:/usr/include/c++/11/ext/aligned_buffer.h
FN:64,_ZN9__gnu_cxx16__aligned_membufISt4pairIKNSt7__cxx1112basic_stringIcSt11char_traitsIcESaIcEEEP12MST_StrategyEE7_M_addrEv
FNDA:28,_ZN9__gnu_cxx16__aligned_membufISt4pairIKNSt7__cxx1112basic_stringIcSt11char_traitsIcESaIcEEEP12MST_StrategyEE7_M_addrEv
FN:68,_ZNK9__gnu_cxx16__aligned_membufISt4pairIKNSt7__cxx1112basic_stringIcSt11char_traitsIcESaIcEEEP12MST_StrategyEE7_M_addrEv
FNDA:43,_ZNK9__gnu_cxx16__aligned_membufISt4pairIKNSt7__cxx1112basic_stringIcSt11char_traitsIcESaIcEEEP12MST_StrategyEE7_M_addrEv
FN:72,_ZN9__gnu_cxx16__aligned_membufISt4pairIKNSt7__cxx1112basic_stringIcSt11char_traitsIcESaIcEEEP12MST_StrategyEE6_M_ptrEv
FNDA:28,_ZN9__gnu_cxx16__aligned_membufISt4pairIKNSt7__cxx1112basic_stringIcSt11char_traitsIcESaIcEEEP12MST_StrategyEE6_M_ptrEv
FN:76,_ZNK9__gnu_cxx16__aligned_membufISt4pairIKNSt7__cxx1112basic_stringIcSt11char_traitsIcESaIcEEEP12MST_StrategyEE6_M_ptrEv
FNDA:43,_ZNK9__gnu_cxx16__aligned_membufISt4pairIKNSt7__cxx1112basic_stringIcSt11char_traitsIcESaIcEEEP12MST_StrategyEE6_M_ptrEv
DA:64,28
DA:65,28
DA:68,43
DA:69,43
DA:72,28
DA:73,28
DA:76,43
DA:77,43
end_of_record
SF:/usr/include/c++/11/bits/stl_iterator_base_funcs.h
FN:98,_ZSt10__distanceIPcENSt15iterator_traitsIT_E15difference_typeES2_S2_St26random_access_iterator_tag
FNDA:0,_ZSt10__distanceIPcENSt15iterator_traitsIT_E15difference_typeES2_S2_St26random_access_iterator_tag
FN:98,_ZSt10__distanceIPKcENSt15iterator_traitsIT_E15difference_typeES3_S3_St26random_access_iterator_tag
FNDA:0,_ZSt10__distanceIPKcENSt15iterator_traitsIT_E15difference_typeES3_S3_St26random_access_iterator_tag
FN:138,_ZSt8distanceIPcENSt15iterator_traitsIT_E15difference_typeES2_S2_
FNDA:0,_ZSt8distanceIPcENSt15iterator_traitsIT_E15difference_typeES2_S2_
FN:138,_ZSt8distanceIPKcENSt15iterator_traitsIT_E15difference_typeES3_S3_
FNDA:0,_ZSt8distanceIPKcENSt15iterator_traitsIT_E15difference_typeES3_S3_
DA:98,0
DA:104,0
DA:98,0
DA:104,0
DA:138,0
DA:141,0
DA:142,0
DA:138,0
DA:141,0
DA:142,0
end_of_record
SF:/home/imri/OS-FinalProject/MST/Kruskal.hpp
end_of_record
SF:/usr/include/c++/11/bits/stl_iterator_base_types.h
FN:238,_ZSt19__iterator_categoryIPcENSt15iterator_traitsIT_E17iterator_categoryERKS2_
FNDA:0,_ZSt19__iterator_categoryIPcENSt15iterator_traitsIT_E17iterator_categoryERKS2_
FN:238,_ZSt19__iterator_categoryIPKcENSt15iterator_traitsIT_E17iterator_categoryERKS3_
FNDA:0,_ZSt19__iterator_categoryIPKcENSt15iterator_traitsIT_E17iterator_categoryERKS3_
DA:238,0
DA:239,0
DA:238,0
DA:239,0
end_of_record
SF:/usr/include/c++/11/bits/move.h
FN:77,_ZSt7forwardISt5tupleIJONSt7__cxx1112basic_stringIcSt11char_traitsIcESaIcEEEEEEOT_RNSt16remove_referenceIS9_E4typeE
FNDA:0,_ZSt7forwardISt5tupleIJONSt7__cxx1112basic_stringIcSt11char_traitsIcESaIcEEEEEEOT_RNSt16remove_referenceIS9_E4typeE
FN:77,_ZSt7forwardIDnEOT_RNSt16remove_referenceIS0_E4typeE
FNDA:0,_ZSt7forwardIDnEOT_RNSt16remove_referenceIS0_E4typeE
FN:77,_ZSt7forwardIRA5_KcEOT_RNSt16remove_referenceIS3_E4typeE
FNDA:1,_ZSt7forwardIRA5_KcEOT_RNSt16remove_referenceIS3_E4typeE
FN:77,_ZSt7forwardIRA8_KcEOT_RNSt16remove_referenceIS3_E4typeE
FNDA:2,_ZSt7forwardIRA8_KcEOT_RNSt16remove_referenceIS3_E4typeE
FN:77,_ZSt7forwardIRA7_KcEOT_RNSt16remove_referenceIS3_E4typeE
FNDA:1,_ZSt7forwardIRA7_KcEOT_RNSt16remove_referenceIS3_E4typeE
FN:77,_ZSt7forwardINSt7__cxx1112basic_stringIcSt11char_traitsIcESaIcEEEEOT_RNSt16remove_referenceIS6_E4typeE
FNDA:128,_ZSt7forwardINSt7__cxx1112basic_stringIcSt11char_traitsIcESaIcEEEEOT_RNSt16remove_referenceIS6_E4typeE
FN:77,_ZSt7forwardIRKSt21piecewise_construct_tEOT_RNSt16remove_referenceIS3_E4typeE
FNDA:0,_ZSt7forwardIRKSt21piecewise_construct_tEOT_RNSt16remove_referenceIS3_E4typeE
FN:77,_ZSt7forwardIRKNSt7__cxx1112basic_stringIcSt11char_traitsIcESaIcEEEEOT_RNSt16remove_referenceIS8_E4typeE
FNDA:0,_ZSt7forwardIRKNSt7__cxx1112basic_stringIcSt11char_traitsIcESaIcEEEEOT_RNSt16remove_referenceIS8_E4typeE
FN:77,_ZSt7forwardISt5tupleIJEEEOT_RNSt16remove_referenceIS2_E4typeE
FNDA:0,_ZSt7forwardISt5tupleIJEEEOT_RNSt16remove_referenceIS2_E4typeE
FN:77,_ZSt7forwardISt5tupleIJRKNSt7__cxx1112basic_stringIcSt11char_traitsIcESaIcEEEEEEOT_RNSt16remove_referenceISA_E4typeE
FNDA:0,_ZSt7forwardISt5tupleIJRKNSt7__cxx1112basic_stringIcSt11char_traitsIcESaIcEEEEEEOT_RNSt16remove_referenceISA_E4typeE
FN:77,_ZSt7forwardIRKSt4pairIKNSt7__cxx1112basic_stringIcSt11char_traitsIcESaIcEEEP12MST_StrategyEEOT_RNSt16remove_referenceISD_E4typeE
FNDA:28,_ZSt7forwardIRKSt4pairIKNSt7__cxx1112basic_stringIcSt11char_traitsIcESaIcEEEP12MST_StrategyEEOT_RNSt16remove_referenceISD_E4typeE
FN:77,_ZSt7forwardIRPSt18_Rb_tree_node_baseEOT_RNSt16remove_referenceIS3_E4typeE
FNDA:0,_ZSt7forwardIRPSt18_Rb_tree_node_baseEOT_RNSt16remove_referenceIS3_E4typeE
FN:77,_ZSt7forwardIRPSt13_Rb_tree_nodeISt4pairIKNSt7__cxx1112basic_stringIcSt11char_traitsIcESaIcEEEP12MST_StrategyEEEOT_RNSt16remove_referenceISF_E4typeE
FNDA:3,_ZSt7forwardIRPSt13_Rb_tree_nodeISt4pairIKNSt7__cxx1112basic_stringIcSt11char_traitsIcESaIcEEEP12MST_StrategyEEEOT_RNSt16remove_referenceISF_E4typeE
FN:77,_ZSt7forwardIONSt7__cxx1112basic_stringIcSt11char_traitsIcESaIcEEEEOT_RNSt16remove_referenceIS7_E4typeE
FNDA:0,_ZSt7forwardIONSt7__cxx1112basic_stringIcSt11char_traitsIcESaIcEEEEOT_RNSt16remove_referenceIS7_E4typeE
FN:104,_ZSt4moveIRSaISt13_Rb_tree_nodeISt4pairIKNSt7__cxx1112basic_stringIcSt11char_traitsIcESaIcEEEP12MST_StrategyEEEEONSt16remove_referenceIT_E4typeEOSG_
FNDA:1,_ZSt4moveIRSaISt13_Rb_tree_nodeISt4pairIKNSt7__cxx1112basic_stringIcSt11char_traitsIcESaIcEEEP12MST_StrategyEEEEONSt16remove_referenceIT_E4typeEOSG_
FN:104,_ZSt4moveIRNSt7__cxx1112basic_stringIcSt11char_traitsIcESaIcEEEEONSt16remove_referenceIT_E4typeEOS8_
FNDA:0,_ZSt4moveIRNSt7__cxx1112basic_stringIcSt11char_traitsIcESaIcEEEEONSt16remove_referenceIT_E4typeEOS8_
FN:104,_ZSt4moveIRSaIcEEONSt16remove_referenceIT_E4typeEOS3_
FNDA:0,_ZSt4moveIRSaIcEEONSt16remove_referenceIT_E4typeEOS3_
DA:77,0
DA:78,0
DA:77,0
DA:78,0
DA:77,3
DA:78,3
DA:77,0
DA:78,0
DA:77,28
DA:78,28
DA:77,0
DA:78,0
DA:77,0
DA:78,0
DA:77,0
DA:78,0
DA:77,0
DA:78,0
DA:77,128
DA:78,128
DA:77,1
DA:78,1
DA:77,2
DA:78,2
DA:77,1
DA:78,1
DA:77,0
DA:78,0
DA:104,1
DA:105,1
DA:104,0
DA:105,0
DA:104,0
DA:105,0
end_of_record
SF:/home/imri/OS-FinalProject/MST/MST_Factory.cpp
FN:12,_ZN11MST_Factory11getInstanceEv
FNDA:4,_ZN11MST_Factory11getInstanceEv
FN:26,_ZN11MST_Factory9createMSTENSt7__cxx1112basic_stringIcSt11char_traitsIcESaIcEEE
FNDA:4,_ZN11MST_Factory9createMSTENSt7__cxx1112basic_stringIcSt11char_traitsIcESaIcEEE
FN:36,_ZN11MST_Factory7cleanUpEv
FNDA:1,_ZN11MST_Factory7cleanUpEv
DA:12,4
DA:14,4
DA:16,1
DA:17,1
DA:18,1
DA:19,1
DA:20,1
DA:21,1
DA:23,4
DA:26,4
DA:28,4
DA:29,4
DA:31,8
DA:33,0
DA:34,4
DA:36,1
DA:38,1
DA:39,1
DA:41,1
DA:42,1
DA:43,5
DA:45,4
DA:46,4
DA:49,1
end_of_record
SF:/usr/include/c++/11/iostream
end_of_record
SF:/usr/include/x86_64-linux-gnu/c++/11/bits/gthr-default.h
FN:300,_ZL18__gthread_active_pv
FNDA:0,_ZL18__gthread_active_pv
FN:746,_ZL20__gthread_mutex_lockP15pthread_mutex_t
FNDA:0,_ZL20__gthread_mutex_lockP15pthread_mutex_t
FN:776,_ZL22__gthread_mutex_unlockP15pthread_mutex_t
FNDA:0,_ZL22__gthread_mutex_unlockP15pthread_mutex_t
DA:300,0
DA:302,0
DA:746,0
DA:748,0
DA:749,0
DA:751,0
DA:776,0
DA:778,0
DA:779,0
DA:781,0
end_of_record
SF:/usr/include/c++/11/initializer_list
FN:71,_ZNKSt16initializer_listISt4pairIKNSt7__cxx1112basic_stringIcSt11char_traitsIcESaIcEEEP12MST_StrategyEE4sizeEv
FNDA:1,_ZNKSt16initializer_listISt4pairIKNSt7__cxx1112basic_stringIcSt11char_traitsIcESaIcEEEP12MST_StrategyEE4sizeEv
FN:75,_ZNKSt16initializer_listISt4pairIKNSt7__cxx1112basic_stringIcSt11char_traitsIcESaIcEEEP12MST_StrategyEE5beginEv
FNDA:2,_ZNKSt16initializer_listISt4pairIKNSt7__cxx1112basic_stringIcSt11char_traitsIcESaIcEEEP12MST_StrategyEE5beginEv
FN:79,_ZNKSt16initializer_listISt4pairIKNSt7__cxx1112basic_stringIcSt11char_traitsIcESaIcEEEP12MST_StrategyEE3endEv
FNDA:1,_ZNKSt16initializer_listISt4pairIKNSt7__cxx1112basic_stringIcSt11char_traitsIcESaIcEEEP12MST_StrategyEE3endEv
DA:71,1
DA:75,2
DA:79,1
end_of_record
SF:/usr/include/c++/11/bits/alloc_traits.h
FN:463,_ZNSt16allocator_traitsISaISt13_Rb_tree_nodeISt4pairIKNSt7__cxx1112basic_stringIcSt11char_traitsIcESaIcEEEP12MST_StrategyEEEE8allocateERSD_m
FNDA:4,_ZNSt16allocator_traitsISaISt13_Rb_tree_nodeISt4pairIKNSt7__cxx1112basic_stringIcSt11char_traitsIcESaIcEEEP12MST_StrategyEEEE8allocateERSD_m
FN:495,_ZNSt16allocator_traitsISaISt13_Rb_tree_nodeISt4pairIKNSt7__cxx1112basic_stringIcSt11char_traitsIcESaIcEEEP12MST_StrategyEEEE10deallocateERSD_PSC_m
FNDA:4,_ZNSt16allocator_traitsISaISt13_Rb_tree_nodeISt4pairIKNSt7__cxx1112basic_stringIcSt11char_traitsIcESaIcEEEP12MST_StrategyEEEE10deallocateERSD_PSC_m
FN:511,_ZNSt16allocator_traitsISaISt13_Rb_tree_nodeISt4pairIKNSt7__cxx1112basic_stringIcSt11char_traitsIcESaIcEEEP12MST_StrategyEEEE9constructISB_JRKSB_EEEvRSD_PT_DpOT0_
FNDA:4,_ZNSt16allocator_traitsISaISt13_Rb_tree_nodeISt4pairIKNSt7__cxx1112basic_stringIcSt11char_traitsIcESaIcEEEP12MST_StrategyEEEE9constructISB_JRKSB_EEEvRSD_PT_DpOT0_
FN:511,_ZNSt16allocator_traitsISaISt13_Rb_tree_nodeISt4pairIKNSt7__cxx1112basic_stringIcSt11char_traitsIcESaIcEEEP12MST_StrategyEEEE9constructISB_JRKSt21piecewise_construct_tSt5tupleIJRS8_EESJ_IJEEEEEvRSD_PT_DpOT0_
FNDA:0,_ZNSt16allocator_traitsISaISt13_Rb_tree_nodeISt4pairIKNSt7__cxx1112basic_stringIcSt11char_traitsIcESaIcEEEP12MST_StrategyEEEE9constructISB_JRKSt21piecewise_construct_tSt5tupleIJRS8_EESJ_IJEEEEEvRSD_PT_DpOT0_
FN:511,_ZNSt16allocator_traitsISaISt13_Rb_tree_nodeISt4pairIKNSt7__cxx1112basic_stringIcSt11char_traitsIcESaIcEEEP12MST_StrategyEEEE9constructISB_JRKSt21piecewise_construct_tSt5tupleIJOS7_EESJ_IJEEEEEvRSD_PT_DpOT0_
FNDA:0,_ZNSt16allocator_traitsISaISt13_Rb_tree_nodeISt4pairIKNSt7__cxx1112basic_stringIcSt11char_traitsIcESaIcEEEP12MST_StrategyEEEE9constructISB_JRKSt21piecewise_construct_tSt5tupleIJOS7_EESJ_IJEEEEEvRSD_PT_DpOT0_
FN:531,_ZNSt16allocator_traitsISaISt13_Rb_tree_nodeISt4pairIKNSt7__cxx1112basic_stringIcSt11char_traitsIcESaIcEEEP12MST_StrategyEEEE7destroyISB_EEvRSD_PT_
FNDA:4,_ZNSt16allocator_traitsISaISt13_Rb_tree_nodeISt4pairIKNSt7__cxx1112basic_stringIcSt11char_traitsIcESaIcEEEP12MST_StrategyEEEE7destroyISB_EEvRSD_PT_
FN:562,_ZNSt16allocator_traitsISaIcEE37select_on_container_copy_constructionERKS0_
FNDA:0,_ZNSt16allocator_traitsISaIcEE37select_on_container_copy_constructionERKS0_
DA:463,4
DA:464,4
DA:495,4
DA:496,4
DA:511,4
DA:516,4
DA:520,4
DA:511,0
DA:516,0
DA:520,0
DA:511,0
DA:516,0
DA:520,0
DA:531,4
DA:535,4
DA:539,4
DA:562,0
DA:563,0
end_of_record
SF:/usr/include/c++/11/bits/stl_pair.h
FN:314,_ZNSt4pairIKNSt7__cxx1112basic_stringIcSt11char_traitsIcESaIcEEEP12MST_StrategyEC2ERKS9_
FNDA:4,_ZNSt4pairIKNSt7__cxx1112basic_stringIcSt11char_traitsIcESaIcEEEP12MST_StrategyEC2ERKS9_
FN:322,_ZNSt4pairIPSt18_Rb_tree_node_baseS1_EC2IRS1_Lb1EEEOT_RKS1_
FNDA:0,_ZNSt4pairIPSt18_Rb_tree_node_baseS1_EC2IRS1_Lb1EEEOT_RKS1_
FN:336,_ZNSt4pairIPSt18_Rb_tree_node_baseS1_EC2IRS1_Lb1EEERKS1_OT_
FNDA:0,_ZNSt4pairIPSt18_Rb_tree_node_baseS1_EC2IRS1_Lb1EEERKS1_OT_
FN:352,_ZNSt4pairIPSt18_Rb_tree_node_baseS1_EC2IRPSt13_Rb_tree_nodeIS_IKNSt7__cxx1112basic_stringIcSt11char_traitsIcESaIcEEEP12MST_StrategyEERS1_Lb1EEEOT_OT0_
FNDA:3,_ZNSt4pairIPSt18_Rb_tree_node_baseS1_EC2IRPSt13_Rb_tree_nodeIS_IKNSt7__cxx1112basic_stringIcSt11char_traitsIcESaIcEEEP12MST_StrategyEERS1_Lb1EEEOT_OT0_
FN:352,_ZNSt4pairIPSt18_Rb_tree_node_baseS1_EC2IRS1_S4_Lb1EEEOT_OT0_
FNDA:0,_ZNSt4pairIPSt18_Rb_tree_node_baseS1_EC2IRS1_S4_Lb1EEEOT_OT0_
FN:352,_ZNSt4pairIKNSt7__cxx1112basic_stringIcSt11char_traitsIcESaIcEEEP12MST_StrategyEC1IRA7_KcDnLb1EEEOT_OT0_
FNDA:1,_ZNSt4pairIKNSt7__cxx1112basic_stringIcSt11char_traitsIcESaIcEEEP12MST_StrategyEC1IRA7_KcDnLb1EEEOT_OT0_
FN:352,_ZNSt4pairIKNSt7__cxx1112basic_stringIcSt11char_traitsIcESaIcEEEP12MST_StrategyEC1IRA8_KcDnLb1EEEOT_OT0_
FNDA:2,_ZNSt4pairIKNSt7__cxx1112basic_stringIcSt11char_traitsIcESaIcEEEP12MST_StrategyEC1IRA8_KcDnLb1EEEOT_OT0_
FN:352,_ZNSt4pairIKNSt7__cxx1112basic_stringIcSt11char_traitsIcESaIcEEEP12MST_StrategyEC1IRA5_KcDnLb1EEEOT_OT0_
FNDA:1,_ZNSt4pairIKNSt7__cxx1112basic_stringIcSt11char_traitsIcESaIcEEEP12MST_StrategyEC1IRA5_KcDnLb1EEEOT_OT0_
DA:314,4
DA:322,0
DA:323,0
DA:336,0
DA:337,0
DA:352,3
DA:353,3
DA:352,0
DA:353,0
DA:352,1
DA:353,1
DA:352,2
DA:353,2
DA:352,1
DA:353,1
end_of_record
SF:/usr/include/c++/11/ext/new_allocator.h
FN:79,_ZN9__gnu_cxx13new_allocatorISt13_Rb_tree_nodeISt4pairIKNSt7__cxx1112basic_stringIcSt11char_traitsIcESaIcEEEP12MST_StrategyEEEC2Ev
FNDA:1,_ZN9__gnu_cxx13new_allocatorISt13_Rb_tree_nodeISt4pairIKNSt7__cxx1112basic_stringIcSt11char_traitsIcESaIcEEEP12MST_StrategyEEEC2Ev
FN:79,_ZN9__gnu_cxx13new_allocatorISt4pairIKNSt7__cxx1112basic_stringIcSt11char_traitsIcESaIcEEEP12MST_StrategyEEC2Ev
FNDA:1,_ZN9__gnu_cxx13new_allocatorISt4pairIKNSt7__cxx1112basic_stringIcSt11char_traitsIcESaIcEEEP12MST_StrategyEEC2Ev
FN:79,_ZN9__gnu_cxx13new_allocatorIcEC2Ev
FNDA:0,_ZN9__gnu_cxx13new_allocatorIcEC2Ev
FN:82,_ZN9__gnu_cxx13new_allocatorISt13_Rb_tree_nodeISt4pairIKNSt7__cxx1112basic_stringIcSt11char_traitsIcESaIcEEEP12MST_StrategyEEEC2ERKSE_
FNDA:1,_ZN9__gnu_cxx13new_allocatorISt13_Rb_tree_nodeISt4pairIKNSt7__cxx1112basic_stringIcSt11char_traitsIcESaIcEEEP12MST_StrategyEEEC2ERKSE_
FN:82,_ZN9__gnu_cxx13new_allocatorIcEC2ERKS1_
FNDA:0,_ZN9__gnu_cxx13new_allocatorIcEC2ERKS1_
FN:82,_ZN9__gnu_cxx13new_allocatorISt4pairIKNSt7__cxx1112basic_stringIcSt11char_traitsIcESaIcEEEP12MST_StrategyEEC2ERKSC_
FNDA:1,_ZN9__gnu_cxx13new_allocatorISt4pairIKNSt7__cxx1112basic_stringIcSt11char_traitsIcESaIcEEEP12MST_StrategyEEC2ERKSC_
FN:89,_ZN9__gnu_cxx13new_allocatorISt13_Rb_tree_nodeISt4pairIKNSt7__cxx1112basic_stringIcSt11char_traitsIcESaIcEEEP12MST_StrategyEEED2Ev
FNDA:2,_ZN9__gnu_cxx13new_allocatorISt13_Rb_tree_nodeISt4pairIKNSt7__cxx1112basic_stringIcSt11char_traitsIcESaIcEEEP12MST_StrategyEEED2Ev
FN:89,_ZN9__gnu_cxx13new_allocatorISt4pairIKNSt7__cxx1112basic_stringIcSt11char_traitsIcESaIcEEEP12MST_StrategyEED2Ev
FNDA:2,_ZN9__gnu_cxx13new_allocatorISt4pairIKNSt7__cxx1112basic_stringIcSt11char_traitsIcESaIcEEEP12MST_StrategyEED2Ev
FN:89,_ZN9__gnu_cxx13new_allocatorIcED2Ev
FNDA:0,_ZN9__gnu_cxx13new_allocatorIcED2Ev
FN:103,_ZN9__gnu_cxx13new_allocatorISt13_Rb_tree_nodeISt4pairIKNSt7__cxx1112basic_stringIcSt11char_traitsIcESaIcEEEP12MST_StrategyEEE8allocateEmPKv
FNDA:4,_ZN9__gnu_cxx13new_allocatorISt13_Rb_tree_nodeISt4pairIKNSt7__cxx1112basic_stringIcSt11char_traitsIcESaIcEEEP12MST_StrategyEEE8allocateEmPKv
FN:132,_ZN9__gnu_cxx13new_allocatorISt13_Rb_tree_nodeISt4pairIKNSt7__cxx1112basic_stringIcSt11char_traitsIcESaIcEEEP12MST_StrategyEEE10deallocateEPSD_m
FNDA:4,_ZN9__gnu_cxx13new_allocatorISt13_Rb_tree_nodeISt4pairIKNSt7__cxx1112basic_stringIcSt11char_traitsIcESaIcEEEP12MST_StrategyEEE10deallocateEPSD_m
FN:160,_ZN9__gnu_cxx13new_allocatorISt13_Rb_tree_nodeISt4pairIKNSt7__cxx1112basic_stringIcSt11char_traitsIcESaIcEEEP12MST_StrategyEEE9constructISC_JRKSC_EEEvPT_DpOT0_
FNDA:4,_ZN9__gnu_cxx13new_allocatorISt13_Rb_tree_nodeISt4pairIKNSt7__cxx1112basic_stringIcSt11char_traitsIcESaIcEEEP12MST_StrategyEEE9constructISC_JRKSC_EEEvPT_DpOT0_
FN:160,_ZN9__gnu_cxx13new_allocatorISt13_Rb_tree_nodeISt4pairIKNSt7__cxx1112basic_stringIcSt11char_traitsIcESaIcEEEP12MST_StrategyEEE9constructISC_JRKSt21piecewise_construct_tSt5tupleIJRS9_EESJ_IJEEEEEvPT_DpOT0_
FNDA:0,_ZN9__gnu_cxx13new_allocatorISt13_Rb_tree_nodeISt4pairIKNSt7__cxx1112basic_stringIcSt11char_traitsIcESaIcEEEP12MST_StrategyEEE9constructISC_JRKSt21piecewise_construct_tSt5tupleIJRS9_EESJ_IJEEEEEvPT_DpOT0_
FN:160,_ZN9__gnu_cxx13new_allocatorISt13_Rb_tree_nodeISt4pairIKNSt7__cxx1112basic_stringIcSt11char_traitsIcESaIcEEEP12MST_StrategyEEE9constructISC_JRKSt21piecewise_construct_tSt5tupleIJOS8_EESJ_IJEEEEEvPT_DpOT0_
FNDA:0,_ZN9__gnu_cxx13new_allocatorISt13_Rb_tree_nodeISt4pairIKNSt7__cxx1112basic_stringIcSt11char_traitsIcESaIcEEEP12MST_StrategyEEE9constructISC_JRKSt21piecewise_construct_tSt5tupleIJOS8_EESJ_IJEEEEEvPT_DpOT0_
FN:166,_ZN9__gnu_cxx13new_allocatorISt13_Rb_tree_nodeISt4pairIKNSt7__cxx1112basic_stringIcSt11char_traitsIcESaIcEEEP12MST_StrategyEEE7destroyISC_EEvPT_
FNDA:4,_ZN9__gnu_cxx13new_allocatorISt13_Rb_tree_nodeISt4pairIKNSt7__cxx1112basic_stringIcSt11char_traitsIcESaIcEEEP12MST_StrategyEEE7destroyISC_EEvPT_
FN:197,_ZNK9__gnu_cxx13new_allocatorISt13_Rb_tree_nodeISt4pairIKNSt7__cxx1112basic_stringIcSt11char_traitsIcESaIcEEEP12MST_StrategyEEE11_M_max_sizeEv
FNDA:4,_ZNK9__gnu_cxx13new_allocatorISt13_Rb_tree_nodeISt4pairIKNSt7__cxx1112basic_stringIcSt11char_traitsIcESaIcEEEP12MST_StrategyEEE11_M_max_sizeEv
DA:79,1
DA:79,1
DA:79,0
DA:82,1
DA:82,0
DA:82,1
DA:89,2
DA:89,2
DA:89,0
DA:103,4
DA:111,4
DA:115,0
DA:116,0
DA:117,0
DA:127,4
DA:132,4
DA:145,4
DA:160,4
DA:162,4
DA:160,0
DA:162,0
DA:160,0
DA:162,0
DA:166,4
DA:168,4
DA:197,4
DA:200,4
end_of_record
SF:/home/imri/OS-FinalProject/MST/Boruvka.hpp
end_of_record
SF:/usr/include/c++/11/ext/alloc_traits.h
FN:97,_ZN9__gnu_cxx14__alloc_traitsISaIcEcE17_S_select_on_copyERKS1_
FNDA:0,_ZN9__gnu_cxx14__alloc_traitsISaIcEcE17_S_select_on_copyERKS1_
DA:97,0
DA:98,0
end_of_record
SF:/usr/include/c++/11/bits/std_mutex.h
FN:98,_ZNSt5mutex4lockEv
FNDA:0,_ZNSt5mutex4lockEv
FN:115,_ZNSt5mutex6unlockEv
FNDA:0,_ZNSt5mutex6unlockEv
FN:228,_ZNSt10lock_guardISt5mutexEC2ERS0_
FNDA:0,_ZNSt10lock_guardISt5mutexEC2ERS0_
FN:234,_ZNSt10lock_guardISt5mutexED2Ev
FNDA:0,_ZNSt10lock_guardISt5mutexED2Ev
DA:98,0
DA:100,0
DA:103,0
DA:104,0
DA:105,0
DA:115,0
DA:118,0
DA:119,0
DA:228,0
DA:229,0
DA:234,0
DA:235,0
end_of_record
SF:/usr/include/c++/11/bits/stl_map.h
FN:228,_ZNSt3mapINSt7__cxx1112basic_stringIcSt11char_traitsIcESaIcEEEP12MST_StrategySt4lessIS5_ESaISt4pairIKS5_S7_EEEC2ESt16initializer_listISC_ERKS9_RKSD_
FNDA:1,_ZNSt3mapINSt7__cxx1112basic_stringIcSt11char_traitsIcESaIcEEEP12MST_StrategySt4lessIS5_ESaISt4pairIKS5_S7_EEEC2ESt16initializer_listISC_ERKS9_RKSD_
FN:302,_ZNSt3mapINSt7__cxx1112basic_stringIcSt11char_traitsIcESaIcEEEP12MST_StrategySt4lessIS5_ESaISt4pairIKS5_S7_EEED2Ev
FNDA:1,_ZNSt3mapINSt7__cxx1112basic_stringIcSt11char_traitsIcESaIcEEEP12MST_StrategySt4lessIS5_ESaISt4pairIKS5_S7_EEED2Ev
FN:356,_ZNSt3mapINSt7__cxx1112basic_stringIcSt11char_traitsIcESaIcEEEP12MST_StrategySt4lessIS5_ESaISt4pairIKS5_S7_EEE5beginEv
FNDA:1,_ZNSt3mapINSt7__cxx1112basic_stringIcSt11char_traitsIcESaIcEEEP12MST_StrategySt4lessIS5_ESaISt4pairIKS5_S7_EEE5beginEv
FN:374,_ZNSt3mapINSt7__cxx1112basic_stringIcSt11char_traitsIcESaIcEEEP12MST_StrategySt4lessIS5_ESaISt4pairIKS5_S7_EEE3endEv
FNDA:13,_ZNSt3mapINSt7__cxx1112basic_stringIcSt11char_traitsIcESaIcEEEP12MST_StrategySt4lessIS5_ESaISt4pairIKS5_S7_EEE3endEv
FN:492,_ZNSt3mapINSt7__cxx1112basic_stringIcSt11char_traitsIcESaIcEEEP12MST_StrategySt4lessIS5_ESaISt4pairIKS5_S7_EEEixERSB_
FNDA:4,_ZNSt3mapINSt7__cxx1112basic_stringIcSt11char_traitsIcESaIcEEEP12MST_StrategySt4lessIS5_ESaISt4pairIKS5_S7_EEEixERSB_
FN:512,_ZNSt3mapINSt7__cxx1112basic_stringIcSt11char_traitsIcESaIcEEEP12MST_StrategySt4lessIS5_ESaISt4pairIKS5_S7_EEEixEOS5_
FNDA:4,_ZNSt3mapINSt7__cxx1112basic_stringIcSt11char_traitsIcESaIcEEEP12MST_StrategySt4lessIS5_ESaISt4pairIKS5_S7_EEEixEOS5_
FN:1142,_ZNKSt3mapINSt7__cxx1112basic_stringIcSt11char_traitsIcESaIcEEEP12MST_StrategySt4lessIS5_ESaISt4pairIKS5_S7_EEE8key_compEv
FNDA:8,_ZNKSt3mapINSt7__cxx1112basic_stringIcSt11char_traitsIcESaIcEEEP12MST_StrategySt4lessIS5_ESaISt4pairIKS5_S7_EEE8key_compEv
FN:1169,_ZNSt3mapINSt7__cxx1112basic_stringIcSt11char_traitsIcESaIcEEEP12MST_StrategySt4lessIS5_ESaISt4pairIKS5_S7_EEE4findERSB_
FNDA:4,_ZNSt3mapINSt7__cxx1112basic_stringIcSt11char_traitsIcESaIcEEEP12MST_StrategySt4lessIS5_ESaISt4pairIKS5_S7_EEE4findERSB_
FN:1258,_ZNSt3mapINSt7__cxx1112basic_stringIcSt11char_traitsIcESaIcEEEP12MST_StrategySt4lessIS5_ESaISt4pairIKS5_S7_EEE11lower_boundERSB_
FNDA:8,_ZNSt3mapINSt7__cxx1112basic_stringIcSt11char_traitsIcESaIcEEEP12MST_StrategySt4lessIS5_ESaISt4pairIKS5_S7_EEE11lower_boundERSB_
DA:228,1
DA:231,1
DA:232,1
DA:302,1
DA:356,1
DA:357,1
DA:374,13
DA:375,13
DA:492,4
DA:497,4
DA:499,4
DA:501,0
DA:502,0
DA:503,0
DA:507,4
DA:512,4
DA:517,4
DA:519,4
DA:520,0
DA:521,0
DA:522,0
DA:523,4
DA:1142,8
DA:1143,8
DA:1169,4
DA:1170,4
DA:1258,8
DA:1259,8
end_of_record
SF:/usr/include/c++/11/bits/stl_tree.h
FN:152,_ZNSt20_Rb_tree_key_compareISt4lessINSt7__cxx1112basic_stringIcSt11char_traitsIcESaIcEEEEEC2ERKS7_
FNDA:1,_ZNSt20_Rb_tree_key_compareISt4lessINSt7__cxx1112basic_stringIcSt11char_traitsIcESaIcEEEEEC2ERKS7_
FN:173,_ZNSt15_Rb_tree_headerC2Ev
FNDA:0,_ZNSt15_Rb_tree_headerC2Ev
FN:206,_ZNSt15_Rb_tree_header8_M_resetEv
FNDA:0,_ZNSt15_Rb_tree_header8_M_resetEv
FN:234,_ZNSt13_Rb_tree_nodeISt4pairIKNSt7__cxx1112basic_stringIcSt11char_traitsIcESaIcEEEP12MST_StrategyEE9_M_valptrEv
FNDA:28,_ZNSt13_Rb_tree_nodeISt4pairIKNSt7__cxx1112basic_stringIcSt11char_traitsIcESaIcEEEP12MST_StrategyEE9_M_valptrEv
FN:238,_ZNKSt13_Rb_tree_nodeISt4pairIKNSt7__cxx1112basic_stringIcSt11char_traitsIcESaIcEEEP12MST_StrategyEE9_M_valptrEv
FNDA:43,_ZNKSt13_Rb_tree_nodeISt4pairIKNSt7__cxx1112basic_stringIcSt11char_traitsIcESaIcEEEP12MST_StrategyEE9_M_valptrEv
FN:273,_ZNSt17_Rb_tree_iteratorISt4pairIKNSt7__cxx1112basic_stringIcSt11char_traitsIcESaIcEEEP12MST_StrategyEEC2EPSt18_Rb_tree_node_base
FNDA:48,_ZNSt17_Rb_tree_iteratorISt4pairIKNSt7__cxx1112basic_stringIcSt11char_traitsIcESaIcEEEP12MST_StrategyEEC2EPSt18_Rb_tree_node_base
FN:277,_ZNKSt17_Rb_tree_iteratorISt4pairIKNSt7__cxx1112basic_stringIcSt11char_traitsIcESaIcEEEP12MST_StrategyEEdeEv
FNDA:20,_ZNKSt17_Rb_tree_iteratorISt4pairIKNSt7__cxx1112basic_stringIcSt11char_traitsIcESaIcEEEP12MST_StrategyEEdeEv
FN:285,_ZNSt17_Rb_tree_iteratorISt4pairIKNSt7__cxx1112basic_stringIcSt11char_traitsIcESaIcEEEP12MST_StrategyEEppEv
FNDA:4,_ZNSt17_Rb_tree_iteratorISt4pairIKNSt7__cxx1112basic_stringIcSt11char_traitsIcESaIcEEEP12MST_StrategyEEppEv
FN:300,_ZNSt17_Rb_tree_iteratorISt4pairIKNSt7__cxx1112basic_stringIcSt11char_traitsIcESaIcEEEP12MST_StrategyEEmmEv
FNDA:0,_ZNSt17_Rb_tree_iteratorISt4pairIKNSt7__cxx1112basic_stringIcSt11char_traitsIcESaIcEEEP12MST_StrategyEEmmEv
FN:315,_ZSteqRKSt17_Rb_tree_iteratorISt4pairIKNSt7__cxx1112basic_stringIcSt11char_traitsIcESaIcEEEP12MST_StrategyEESD_
FNDA:15,_ZSteqRKSt17_Rb_tree_iteratorISt4pairIKNSt7__cxx1112basic_stringIcSt11char_traitsIcESaIcEEEP12MST_StrategyEESD_
FN:320,_ZStneRKSt17_Rb_tree_iteratorISt4pairIKNSt7__cxx1112basic_stringIcSt11char_traitsIcESaIcEEEP12MST_StrategyEESD_
FNDA:9,_ZStneRKSt17_Rb_tree_iteratorISt4pairIKNSt7__cxx1112basic_stringIcSt11char_traitsIcESaIcEEEP12MST_StrategyEESD_
FN:350,_ZNSt23_Rb_tree_const_iteratorISt4pairIKNSt7__cxx1112basic_stringIcSt11char_traitsIcESaIcEEEP12MST_StrategyEEC2ERKSt17_Rb_tree_iteratorISA_E
FNDA:4,_ZNSt23_Rb_tree_const_iteratorISt4pairIKNSt7__cxx1112basic_stringIcSt11char_traitsIcESaIcEEEP12MST_StrategyEEC2ERKSt17_Rb_tree_iteratorISA_E
FN:354,_ZNKSt23_Rb_tree_const_iteratorISt4pairIKNSt7__cxx1112basic_stringIcSt11char_traitsIcESaIcEEEP12MST_StrategyEE13_M_const_castEv
FNDA:4,_ZNKSt23_Rb_tree_const_iteratorISt4pairIKNSt7__cxx1112basic_stringIcSt11char_traitsIcESaIcEEEP12MST_StrategyEE13_M_const_castEv
FN:523,_ZNSt8_Rb_treeINSt7__cxx1112basic_stringIcSt11char_traitsIcESaIcEEESt4pairIKS5_P12MST_StrategyESt10_Select1stISA_ESt4lessIS5_ESaISA_EE11_Alloc_nodeC2ERSG_
FNDA:1,_ZNSt8_Rb_treeINSt7__cxx1112basic_stringIcSt11char_traitsIcESaIcEEESt4pairIKS5_P12MST_StrategyESt10_Select1stISA_ESt4lessIS5_ESaISA_EE11_Alloc_nodeC2ERSG_
FN:528,_ZNKSt8_Rb_treeINSt7__cxx1112basic_stringIcSt11char_traitsIcESaIcEEESt4pairIKS5_P12MST_StrategyESt10_Select1stISA_ESt4lessIS5_ESaISA_EE11_Alloc_nodeclIRKSA_EEPSt13_Rb_tree_nodeISA_EOT_
FNDA:4,_ZNKSt8_Rb_treeINSt7__cxx1112basic_stringIcSt11char_traitsIcESaIcEEESt4pairIKS5_P12MST_StrategyESt10_Select1stISA_ESt4lessIS5_ESaISA_EE11_Alloc_nodeclIRKSA_EEPSt13_Rb_tree_nodeISA_EOT_
FN:547,_ZNSt8_Rb_treeINSt7__cxx1112basic_stringIcSt11char_traitsIcESaIcEEESt4pairIKS5_P12MST_StrategyESt10_Select1stISA_ESt4lessIS5_ESaISA_EE21_M_get_Node_allocatorEv
FNDA:16,_ZNSt8_Rb_treeINSt7__cxx1112basic_stringIcSt11char_traitsIcESaIcEEESt4pairIKS5_P12MST_StrategyESt10_Select1stISA_ESt4lessIS5_ESaISA_EE21_M_get_Node_allocatorEv
FN:560,_ZNSt8_Rb_treeINSt7__cxx1112basic_stringIcSt11char_traitsIcESaIcEEESt4pairIKS5_P12MST_StrategyESt10_Select1stISA_ESt4lessIS5_ESaISA_EE11_M_get_nodeEv
FNDA:4,_ZNSt8_Rb_treeINSt7__cxx1112basic_stringIcSt11char_traitsIcESaIcEEESt4pairIKS5_P12MST_StrategyESt10_Select1stISA_ESt4lessIS5_ESaISA_EE11_M_get_nodeEv
FN:564,_ZNSt8_Rb_treeINSt7__cxx1112basic_stringIcSt11char_traitsIcESaIcEEESt4pairIKS5_P12MST_StrategyESt10_Select1stISA_ESt4lessIS5_ESaISA_EE11_M_put_nodeEPSt13_Rb_tree_nodeISA_E
FNDA:4,_ZNSt8_Rb_treeINSt7__cxx1112basic_stringIcSt11char_traitsIcESaIcEEESt4pairIKS5_P12MST_StrategyESt10_Select1stISA_ESt4lessIS5_ESaISA_EE11_M_put_nodeEPSt13_Rb_tree_nodeISA_E
FN:590,_ZNSt8_Rb_treeINSt7__cxx1112basic_stringIcSt11char_traitsIcESaIcEEESt4pairIKS5_P12MST_StrategyESt10_Select1stISA_ESt4lessIS5_ESaISA_EE17_M_construct_nodeIJRKSt21piecewise_construct_tSt5tupleIJRS7_EESL_IJEEEEEvPSt13_Rb_tree_nodeISA_EDpOT_
FNDA:0,_ZNSt8_Rb_treeINSt7__cxx1112basic_stringIcSt11char_traitsIcESaIcEEESt4pairIKS5_P12MST_StrategyESt10_Select1stISA_ESt4lessIS5_ESaISA_EE17_M_construct_nodeIJRKSt21piecewise_construct_tSt5tupleIJRS7_EESL_IJEEEEEvPSt13_Rb_tree_nodeISA_EDpOT_
FN:590,_ZNSt8_Rb_treeINSt7__cxx1112basic_stringIcSt11char_traitsIcESaIcEEESt4pairIKS5_P12MST_StrategyESt10_Select1stISA_ESt4lessIS5_ESaISA_EE17_M_construct_nodeIJRKSt21piecewise_construct_tSt5tupleIJOS5_EESL_IJEEEEEvPSt13_Rb_tree_nodeISA_EDpOT_
FNDA:0,_ZNSt8_Rb_treeINSt7__cxx1112basic_stringIcSt11char_traitsIcESaIcEEESt4pairIKS5_P12MST_StrategyESt10_Select1stISA_ESt4lessIS5_ESaISA_EE17_M_construct_nodeIJRKSt21piecewise_construct_tSt5tupleIJOS5_EESL_IJEEEEEvPSt13_Rb_tree_nodeISA_EDpOT_
FN:590,_ZNSt8_Rb_treeINSt7__cxx1112basic_stringIcSt11char_traitsIcESaIcEEESt4pairIKS5_P12MST_StrategyESt10_Select1stISA_ESt4lessIS5_ESaISA_EE17_M_construct_nodeIJRKSA_EEEvPSt13_Rb_tree_nodeISA_EDpOT_
FNDA:4,_ZNSt8_Rb_treeINSt7__cxx1112basic_stringIcSt11char_traitsIcESaIcEEESt4pairIKS5_P12MST_StrategyESt10_Select1stISA_ESt4lessIS5_ESaISA_EE17_M_construct_nodeIJRKSA_EEEvPSt13_Rb_tree_nodeISA_EDpOT_
FN:609,_ZNSt8_Rb_treeINSt7__cxx1112basic_stringIcSt11char_traitsIcESaIcEEESt4pairIKS5_P12MST_StrategyESt10_Select1stISA_ESt4lessIS5_ESaISA_EE14_M_create_nodeIJRKSA_EEEPSt13_Rb_tree_nodeISA_EDpOT_
FNDA:4,_ZNSt8_Rb_treeINSt7__cxx1112basic_stringIcSt11char_traitsIcESaIcEEESt4pairIKS5_P12MST_StrategyESt10_Select1stISA_ESt4lessIS5_ESaISA_EE14_M_create_nodeIJRKSA_EEEPSt13_Rb_tree_nodeISA_EDpOT_
FN:609,_ZNSt8_Rb_treeINSt7__cxx1112basic_stringIcSt11char_traitsIcESaIcEEESt4pairIKS5_P12MST_StrategyESt10_Select1stISA_ESt4lessIS5_ESaISA_EE14_M_create_nodeIJRKSt21piecewise_construct_tSt5tupleIJOS5_EESL_IJEEEEEPSt13_Rb_tree_nodeISA_EDpOT_
FNDA:0,_ZNSt8_Rb_treeINSt7__cxx1112basic_stringIcSt11char_traitsIcESaIcEEESt4pairIKS5_P12MST_StrategyESt10_Select1stISA_ESt4lessIS5_ESaISA_EE14_M_create_nodeIJRKSt21piecewise_construct_tSt5tupleIJOS5_EESL_IJEEEEEPSt13_Rb_tree_nodeISA_EDpOT_
FN:609,_ZNSt8_Rb_treeINSt7__cxx1112basic_stringIcSt11char_traitsIcESaIcEEESt4pairIKS5_P12MST_StrategyESt10_Select1stISA_ESt4lessIS5_ESaISA_EE14_M_create_nodeIJRKSt21piecewise_construct_tSt5tupleIJRS7_EESL_IJEEEEEPSt13_Rb_tree_nodeISA_EDpOT_
FNDA:0,_ZNSt8_Rb_treeINSt7__cxx1112basic_stringIcSt11char_traitsIcESaIcEEESt4pairIKS5_P12MST_StrategyESt10_Select1stISA_ESt4lessIS5_ESaISA_EE14_M_create_nodeIJRKSt21piecewise_construct_tSt5tupleIJRS7_EESL_IJEEEEEPSt13_Rb_tree_nodeISA_EDpOT_
FN:618,_ZNSt8_Rb_treeINSt7__cxx1112basic_stringIcSt11char_traitsIcESaIcEEESt4pairIKS5_P12MST_StrategyESt10_Select1stISA_ESt4lessIS5_ESaISA_EE15_M_destroy_nodeEPSt13_Rb_tree_nodeISA_E
FNDA:4,_ZNSt8_Rb_treeINSt7__cxx1112basic_stringIcSt11char_traitsIcESaIcEEESt4pairIKS5_P12MST_StrategyESt10_Select1stISA_ESt4lessIS5_ESaISA_EE15_M_destroy_nodeEPSt13_Rb_tree_nodeISA_E
FN:629,_ZNSt8_Rb_treeINSt7__cxx1112basic_stringIcSt11char_traitsIcESaIcEEESt4pairIKS5_P12MST_StrategyESt10_Select1stISA_ESt4lessIS5_ESaISA_EE12_M_drop_nodeEPSt13_Rb_tree_nodeISA_E
FNDA:4,_ZNSt8_Rb_treeINSt7__cxx1112basic_stringIcSt11char_traitsIcESaIcEEESt4pairIKS5_P12MST_StrategyESt10_Select1stISA_ESt4lessIS5_ESaISA_EE12_M_drop_nodeEPSt13_Rb_tree_nodeISA_E
FN:700,_ZNSt8_Rb_treeINSt7__cxx1112basic_stringIcSt11char_traitsIcESaIcEEESt4pairIKS5_P12MST_StrategyESt10_Select1stISA_ESt4lessIS5_ESaISA_EE13_Rb_tree_implISE_Lb1EEC2ERKSE_OSaISt13_Rb_tree_nodeISA_EE
FNDA:1,_ZNSt8_Rb_treeINSt7__cxx1112basic_stringIcSt11char_traitsIcESaIcEEESt4pairIKS5_P12MST_StrategyESt10_Select1stISA_ESt4lessIS5_ESaISA_EE13_Rb_tree_implISE_Lb1EEC2ERKSE_OSaISt13_Rb_tree_nodeISA_EE
FN:718,_ZNSt8_Rb_treeINSt7__cxx1112basic_stringIcSt11char_traitsIcESaIcEEESt4pairIKS5_P12MST_StrategyESt10_Select1stISA_ESt4lessIS5_ESaISA_EE11_M_leftmostEv
FNDA:0,_ZNSt8_Rb_treeINSt7__cxx1112basic_stringIcSt11char_traitsIcESaIcEEESt4pairIKS5_P12MST_StrategyESt10_Select1stISA_ESt4lessIS5_ESaISA_EE11_M_leftmostEv
FN:726,_ZNSt8_Rb_treeINSt7__cxx1112basic_stringIcSt11char_traitsIcESaIcEEESt4pairIKS5_P12MST_StrategyESt10_Select1stISA_ESt4lessIS5_ESaISA_EE12_M_rightmostEv
FNDA:4,_ZNSt8_Rb_treeINSt7__cxx1112basic_stringIcSt11char_traitsIcESaIcEEESt4pairIKS5_P12MST_StrategyESt10_Select1stISA_ESt4lessIS5_ESaISA_EE12_M_rightmostEv
FN:734,_ZNKSt8_Rb_treeINSt7__cxx1112basic_stringIcSt11char_traitsIcESaIcEEESt4pairIKS5_P12MST_StrategyESt10_Select1stISA_ESt4lessIS5_ESaISA_EE9_M_mbeginEv
FNDA:16,_ZNKSt8_Rb_treeINSt7__cxx1112basic_stringIcSt11char_traitsIcESaIcEEESt4pairIKS5_P12MST_StrategyESt10_Select1stISA_ESt4lessIS5_ESaISA_EE9_M_mbeginEv
FN:738,_ZNSt8_Rb_treeINSt7__cxx1112basic_stringIcSt11char_traitsIcESaIcEEESt4pairIKS5_P12MST_StrategyESt10_Select1stISA_ESt4lessIS5_ESaISA_EE8_M_beginEv
FNDA:16,_ZNSt8_Rb_treeINSt7__cxx1112basic_stringIcSt11char_traitsIcESaIcEEESt4pairIKS5_P12MST_StrategyESt10_Select1stISA_ESt4lessIS5_ESaISA_EE8_M_beginEv
FN:749,_ZNSt8_Rb_treeINSt7__cxx1112basic_stringIcSt11char_traitsIcESaIcEEESt4pairIKS5_P12MST_StrategyESt10_Select1stISA_ESt4lessIS5_ESaISA_EE6_M_endEv
FNDA:23,_ZNSt8_Rb_treeINSt7__cxx1112basic_stringIcSt11char_traitsIcESaIcEEESt4pairIKS5_P12MST_StrategyESt10_Select1stISA_ESt4lessIS5_ESaISA_EE6_M_endEv
FN:757,_ZNSt8_Rb_treeINSt7__cxx1112basic_stringIcSt11char_traitsIcESaIcEEESt4pairIKS5_P12MST_StrategyESt10_Select1stISA_ESt4lessIS5_ESaISA_EE6_S_keyEPKSt13_Rb_tree_nodeISA_E
FNDA:43,_ZNSt8_Rb_treeINSt7__cxx1112basic_stringIcSt11char_traitsIcESaIcEEESt4pairIKS5_P12MST_StrategyESt10_Select1stISA_ESt4lessIS5_ESaISA_EE6_S_keyEPKSt13_Rb_tree_nodeISA_E
FN:779,_ZNSt8_Rb_treeINSt7__cxx1112basic_stringIcSt11char_traitsIcESaIcEEESt4pairIKS5_P12MST_StrategyESt10_Select1stISA_ESt4lessIS5_ESaISA_EE7_S_leftEPSt18_Rb_tree_node_base
FNDA:28,_ZNSt8_Rb_treeINSt7__cxx1112basic_stringIcSt11char_traitsIcESaIcEEESt4pairIKS5_P12MST_StrategyESt10_Select1stISA_ESt4lessIS5_ESaISA_EE7_S_leftEPSt18_Rb_tree_node_base
FN:787,_ZNSt8_Rb_treeINSt7__cxx1112basic_stringIcSt11char_traitsIcESaIcEEESt4pairIKS5_P12MST_StrategyESt10_Select1stISA_ESt4lessIS5_ESaISA_EE8_S_rightEPSt18_Rb_tree_node_base
FNDA:13,_ZNSt8_Rb_treeINSt7__cxx1112basic_stringIcSt11char_traitsIcESaIcEEESt4pairIKS5_P12MST_StrategyESt10_Select1stISA_ESt4lessIS5_ESaISA_EE8_S_rightEPSt18_Rb_tree_node_base
FN:795,_ZNSt8_Rb_treeINSt7__cxx1112basic_stringIcSt11char_traitsIcESaIcEEESt4pairIKS5_P12MST_StrategyESt10_Select1stISA_ESt4lessIS5_ESaISA_EE6_S_keyEPKSt18_Rb_tree_node_base
FNDA:10,_ZNSt8_Rb_treeINSt7__cxx1112basic_stringIcSt11char_traitsIcESaIcEEESt4pairIKS5_P12MST_StrategyESt10_Select1stISA_ESt4lessIS5_ESaISA_EE6_S_keyEPKSt18_Rb_tree_node_base
FN:931,_ZNSt8_Rb_treeINSt7__cxx1112basic_stringIcSt11char_traitsIcESaIcEEESt4pairIKS5_P12MST_StrategyESt10_Select1stISA_ESt4lessIS5_ESaISA_EEC2ERKSE_RKSF_
FNDA:1,_ZNSt8_Rb_treeINSt7__cxx1112basic_stringIcSt11char_traitsIcESaIcEEESt4pairIKS5_P12MST_StrategyESt10_Select1stISA_ESt4lessIS5_ESaISA_EEC2ERKSE_RKSF_
FN:983,_ZNSt8_Rb_treeINSt7__cxx1112basic_stringIcSt11char_traitsIcESaIcEEESt4pairIKS5_P12MST_StrategyESt10_Select1stISA_ESt4lessIS5_ESaISA_EED2Ev
FNDA:1,_ZNSt8_Rb_treeINSt7__cxx1112basic_stringIcSt11char_traitsIcESaIcEEESt4pairIKS5_P12MST_StrategyESt10_Select1stISA_ESt4lessIS5_ESaISA_EED2Ev
FN:991,_ZNKSt8_Rb_treeINSt7__cxx1112basic_stringIcSt11char_traitsIcESaIcEEESt4pairIKS5_P12MST_StrategyESt10_Select1stISA_ESt4lessIS5_ESaISA_EE8key_compEv
FNDA:8,_ZNKSt8_Rb_treeINSt7__cxx1112basic_stringIcSt11char_traitsIcESaIcEEESt4pairIKS5_P12MST_StrategyESt10_Select1stISA_ESt4lessIS5_ESaISA_EE8key_compEv
FN:995,_ZNSt8_Rb_treeINSt7__cxx1112basic_stringIcSt11char_traitsIcESaIcEEESt4pairIKS5_P12MST_StrategyESt10_Select1stISA_ESt4lessIS5_ESaISA_EE5beginEv
FNDA:4,_ZNSt8_Rb_treeINSt7__cxx1112basic_stringIcSt11char_traitsIcESaIcEEESt4pairIKS5_P12MST_StrategyESt10_Select1stISA_ESt4lessIS5_ESaISA_EE5beginEv
FN:1003,_ZNSt8_Rb_treeINSt7__cxx1112basic_stringIcSt11char_traitsIcESaIcEEESt4pairIKS5_P12MST_StrategyESt10_Select1stISA_ESt4lessIS5_ESaISA_EE3endEv
FNDA:21,_ZNSt8_Rb_treeINSt7__cxx1112basic_stringIcSt11char_traitsIcESaIcEEESt4pairIKS5_P12MST_StrategyESt10_Select1stISA_ESt4lessIS5_ESaISA_EE3endEv
FN:1031,_ZNKSt8_Rb_treeINSt7__cxx1112basic_stringIcSt11char_traitsIcESaIcEEESt4pairIKS5_P12MST_StrategyESt10_Select1stISA_ESt4lessIS5_ESaISA_EE4sizeEv
FNDA:4,_ZNKSt8_Rb_treeINSt7__cxx1112basic_stringIcSt11char_traitsIcESaIcEEESt4pairIKS5_P12MST_StrategyESt10_Select1stISA_ESt4lessIS5_ESaISA_EE4sizeEv
FN:1098,_ZNSt8_Rb_treeINSt7__cxx1112basic_stringIcSt11char_traitsIcESaIcEEESt4pairIKS5_P12MST_StrategyESt10_Select1stISA_ESt4lessIS5_ESaISA_EE22_M_insert_range_uniqueIPKSA_EENSt9enable_ifIXsrSt7is_sameISA_NSt15iterator_traitsIT_E10value_typeEE5valueEvE4typeESN_SN_
FNDA:1,_ZNSt8_Rb_treeINSt7__cxx1112basic_stringIcSt11char_traitsIcESaIcEEESt4pairIKS5_P12MST_StrategyESt10_Select1stISA_ESt4lessIS5_ESaISA_EE22_M_insert_range_uniqueIPKSA_EENSt9enable_ifIXsrSt7is_sameISA_NSt15iterator_traitsIT_E10value_typeEE5valueEvE4typeESN_SN_
FN:1269,_ZNSt8_Rb_treeINSt7__cxx1112basic_stringIcSt11char_traitsIcESaIcEEESt4pairIKS5_P12MST_StrategyESt10_Select1stISA_ESt4lessIS5_ESaISA_EE11lower_boundERS7_
FNDA:8,_ZNSt8_Rb_treeINSt7__cxx1112basic_stringIcSt11char_traitsIcESaIcEEESt4pairIKS5_P12MST_StrategyESt10_Select1stISA_ESt4lessIS5_ESaISA_EE11lower_boundERS7_
FN:1771,_ZNSt8_Rb_treeINSt7__cxx1112basic_stringIcSt11char_traitsIcESaIcEEESt4pairIKS5_P12MST_StrategyESt10_Select1stISA_ESt4lessIS5_ESaISA_EE10_M_insert_IRKSA_NSG_11_Alloc_nodeEEESt17_Rb_tree_iteratorISA_EPSt18_Rb_tree_node_baseSO_OT_RT0_
FNDA:4,_ZNSt8_Rb_treeINSt7__cxx1112basic_stringIcSt11char_traitsIcESaIcEEESt4pairIKS5_P12MST_StrategyESt10_Select1stISA_ESt4lessIS5_ESaISA_EE10_M_insert_IRKSA_NSG_11_Alloc_nodeEEESt17_Rb_tree_iteratorISA_EPSt18_Rb_tree_node_baseSO_OT_RT0_
FN:1883,_ZNSt8_Rb_treeINSt7__cxx1112basic_stringIcSt11char_traitsIcESaIcEEESt4pairIKS5_P12MST_StrategyESt10_Select1stISA_ESt4lessIS5_ESaISA_EE8_M_eraseEPSt13_Rb_tree_nodeISA_E
FNDA:5,_ZNSt8_Rb_treeINSt7__cxx1112basic_stringIcSt11char_traitsIcESaIcEEESt4pairIKS5_P12MST_StrategyESt10_Select1stISA_ESt4lessIS5_ESaISA_EE8_M_eraseEPSt13_Rb_tree_nodeISA_E
FN:1900,_ZNSt8_Rb_treeINSt7__cxx1112basic_stringIcSt11char_traitsIcESaIcEEESt4pairIKS5_P12MST_StrategyESt10_Select1stISA_ESt4lessIS5_ESaISA_EE14_M_lower_boundEPSt13_Rb_tree_nodeISA_EPSt18_Rb_tree_node_baseRS7_
FNDA:12,_ZNSt8_Rb_treeINSt7__cxx1112basic_stringIcSt11char_traitsIcESaIcEEESt4pairIKS5_P12MST_StrategyESt10_Select1stISA_ESt4lessIS5_ESaISA_EE14_M_lower_boundEPSt13_Rb_tree_nodeISA_EPSt18_Rb_tree_node_baseRS7_
FN:2061,_ZNSt8_Rb_treeINSt7__cxx1112basic_stringIcSt11char_traitsIcESaIcEEESt4pairIKS5_P12MST_StrategyESt10_Select1stISA_ESt4lessIS5_ESaISA_EE24_M_get_insert_unique_posERS7_
FNDA:3,_ZNSt8_Rb_treeINSt7__cxx1112basic_stringIcSt11char_traitsIcESaIcEEESt4pairIKS5_P12MST_StrategyESt10_Select1stISA_ESt4lessIS5_ESaISA_EE24_M_get_insert_unique_posERS7_
FN:2163,_ZNSt8_Rb_treeINSt7__cxx1112basic_stringIcSt11char_traitsIcESaIcEEESt4pairIKS5_P12MST_StrategyESt10_Select1stISA_ESt4lessIS5_ESaISA_EE29_M_get_insert_hint_unique_posESt23_Rb_tree_const_iteratorISA_ERS7_
FNDA:4,_ZNSt8_Rb_treeINSt7__cxx1112basic_stringIcSt11char_traitsIcESaIcEEESt4pairIKS5_P12MST_StrategyESt10_Select1stISA_ESt4lessIS5_ESaISA_EE29_M_get_insert_hint_unique_posESt23_Rb_tree_const_iteratorISA_ERS7_
FN:2224,_ZNSt8_Rb_treeINSt7__cxx1112basic_stringIcSt11char_traitsIcESaIcEEESt4pairIKS5_P12MST_StrategyESt10_Select1stISA_ESt4lessIS5_ESaISA_EE17_M_insert_unique_IRKSA_NSG_11_Alloc_nodeEEESt17_Rb_tree_iteratorISA_ESt23_Rb_tree_const_iteratorISA_EOT_RT0_
FNDA:4,_ZNSt8_Rb_treeINSt7__cxx1112basic_stringIcSt11char_traitsIcESaIcEEESt4pairIKS5_P12MST_StrategyESt10_Select1stISA_ESt4lessIS5_ESaISA_EE17_M_insert_unique_IRKSA_NSG_11_Alloc_nodeEEESt17_Rb_tree_iteratorISA_ESt23_Rb_tree_const_iteratorISA_EOT_RT0_
FN:2330,_ZNSt8_Rb_treeINSt7__cxx1112basic_stringIcSt11char_traitsIcESaIcEEESt4pairIKS5_P12MST_StrategyESt10_Select1stISA_ESt4lessIS5_ESaISA_EE14_M_insert_nodeEPSt18_Rb_tree_node_baseSI_PSt13_Rb_tree_nodeISA_E
FNDA:0,_ZNSt8_Rb_treeINSt7__cxx1112basic_stringIcSt11char_traitsIcESaIcEEESt4pairIKS5_P12MST_StrategyESt10_Select1stISA_ESt4lessIS5_ESaISA_EE14_M_insert_nodeEPSt18_Rb_tree_node_baseSI_PSt13_Rb_tree_nodeISA_E
FN:2428,_ZNSt8_Rb_treeINSt7__cxx1112basic_stringIcSt11char_traitsIcESaIcEEESt4pairIKS5_P12MST_StrategyESt10_Select1stISA_ESt4lessIS5_ESaISA_EE22_M_emplace_hint_uniqueIJRKSt21piecewise_construct_tSt5tupleIJOS5_EESL_IJEEEEESt17_Rb_tree_iteratorISA_ESt23_Rb_tree_const_iteratorISA_EDpOT_
FNDA:0,_ZNSt8_Rb_treeINSt7__cxx1112basic_stringIcSt11char_traitsIcESaIcEEESt4pairIKS5_P12MST_StrategyESt10_Select1stISA_ESt4lessIS5_ESaISA_EE22_M_emplace_hint_uniqueIJRKSt21piecewise_construct_tSt5tupleIJOS5_EESL_IJEEEEESt17_Rb_tree_iteratorISA_ESt23_Rb_tree_const_iteratorISA_EDpOT_
FN:2428,_ZNSt8_Rb_treeINSt7__cxx1112basic_stringIcSt11char_traitsIcESaIcEEESt4pairIKS5_P12MST_StrategyESt10_Select1stISA_ESt4lessIS5_ESaISA_EE22_M_emplace_hint_uniqueIJRKSt21piecewise_construct_tSt5tupleIJRS7_EESL_IJEEEEESt17_Rb_tree_iteratorISA_ESt23_Rb_tree_const_iteratorISA_EDpOT_
FNDA:0,_ZNSt8_Rb_treeINSt7__cxx1112basic_stringIcSt11char_traitsIcESaIcEEESt4pairIKS5_P12MST_StrategyESt10_Select1stISA_ESt4lessIS5_ESaISA_EE22_M_emplace_hint_uniqueIJRKSt21piecewise_construct_tSt5tupleIJRS7_EESL_IJEEEEESt17_Rb_tree_iteratorISA_ESt23_Rb_tree_const_iteratorISA_EDpOT_
FN:2520,_ZNSt8_Rb_treeINSt7__cxx1112basic_stringIcSt11char_traitsIcESaIcEEESt4pairIKS5_P12MST_StrategyESt10_Select1stISA_ESt4lessIS5_ESaISA_EE4findERS7_
FNDA:4,_ZNSt8_Rb_treeINSt7__cxx1112basic_stringIcSt11char_traitsIcESaIcEEESt4pairIKS5_P12MST_StrategyESt10_Select1stISA_ESt4lessIS5_ESaISA_EE4findERS7_
DA:152,1
DA:154,1
DA:173,0
DA:174,0
DA:175,0
DA:176,0
DA:177,0
DA:206,0
DA:208,0
DA:209,0
DA:210,0
DA:211,0
DA:212,0
DA:234,28
DA:235,28
DA:238,43
DA:239,43
DA:273,48
DA:274,48
DA:277,20
DA:278,20
DA:285,4
DA:287,4
DA:288,4
DA:300,0
DA:302,0
DA:303,0
DA:315,15
DA:316,15
DA:320,9
DA:321,9
DA:350,4
DA:351,4
DA:354,4
DA:355,4
DA:523,1
DA:524,1
DA:528,4
DA:529,4
DA:547,16
DA:548,16
DA:560,4
DA:561,4
DA:564,4
DA:565,4
DA:590,4
DA:594,4
DA:595,4
DA:599,0
DA:601,0
DA:602,0
DA:603,0
DA:605,4
DA:590,0
DA:594,0
DA:595,0
DA:599,0
DA:601,0
DA:602,0
DA:603,0
DA:605,0
DA:590,0
DA:594,0
DA:595,0
DA:599,0
DA:601,0
DA:602,0
DA:603,0
DA:605,0
DA:609,4
DA:611,4
DA:612,4
DA:613,4
DA:609,0
DA:611,0
DA:612,0
DA:613,0
DA:609,0
DA:611,0
DA:612,0
DA:613,0
DA:618,4
DA:623,4
DA:624,4
DA:626,4
DA:629,4
DA:631,4
DA:632,4
DA:633,4
DA:700,1
DA:701,1
DA:702,1
DA:718,0
DA:719,0
DA:726,4
DA:727,4
DA:734,16
DA:735,16
DA:738,16
DA:739,16
DA:749,23
DA:750,23
DA:757,43
DA:775,43
DA:779,28
DA:780,28
DA:787,13
DA:788,13
DA:795,10
DA:796,10
DA:931,1
DA:933,1
DA:983,1
DA:984,1
DA:991,8
DA:992,8
DA:995,4
DA:996,4
DA:1003,21
DA:1004,21
DA:1031,4
DA:1032,4
DA:1098,1
DA:1100,1
DA:1101,5
DA:1102,4
DA:1103,1
DA:1269,8
DA:1270,8
DA:1771,4
DA:1780,4
DA:1781,8
DA:1784,4
DA:1786,4
DA:1787,4
DA:1788,4
DA:1789,4
DA:1883,5
DA:1887,9
DA:1889,4
DA:1890,4
DA:1891,4
DA:1892,4
DA:1894,5
DA:1900,12
DA:1904,42
DA:1905,30
DA:1906,21
DA:1908,9
DA:1909,12
DA:2061,3
DA:2065,3
DA:2066,3
DA:2067,3
DA:2068,6
DA:2070,3
DA:2071,3
DA:2072,3
DA:2074,3
DA:2075,3
DA:2077,3
DA:2078,3
DA:2080,0
DA:2082,0
DA:2083,0
DA:2084,0
DA:2163,4
DA:2167,4
DA:2171,4
DA:2173,4
DA:2174,4
DA:2175,1
DA:2177,3
DA:2179,0
DA:2182,0
DA:2183,0
DA:2184,0
DA:2185,0
DA:2187,0
DA:2188,0
DA:2190,0
DA:2193,0
DA:2195,0
DA:2198,0
DA:2199,0
DA:2200,0
DA:2201,0
DA:2203,0
DA:2204,0
DA:2206,0
DA:2209,0
DA:2213,0
DA:2224,4
DA:2234,4
DA:2236,4
DA:2237,4
DA:2239,4
DA:2240,0
DA:2330,0
DA:2333,0
DA:2334,0
DA:2337,0
DA:2338,0
DA:2339,0
DA:2340,0
DA:2428,0
DA:2431,0
DA:2435,0
DA:2437,0
DA:2438,0
DA:2440,0
DA:2441,0
DA:2443,0
DA:2445,0
DA:2446,0
DA:2428,0
DA:2431,0
DA:2435,0
DA:2437,0
DA:2438,0
DA:2440,0
DA:2441,0
DA:2443,0
DA:2445,0
DA:2446,0
DA:2520,4
DA:2523,4
DA:2524,8
DA:2525,4
DA:2526,12
end_of_record
SF:/usr/include/c++/11/bits/char_traits.h
FN:106,_ZN9__gnu_cxx11char_traitsIcE2eqERKcS3_
FNDA:0,_ZN9__gnu_cxx11char_traitsIcE2eqERKcS3_
FN:167,_ZN9__gnu_cxx11char_traitsIcE6lengthEPKc
FNDA:0,_ZN9__gnu_cxx11char_traitsIcE6lengthEPKc
FN:393,_ZNSt11char_traitsIcE6lengthEPKc
FNDA:0,_ZNSt11char_traitsIcE6lengthEPKc
FN:429,_ZNSt11char_traitsIcE4copyEPcPKcm
FNDA:0,_ZNSt11char_traitsIcE4copyEPcPKcm
DA:106,0
DA:107,0
DA:167,0
DA:170,0
DA:171,0
DA:172,0
DA:173,0
DA:290,0
DA:393,0
DA:396,0
DA:397,0
DA:399,0
DA:429,0
DA:431,0
DA:432,0
DA:437,0
end_of_record
SF:/usr/include/c++/11/new
FN:174,_ZnwmPv
FNDA:0,_ZnwmPv
FN:180,_ZdlPvS_
FNDA:0,_ZdlPvS_
DA:174,0
DA:175,0
DA:180,0
end_of_record
SF:/usr/include/c++/11/ext/type_traits.h
FN:152,_ZN9__gnu_cxx17__is_null_pointerIcEEbPT_
FNDA:0,_ZN9__gnu_cxx17__is_null_pointerIcEEbPT_
FN:152,_ZN9__gnu_cxx17__is_null_pointerIKcEEbPT_
FNDA:0,_ZN9__gnu_cxx17__is_null_pointerIKcEEbPT_
DA:152,0
DA:153,0
DA:152,0
DA:153,0
end_of_record
SF:/home/imri/OS-FinalProject/MST/Prim.hpp
end_of_record
SF:/usr/include/c++/11/bits/allocator.h
FN:156,_ZNSaISt4pairIKNSt7__cxx1112basic_stringIcSt11char_traitsIcESaIcEEEP12MST_StrategyEEC2Ev
FNDA:1,_ZNSaISt4pairIKNSt7__cxx1112basic_stringIcSt11char_traitsIcESaIcEEEP12MST_StrategyEEC2Ev
FN:159,_ZNSaISt13_Rb_tree_nodeISt4pairIKNSt7__cxx1112basic_stringIcSt11char_traitsIcESaIcEEEP12MST_StrategyEEEC2ERKSC_
FNDA:1,_ZNSaISt13_Rb_tree_nodeISt4pairIKNSt7__cxx1112basic_stringIcSt11char_traitsIcESaIcEEEP12MST_StrategyEEEC2ERKSC_
FN:159,_ZNSaISt4pairIKNSt7__cxx1112basic_stringIcSt11char_traitsIcESaIcEEEP12MST_StrategyEEC2ERKSA_
FNDA:1,_ZNSaISt4pairIKNSt7__cxx1112basic_stringIcSt11char_traitsIcESaIcEEEP12MST_StrategyEEC2ERKSA_
FN:169,_ZNSaISt13_Rb_tree_nodeISt4pairIKNSt7__cxx1112basic_stringIcSt11char_traitsIcESaIcEEEP12MST_StrategyEEEC2ISA_EERKSaIT_E
FNDA:1,_ZNSaISt13_Rb_tree_nodeISt4pairIKNSt7__cxx1112basic_stringIcSt11char_traitsIcESaIcEEEP12MST_StrategyEEEC2ISA_EERKSaIT_E
FN:174,_ZNSaISt13_Rb_tree_nodeISt4pairIKNSt7__cxx1112basic_stringIcSt11char_traitsIcESaIcEEEP12MST_StrategyEEED2Ev
FNDA:2,_ZNSaISt13_Rb_tree_nodeISt4pairIKNSt7__cxx1112basic_stringIcSt11char_traitsIcESaIcEEEP12MST_StrategyEEED2Ev
FN:174,_ZNSaISt4pairIKNSt7__cxx1112basic_stringIcSt11char_traitsIcESaIcEEEP12MST_StrategyEED2Ev
FNDA:2,_ZNSaISt4pairIKNSt7__cxx1112basic_stringIcSt11char_traitsIcESaIcEEEP12MST_StrategyEED2Ev
DA:156,1
DA:159,1
DA:160,1
DA:159,1
DA:160,1
DA:169,1
DA:174,2
DA:174,2
end_of_record
SF:/home/imri/OS-FinalProject/MST/MST_Strategy.hpp
end_of_record
SF:/usr/include/c++/11/bits/basic_string.h
FN:251,_ZNSt7__cxx1112basic_stringIcSt11char_traitsIcESaIcEE16_M_construct_auxIPcEEvT_S7_St12__false_type
FNDA:0,_ZNSt7__cxx1112basic_stringIcSt11char_traitsIcESaIcEE16_M_construct_auxIPcEEvT_S7_St12__false_type
FN:271,_ZNSt7__cxx1112basic_stringIcSt11char_traitsIcESaIcEE12_M_constructIPcEEvT_S7_
FNDA:0,_ZNSt7__cxx1112basic_stringIcSt11char_traitsIcESaIcEE12_M_constructIPcEEvT_S7_
FN:533,_ZNSt7__cxx1112basic_stringIcSt11char_traitsIcESaIcEEC2IS3_EEPKcRKS3_
FNDA:0,_ZNSt7__cxx1112basic_stringIcSt11char_traitsIcESaIcEEC2IS3_EEPKcRKS3_
FN:6340,_ZStltIcSt11char_traitsIcESaIcEEbRKNSt7__cxx1112basic_stringIT_T0_T1_EESA_
FNDA:51,_ZStltIcSt11char_traitsIcESaIcEEbRKNSt7__cxx1112basic_stringIT_T0_T1_EESA_
DA:251,0
DA:255,0
DA:256,0
DA:271,0
DA:274,0
DA:275,0
DA:533,0
DA:534,0
DA:536,0
DA:539,0
DA:540,0
DA:6340,51
DA:6343,51
end_of_record
SF:/usr/include/c++/11/bits/basic_string.tcc
FN:206,_ZNSt7__cxx1112basic_stringIcSt11char_traitsIcESaIcEE12_M_constructIPcEEvT_S7_St20forward_iterator_tag
FNDA:0,_ZNSt7__cxx1112basic_stringIcSt11char_traitsIcESaIcEE12_M_constructIPcEEvT_S7_St20forward_iterator_tag
FN:206,_ZNSt7__cxx1112basic_stringIcSt11char_traitsIcESaIcEE12_M_constructIPKcEEvT_S8_St20forward_iterator_tag
FNDA:0,_ZNSt7__cxx1112basic_stringIcSt11char_traitsIcESaIcEE12_M_constructIPKcEEvT_S8_St20forward_iterator_tag
DA:206,0
DA:211,0
DA:212,0
DA:215,0
DA:217,0
DA:219,0
DA:220,0
DA:225,0
DA:226,0
DA:228,0
DA:229,0
DA:232,0
DA:233,0
DA:206,0
DA:211,0
DA:212,0
DA:215,0
DA:217,0
DA:219,0
DA:220,0
DA:225,0
DA:226,0
DA:228,0
DA:229,0
DA:232,0
DA:233,0
end_of_record
SF:/usr/include/c++/11/tuple
FN:192,_ZNSt10_Head_baseILm0ERKNSt7__cxx1112basic_stringIcSt11char_traitsIcESaIcEEELb0EEC2ES7_
FNDA:0,_ZNSt10_Head_baseILm0ERKNSt7__cxx1112basic_stringIcSt11char_traitsIcESaIcEEELb0EEC2ES7_
FN:199,_ZNSt10_Head_baseILm0EONSt7__cxx1112basic_stringIcSt11char_traitsIcESaIcEEELb0EEC2IS5_EEOT_
FNDA:0,_ZNSt10_Head_baseILm0EONSt7__cxx1112basic_stringIcSt11char_traitsIcESaIcEEELb0EEC2IS5_EEOT_
FN:233,_ZNSt10_Head_baseILm0EONSt7__cxx1112basic_stringIcSt11char_traitsIcESaIcEEELb0EE7_M_headERS7_
FNDA:0,_ZNSt10_Head_baseILm0EONSt7__cxx1112basic_stringIcSt11char_traitsIcESaIcEEELb0EE7_M_headERS7_
FN:233,_ZNSt10_Head_baseILm0ERKNSt7__cxx1112basic_stringIcSt11char_traitsIcESaIcEEELb0EE7_M_headERS8_
FNDA:0,_ZNSt10_Head_baseILm0ERKNSt7__cxx1112basic_stringIcSt11char_traitsIcESaIcEEELb0EE7_M_headERS8_
FN:424,_ZNSt11_Tuple_implILm0EJRKNSt7__cxx1112basic_stringIcSt11char_traitsIcESaIcEEEEE7_M_headERS8_
FNDA:0,_ZNSt11_Tuple_implILm0EJRKNSt7__cxx1112basic_stringIcSt11char_traitsIcESaIcEEEEE7_M_headERS8_
FN:424,_ZNSt11_Tuple_implILm0EJONSt7__cxx1112basic_stringIcSt11char_traitsIcESaIcEEEEE7_M_headERS7_
FNDA:0,_ZNSt11_Tuple_implILm0EJONSt7__cxx1112basic_stringIcSt11char_traitsIcESaIcEEEEE7_M_headERS7_
FN:434,_ZNSt11_Tuple_implILm0EJRKNSt7__cxx1112basic_stringIcSt11char_traitsIcESaIcEEEEEC2ES7_
FNDA:0,_ZNSt11_Tuple_implILm0EJRKNSt7__cxx1112basic_stringIcSt11char_traitsIcESaIcEEEEEC2ES7_
FN:440,_ZNSt11_Tuple_implILm0EJONSt7__cxx1112basic_stringIcSt11char_traitsIcESaIcEEEEEC2IS5_EEOT_
FNDA:0,_ZNSt11_Tuple_implILm0EJONSt7__cxx1112basic_stringIcSt11char_traitsIcESaIcEEEEEC2IS5_EEOT_
FN:454,_ZNSt11_Tuple_implILm0EJRKNSt7__cxx1112basic_stringIcSt11char_traitsIcESaIcEEEEEC2EOS8_
FNDA:0,_ZNSt11_Tuple_implILm0EJRKNSt7__cxx1112basic_stringIcSt11char_traitsIcESaIcEEEEEC2EOS8_
FN:454,_ZNSt11_Tuple_implILm0EJONSt7__cxx1112basic_stringIcSt11char_traitsIcESaIcEEEEEC2EOS7_
FNDA:0,_ZNSt11_Tuple_implILm0EJONSt7__cxx1112basic_stringIcSt11char_traitsIcESaIcEEEEEC2EOS7_
FN:727,_ZNSt5tupleIJRKNSt7__cxx1112basic_stringIcSt11char_traitsIcESaIcEEEEEC2ILb1ELb1EEES7_
FNDA:0,_ZNSt5tupleIJRKNSt7__cxx1112basic_stringIcSt11char_traitsIcESaIcEEEEEC2ILb1ELb1EEES7_
FN:742,_ZNSt5tupleIJONSt7__cxx1112basic_stringIcSt11char_traitsIcESaIcEEEEEC2IJS5_ELb1ELb1EEEDpOT_
FNDA:0,_ZNSt5tupleIJONSt7__cxx1112basic_stringIcSt11char_traitsIcESaIcEEEEEC2IJS5_ELb1ELb1EEEDpOT_
FN:756,_ZNSt5tupleIJRKNSt7__cxx1112basic_stringIcSt11char_traitsIcESaIcEEEEEC2EOS8_
FNDA:0,_ZNSt5tupleIJRKNSt7__cxx1112basic_stringIcSt11char_traitsIcESaIcEEEEEC2EOS8_
FN:756,_ZNSt5tupleIJONSt7__cxx1112basic_stringIcSt11char_traitsIcESaIcEEEEEC2EOS7_
FNDA:0,_ZNSt5tupleIJONSt7__cxx1112basic_stringIcSt11char_traitsIcESaIcEEEEEC2EOS7_
FN:1377,_ZSt12__get_helperILm0EONSt7__cxx1112basic_stringIcSt11char_traitsIcESaIcEEEJEERT0_RSt11_Tuple_implIXT_EJS7_DpT1_EE
FNDA:0,_ZSt12__get_helperILm0EONSt7__cxx1112basic_stringIcSt11char_traitsIcESaIcEEEJEERT0_RSt11_Tuple_implIXT_EJS7_DpT1_EE
FN:1377,_ZSt12__get_helperILm0ERKNSt7__cxx1112basic_stringIcSt11char_traitsIcESaIcEEEJEERT0_RSt11_Tuple_implIXT_EJS8_DpT1_EE
FNDA:0,_ZSt12__get_helperILm0ERKNSt7__cxx1112basic_stringIcSt11char_traitsIcESaIcEEEJEERT0_RSt11_Tuple_implIXT_EJS8_DpT1_EE
FN:1393,_ZSt3getILm0EJONSt7__cxx1112basic_stringIcSt11char_traitsIcESaIcEEEEERNSt13tuple_elementIXT_ESt5tupleIJDpT0_EEE4typeERSB_
FNDA:0,_ZSt3getILm0EJONSt7__cxx1112basic_stringIcSt11char_traitsIcESaIcEEEEERNSt13tuple_elementIXT_ESt5tupleIJDpT0_EEE4typeERSB_
FN:1393,_ZSt3getILm0EJRKNSt7__cxx1112basic_stringIcSt11char_traitsIcESaIcEEEEERNSt13tuple_elementIXT_ESt5tupleIJDpT0_EEE4typeERSC_
FNDA:0,_ZSt3getILm0EJRKNSt7__cxx1112basic_stringIcSt11char_traitsIcESaIcEEEEERNSt13tuple_elementIXT_ESt5tupleIJDpT0_EEE4typeERSC_
FN:1617,_ZSt16forward_as_tupleIJNSt7__cxx1112basic_stringIcSt11char_traitsIcESaIcEEEEESt5tupleIJDpOT_EES9_
FNDA:0,_ZSt16forward_as_tupleIJNSt7__cxx1112basic_stringIcSt11char_traitsIcESaIcEEEEESt5tupleIJDpOT_EES9_
FN:1804,_ZNSt4pairIKNSt7__cxx1112basic_stringIcSt11char_traitsIcESaIcEEEP12MST_StrategyEC2IJRS6_EJEEESt21piecewise_construct_tSt5tupleIJDpT_EESD_IJDpT0_EE
FNDA:0,_ZNSt4pairIKNSt7__cxx1112basic_stringIcSt11char_traitsIcESaIcEEEP12MST_StrategyEC2IJRS6_EJEEESt21piecewise_construct_tSt5tupleIJDpT_EESD_IJDpT0_EE
FN:1804,_ZNSt4pairIKNSt7__cxx1112basic_stringIcSt11char_traitsIcESaIcEEEP12MST_StrategyEC2IJOS5_EJEEESt21piecewise_construct_tSt5tupleIJDpT_EESD_IJDpT0_EE
FNDA:0,_ZNSt4pairIKNSt7__cxx1112basic_stringIcSt11char_traitsIcESaIcEEEP12MST_StrategyEC2IJOS5_EJEEESt21piecewise_construct_tSt5tupleIJDpT_EESD_IJDpT0_EE
FN:1816,_ZNSt4pairIKNSt7__cxx1112basic_stringIcSt11char_traitsIcESaIcEEEP12MST_StrategyEC2IJOS5_EJLm0EEJEJEEERSt5tupleIJDpT_EERSC_IJDpT1_EESt12_Index_tupleIJXspT0_EEESL_IJXspT2_EEE
FNDA:0,_ZNSt4pairIKNSt7__cxx1112basic_stringIcSt11char_traitsIcESaIcEEEP12MST_StrategyEC2IJOS5_EJLm0EEJEJEEERSt5tupleIJDpT_EERSC_IJDpT1_EESt12_Index_tupleIJXspT0_EEESL_IJXspT2_EEE
FN:1816,_ZNSt4pairIKNSt7__cxx1112basic_stringIcSt11char_traitsIcESaIcEEEP12MST_StrategyEC2IJRS6_EJLm0EEJEJEEERSt5tupleIJDpT_EERSC_IJDpT1_EESt12_Index_tupleIJXspT0_EEESL_IJXspT2_EEE
FNDA:0,_ZNSt4pairIKNSt7__cxx1112basic_stringIcSt11char_traitsIcESaIcEEEP12MST_StrategyEC2IJRS6_EJLm0EEJEJEEERSt5tupleIJDpT_EERSC_IJDpT1_EESt12_Index_tupleIJXspT0_EEESL_IJXspT2_EEE
DA:192,0
DA:193,0
DA:199,0
DA:200,0
DA:233,0
DA:233,0
DA:424,0
DA:424,0
DA:434,0
DA:435,0
DA:436,0
DA:440,0
DA:441,0
DA:442,0
DA:454,0
DA:456,0
DA:457,0
DA:454,0
DA:456,0
DA:457,0
DA:727,0
DA:729,0
DA:742,0
DA:744,0
DA:756,0
DA:756,0
DA:1377,0
DA:1378,0
DA:1377,0
DA:1378,0
DA:1393,0
DA:1394,0
DA:1393,0
DA:1394,0
DA:1617,0
DA:1618,0
DA:1804,0
DA:1809,0
DA:1810,0
DA:1804,0
DA:1809,0
DA:1810,0
DA:1816,0
DA:1819,0
DA:1820,0
DA:1821,0
DA:1816,0
DA:1819,0
DA:1820,0
DA:1821,0
end_of_record
TN:
SF:/usr/include/c++/11/bits/vector.tcc
FN:426,_ZNSt6vectorI4EdgeSaIS0_EE17_M_realloc_insertIJRKS0_EEEvN9__gnu_cxx17__normal_iteratorIPS0_S2_EEDpOT_
FNDA:0,_ZNSt6vectorI4EdgeSaIS0_EE17_M_realloc_insertIJRKS0_EEEvN9__gnu_cxx17__normal_iteratorIPS0_S2_EEDpOT_
DA:426,0
DA:436,0
DA:437,0
DA:438,0
DA:439,0
DA:440,0
DA:441,0
DA:449,0
DA:450,0
DA:456,0
DA:474,0
DA:475,0
DA:477,0
DA:481,0
DA:482,0
DA:485,0
DA:487,0
DA:488,0
DA:489,0
DA:491,0
DA:492,0
DA:493,0
DA:498,0
DA:500,0
DA:501,0
DA:502,0
DA:503,0
DA:504,0
DA:505,0
end_of_record
SF:/usr/include/c++/11/bits/stl_heap.h
FN:134,_ZSt11__push_heapIN9__gnu_cxx17__normal_iteratorIP4EdgeSt6vectorIS2_SaIS2_EEEElS2_NS0_5__ops14_Iter_less_valEEvT_T0_SB_T1_RT2_
FNDA:0,_ZSt11__push_heapIN9__gnu_cxx17__normal_iteratorIP4EdgeSt6vectorIS2_SaIS2_EEEElS2_NS0_5__ops14_Iter_less_valEEvT_T0_SB_T1_RT2_
FN:223,_ZSt13__adjust_heapIN9__gnu_cxx17__normal_iteratorIP4EdgeSt6vectorIS2_SaIS2_EEEElS2_NS0_5__ops15_Iter_less_iterEEvT_T0_SB_T1_T2_
FNDA:0,_ZSt13__adjust_heapIN9__gnu_cxx17__normal_iteratorIP4EdgeSt6vectorIS2_SaIS2_EEEElS2_NS0_5__ops15_Iter_less_iterEEvT_T0_SB_T1_T2_
FN:253,_ZSt10__pop_heapIN9__gnu_cxx17__normal_iteratorIP4EdgeSt6vectorIS2_SaIS2_EEEENS0_5__ops15_Iter_less_iterEEvT_SA_SA_RT0_
FNDA:0,_ZSt10__pop_heapIN9__gnu_cxx17__normal_iteratorIP4EdgeSt6vectorIS2_SaIS2_EEEENS0_5__ops15_Iter_less_iterEEvT_SA_SA_RT0_
FN:339,_ZSt11__make_heapIN9__gnu_cxx17__normal_iteratorIP4EdgeSt6vectorIS2_SaIS2_EEEENS0_5__ops15_Iter_less_iterEEvT_SA_RT0_
FNDA:0,_ZSt11__make_heapIN9__gnu_cxx17__normal_iteratorIP4EdgeSt6vectorIS2_SaIS2_EEEENS0_5__ops15_Iter_less_iterEEvT_SA_RT0_
FN:418,_ZSt11__sort_heapIN9__gnu_cxx17__normal_iteratorIP4EdgeSt6vectorIS2_SaIS2_EEEENS0_5__ops15_Iter_less_iterEEvT_SA_RT0_
FNDA:0,_ZSt11__sort_heapIN9__gnu_cxx17__normal_iteratorIP4EdgeSt6vectorIS2_SaIS2_EEEENS0_5__ops15_Iter_less_iterEEvT_SA_RT0_
DA:134,0
DA:138,0
DA:139,0
DA:141,0
DA:142,0
DA:143,0
DA:145,0
DA:146,0
DA:223,0
DA:226,0
DA:227,0
DA:228,0
DA:230,0
DA:231,0
DA:233,0
DA:234,0
DA:235,0
DA:237,0
DA:239,0
DA:240,0
DA:242,0
DA:245,0
DA:246,0
DA:247,0
DA:248,0
DA:253,0
DA:261,0
DA:262,0
DA:263,0
DA:264,0
DA:265,0
DA:266,0
DA:339,0
DA:347,0
DA:348,0
DA:350,0
DA:351,0
DA:352,0
DA:354,0
DA:355,0
DA:357,0
DA:358,0
DA:359,0
DA:418,0
DA:421,0
DA:423,0
DA:424,0
DA:426,0
end_of_record
SF:/usr/include/c++/11/bits/stl_algobase.h
FN:152,_ZSt9iter_swapIN9__gnu_cxx17__normal_iteratorIP4EdgeSt6vectorIS2_SaIS2_EEEES7_EvT_T0_
FNDA:0,_ZSt9iter_swapIN9__gnu_cxx17__normal_iteratorIP4EdgeSt6vectorIS2_SaIS2_EEEES7_EvT_T0_
FN:230,_ZSt3minImERKT_S2_S2_
FNDA:0,_ZSt3minImERKT_S2_S2_
FN:254,_ZSt3maxImERKT_S2_S2_
FNDA:0,_ZSt3maxImERKT_S2_S2_
FN:313,_ZSt12__niter_baseIPmET_S1_
FNDA:0,_ZSt12__niter_baseIPmET_S1_
FN:328,_ZSt12__niter_wrapIN9__gnu_cxx17__normal_iteratorIP4EdgeSt6vectorIS2_SaIS2_EEEES3_ET_S8_T0_
FNDA:0,_ZSt12__niter_wrapIN9__gnu_cxx17__normal_iteratorIP4EdgeSt6vectorIS2_SaIS2_EEEES3_ET_S8_T0_
FN:335,_ZSt12__niter_wrapIPmET_RKS1_S1_
FNDA:0,_ZSt12__niter_wrapIPmET_RKS1_S1_
FN:420,_ZNSt11__copy_moveILb0ELb1ESt26random_access_iterator_tagE8__copy_mImEEPT_PKS3_S6_S4_
FNDA:0,_ZNSt11__copy_moveILb0ELb1ESt26random_access_iterator_tagE8__copy_mImEEPT_PKS3_S6_S4_
FN:486,_ZSt14__copy_move_a2ILb0EPKmPmET1_T0_S4_S3_
FNDA:0,_ZSt14__copy_move_a2ILb0EPKmPmET1_T0_S4_S3_
FN:521,_ZSt14__copy_move_a1ILb0EPKmPmET1_T0_S4_S3_
FNDA:0,_ZSt14__copy_move_a1ILb0EPKmPmET1_T0_S4_S3_
FN:527,_ZSt13__copy_move_aILb0EN9__gnu_cxx17__normal_iteratorIPKmSt6vectorImSaImEEEEPmET1_T0_SA_S9_
FNDA:0,_ZSt13__copy_move_aILb0EN9__gnu_cxx17__normal_iteratorIPKmSt6vectorImSaImEEEEPmET1_T0_SA_S9_
FN:611,_ZSt4copyIN9__gnu_cxx17__normal_iteratorIPKmSt6vectorImSaImEEEEPmET0_T_SA_S9_
FNDA:0,_ZSt4copyIN9__gnu_cxx17__normal_iteratorIPKmSt6vectorImSaImEEEEPmET0_T_SA_S9_
FN:714,_ZNSt20__copy_move_backwardILb1ELb0ESt26random_access_iterator_tagE13__copy_move_bIP4EdgeS4_EET0_T_S6_S5_
FNDA:4,_ZNSt20__copy_move_backwardILb1ELb0ESt26random_access_iterator_tagE13__copy_move_bIP4EdgeS4_EET0_T_S6_S5_
FN:750,_ZSt23__copy_move_backward_a2ILb1EP4EdgeS1_ET1_T0_S3_S2_
FNDA:4,_ZSt23__copy_move_backward_a2ILb1EP4EdgeS1_ET1_T0_S3_S2_
FN:768,_ZSt23__copy_move_backward_a1ILb1EP4EdgeS1_ET1_T0_S3_S2_
FNDA:4,_ZSt23__copy_move_backward_a1ILb1EP4EdgeS1_ET1_T0_S3_S2_
FN:796,_ZSt22__copy_move_backward_aILb1EN9__gnu_cxx17__normal_iteratorIP4EdgeSt6vectorIS2_SaIS2_EEEES7_ET1_T0_S9_S8_
FNDA:4,_ZSt22__copy_move_backward_aILb1EN9__gnu_cxx17__normal_iteratorIP4EdgeSt6vectorIS2_SaIS2_EEEES7_ET1_T0_S9_S8_
FN:884,_ZSt13move_backwardIN9__gnu_cxx17__normal_iteratorIP4EdgeSt6vectorIS2_SaIS2_EEEES7_ET0_T_S9_S8_
FNDA:4,_ZSt13move_backwardIN9__gnu_cxx17__normal_iteratorIP4EdgeSt6vectorIS2_SaIS2_EEEES7_ET0_T_S9_S8_
FN:1514,_ZSt4__lgl
FNDA:2,_ZSt4__lgl
DA:152,0
DA:182,0
DA:184,0
DA:230,0
DA:235,0
DA:236,0
DA:237,0
DA:254,0
DA:259,0
DA:260,0
DA:261,0
DA:313,0
DA:315,0
DA:328,0
DA:329,0
DA:335,0
DA:336,0
DA:420,0
DA:429,0
DA:430,0
DA:431,0
DA:432,0
DA:486,0
DA:495,0
DA:521,0
DA:522,0
DA:527,0
DA:529,0
DA:532,0
DA:611,0
DA:620,0
DA:714,4
DA:717,4
DA:718,10
DA:719,6
DA:720,4
DA:750,4
DA:760,4
DA:762,4
DA:768,4
DA:769,4
DA:796,4
DA:798,4
DA:801,4
DA:884,4
DA:894,4
DA:896,4
DA:1514,2
DA:1515,2
end_of_record
SF:/usr/include/c++/11/bits/stl_tree.h
FN:234,_ZNSt13_Rb_tree_nodeISt4pairIKmmEE9_M_valptrEv
FNDA:0,_ZNSt13_Rb_tree_nodeISt4pairIKmmEE9_M_valptrEv
FN:547,_ZNSt8_Rb_treeImSt4pairIKmmESt10_Select1stIS2_ESt4lessImESaIS2_EE21_M_get_Node_allocatorEv
FNDA:0,_ZNSt8_Rb_treeImSt4pairIKmmESt10_Select1stIS2_ESt4lessImESaIS2_EE21_M_get_Node_allocatorEv
FN:564,_ZNSt8_Rb_treeImSt4pairIKmmESt10_Select1stIS2_ESt4lessImESaIS2_EE11_M_put_nodeEPSt13_Rb_tree_nodeIS2_E
FNDA:0,_ZNSt8_Rb_treeImSt4pairIKmmESt10_Select1stIS2_ESt4lessImESaIS2_EE11_M_put_nodeEPSt13_Rb_tree_nodeIS2_E
FN:618,_ZNSt8_Rb_treeImSt4pairIKmmESt10_Select1stIS2_ESt4lessImESaIS2_EE15_M_destroy_nodeEPSt13_Rb_tree_nodeIS2_E
FNDA:0,_ZNSt8_Rb_treeImSt4pairIKmmESt10_Select1stIS2_ESt4lessImESaIS2_EE15_M_destroy_nodeEPSt13_Rb_tree_nodeIS2_E
FN:629,_ZNSt8_Rb_treeImSt4pairIKmmESt10_Select1stIS2_ESt4lessImESaIS2_EE12_M_drop_nodeEPSt13_Rb_tree_nodeIS2_E
FNDA:0,_ZNSt8_Rb_treeImSt4pairIKmmESt10_Select1stIS2_ESt4lessImESaIS2_EE12_M_drop_nodeEPSt13_Rb_tree_nodeIS2_E
FN:734,_ZNKSt8_Rb_treeImSt4pairIKmmESt10_Select1stIS2_ESt4lessImESaIS2_EE9_M_mbeginEv
FNDA:0,_ZNKSt8_Rb_treeImSt4pairIKmmESt10_Select1stIS2_ESt4lessImESaIS2_EE9_M_mbeginEv
FN:738,_ZNSt8_Rb_treeImSt4pairIKmmESt10_Select1stIS2_ESt4lessImESaIS2_EE8_M_beginEv
FNDA:0,_ZNSt8_Rb_treeImSt4pairIKmmESt10_Select1stIS2_ESt4lessImESaIS2_EE8_M_beginEv
FN:779,_ZNSt8_Rb_treeImSt4pairIKmmESt10_Select1stIS2_ESt4lessImESaIS2_EE7_S_leftEPSt18_Rb_tree_node_base
FNDA:0,_ZNSt8_Rb_treeImSt4pairIKmmESt10_Select1stIS2_ESt4lessImESaIS2_EE7_S_leftEPSt18_Rb_tree_node_base
FN:787,_ZNSt8_Rb_treeImSt4pairIKmmESt10_Select1stIS2_ESt4lessImESaIS2_EE8_S_rightEPSt18_Rb_tree_node_base
FNDA:0,_ZNSt8_Rb_treeImSt4pairIKmmESt10_Select1stIS2_ESt4lessImESaIS2_EE8_S_rightEPSt18_Rb_tree_node_base
FN:983,_ZNSt8_Rb_treeImSt4pairIKmmESt10_Select1stIS2_ESt4lessImESaIS2_EED2Ev
FNDA:0,_ZNSt8_Rb_treeImSt4pairIKmmESt10_Select1stIS2_ESt4lessImESaIS2_EED2Ev
FN:1883,_ZNSt8_Rb_treeImSt4pairIKmmESt10_Select1stIS2_ESt4lessImESaIS2_EE8_M_eraseEPSt13_Rb_tree_nodeIS2_E
FNDA:0,_ZNSt8_Rb_treeImSt4pairIKmmESt10_Select1stIS2_ESt4lessImESaIS2_EE8_M_eraseEPSt13_Rb_tree_nodeIS2_E
DA:234,0
DA:235,0
DA:547,0
DA:548,0
DA:564,0
DA:565,0
DA:618,0
DA:623,0
DA:624,0
DA:626,0
DA:629,0
DA:631,0
DA:632,0
DA:633,0
DA:734,0
DA:735,0
DA:738,0
DA:739,0
DA:779,0
DA:780,0
DA:787,0
DA:788,0
DA:983,0
DA:984,0
DA:1883,0
DA:1887,0
DA:1889,0
DA:1890,0
DA:1891,0
DA:1892,0
DA:1894,0
end_of_record
SF:/usr/include/c++/11/bits/cpp_type_traits.h
FN:560,_ZSt12__miter_baseIN9__gnu_cxx17__normal_iteratorIPKmSt6vectorImSaImEEEEET_S8_
FNDA:0,_ZSt12__miter_baseIN9__gnu_cxx17__normal_iteratorIPKmSt6vectorImSaImEEEEET_S8_
FN:560,_ZSt12__miter_baseIN9__gnu_cxx17__normal_iteratorIP4EdgeSt6vectorIS2_SaIS2_EEEEET_S8_
FNDA:0,_ZSt12__miter_baseIN9__gnu_cxx17__normal_iteratorIP4EdgeSt6vectorIS2_SaIS2_EEEEET_S8_
DA:560,0
DA:561,0
DA:560,0
DA:561,0
end_of_record
SF:/home/imri/OS-FinalProject/MST/MST_Strategy.hpp
FN:8,_ZN12MST_StrategyD0Ev
FNDA:0,_ZN12MST_StrategyD0Ev
FN:8,_ZN12MST_StrategyD2Ev
FNDA:0,_ZN12MST_StrategyD2Ev
DA:8,0
DA:8,0
end_of_record
SF:/usr/include/c++/11/bits/allocator.h
FN:156,_ZNSaISt6vectorImSaImEEEC2Ev
FNDA:0,_ZNSaISt6vectorImSaImEEEC2Ev
FN:156,_ZNSaI4EdgeEC2Ev
FNDA:0,_ZNSaI4EdgeEC2Ev
FN:159,_ZNSaImEC2ERKS_
FNDA:0,_ZNSaImEC2ERKS_
FN:159,_ZNSaISt6vectorImSaImEEEC2ERKS2_
FNDA:0,_ZNSaISt6vectorImSaImEEEC2ERKS2_
FN:174,_ZNSaImED2Ev
FNDA:0,_ZNSaImED2Ev
FN:174,_ZNSaISt13_Rb_tree_nodeISt4pairIKmmEEED2Ev
FNDA:0,_ZNSaISt13_Rb_tree_nodeISt4pairIKmmEEED2Ev
FN:174,_ZNSaISt6vectorImSaImEEED2Ev
FNDA:0,_ZNSaISt6vectorImSaImEEED2Ev
FN:174,_ZNSaI4EdgeED2Ev
FNDA:0,_ZNSaI4EdgeED2Ev
DA:156,0
DA:156,0
DA:159,0
DA:160,0
DA:159,0
DA:160,0
DA:174,0
DA:174,0
DA:174,0
DA:174,0
end_of_record
SF:/usr/include/c++/11/bits/hashtable_policy.h
FN:237,_ZNSt8__detail21_Hash_node_value_baseI4EdgeE9_M_valptrEv
FNDA:0,_ZNSt8__detail21_Hash_node_value_baseI4EdgeE9_M_valptrEv
FN:245,_ZNSt8__detail21_Hash_node_value_baseI4EdgeE4_M_vEv
FNDA:0,_ZNSt8__detail21_Hash_node_value_baseI4EdgeE4_M_vEv
FN:282,_ZNKSt8__detail10_Hash_nodeI4EdgeLb1EE7_M_nextEv
FNDA:0,_ZNKSt8__detail10_Hash_nodeI4EdgeLb1EE7_M_nextEv
FN:299,_ZNSt8__detail19_Node_iterator_baseI4EdgeLb1EE7_M_incrEv
FNDA:0,_ZNSt8__detail19_Node_iterator_baseI4EdgeLb1EE7_M_incrEv
FN:309,_ZNSt8__detailneERKNS_19_Node_iterator_baseI4EdgeLb1EEES4_
FNDA:0,_ZNSt8__detailneERKNS_19_Node_iterator_baseI4EdgeLb1EEES4_
FN:342,_ZNKSt8__detail14_Node_iteratorI4EdgeLb1ELb1EEdeEv
FNDA:0,_ZNKSt8__detail14_Node_iteratorI4EdgeLb1ELb1EEdeEv
FN:357,_ZNSt8__detail14_Node_iteratorI4EdgeLb1ELb1EEppEi
FNDA:3,_ZNSt8__detail14_Node_iteratorI4EdgeLb1ELb1EEppEi
DA:237,0
DA:238,0
DA:245,0
DA:246,0
DA:282,0
DA:283,0
DA:299,0
DA:300,0
DA:309,0
DA:311,0
DA:342,0
DA:343,0
DA:357,3
DA:359,3
DA:360,3
DA:361,3
end_of_record
SF:/usr/include/c++/11/tuple
FN:192,_ZNSt10_Head_baseILm1ERSt6vectorIS0_ImSaImEESaIS2_EELb0EEC2ES5_
FNDA:0,_ZNSt10_Head_baseILm1ERSt6vectorIS0_ImSaImEESaIS2_EELb0EEC2ES5_
FN:192,_ZNSt10_Head_baseILm0ERSt6vectorIS0_ImSaImEESaIS2_EELb0EEC2ES5_
FNDA:0,_ZNSt10_Head_baseILm0ERSt6vectorIS0_ImSaImEESaIS2_EELb0EEC2ES5_
FN:233,_ZNSt10_Head_baseILm1ERSt6vectorIS0_ImSaImEESaIS2_EELb0EE7_M_headERS6_
FNDA:0,_ZNSt10_Head_baseILm1ERSt6vectorIS0_ImSaImEESaIS2_EELb0EE7_M_headERS6_
FN:233,_ZNSt10_Head_baseILm0ERSt6vectorIS0_ImSaImEESaIS2_EELb0EE7_M_headERS6_
FNDA:0,_ZNSt10_Head_baseILm0ERSt6vectorIS0_ImSaImEESaIS2_EELb0EE7_M_headERS6_
FN:268,_ZNSt11_Tuple_implILm0EJRSt6vectorIS0_ImSaImEESaIS2_EES5_EE7_M_headERS6_
FNDA:0,_ZNSt11_Tuple_implILm0EJRSt6vectorIS0_ImSaImEESaIS2_EES5_EE7_M_headERS6_
FN:274,_ZNSt11_Tuple_implILm0EJRSt6vectorIS0_ImSaImEESaIS2_EES5_EE7_M_tailERS6_
FNDA:0,_ZNSt11_Tuple_implILm0EJRSt6vectorIS0_ImSaImEESaIS2_EES5_EE7_M_tailERS6_
FN:283,_ZNSt11_Tuple_implILm0EJRSt6vectorIS0_ImSaImEESaIS2_EES5_EEC2ES5_S5_
FNDA:0,_ZNSt11_Tuple_implILm0EJRSt6vectorIS0_ImSaImEESaIS2_EES5_EEC2ES5_S5_
FN:424,_ZNSt11_Tuple_implILm1EJRSt6vectorIS0_ImSaImEESaIS2_EEEE7_M_headERS6_
FNDA:0,_ZNSt11_Tuple_implILm1EJRSt6vectorIS0_ImSaImEESaIS2_EEEE7_M_headERS6_
FN:434,_ZNSt11_Tuple_implILm1EJRSt6vectorIS0_ImSaImEESaIS2_EEEEC2ES5_
FNDA:0,_ZNSt11_Tuple_implILm1EJRSt6vectorIS0_ImSaImEESaIS2_EEEEC2ES5_
FN:1063,_ZNSt5tupleIJRSt6vectorIS0_ImSaImEESaIS2_EES5_EEC2ILb1ELb1EEES5_S5_
FNDA:0,_ZNSt5tupleIJRSt6vectorIS0_ImSaImEESaIS2_EES5_EEC2ILb1ELb1EEES5_S5_
FN:1321,_ZNSt5tupleIJRSt6vectorIS0_ImSaImEESaIS2_EES5_EEaSIS4_S4_EENSt9enable_ifIXcl12__assignableIT_T0_EEERS6_E4typeEOSt4pairIS9_SA_E
FNDA:0,_ZNSt5tupleIJRSt6vectorIS0_ImSaImEESaIS2_EES5_EEaSIS4_S4_EENSt9enable_ifIXcl12__assignableIT_T0_EEERS6_E4typeEOSt4pairIS9_SA_E
FN:1746,_ZSt3tieIJSt6vectorIS0_ImSaImEESaIS2_EES4_EESt5tupleIJDpRT_EES8_
FNDA:0,_ZSt3tieIJSt6vectorIS0_ImSaImEESaIS2_EES4_EESt5tupleIJDpRT_EES8_
DA:192,0
DA:193,0
DA:192,0
DA:193,0
DA:233,0
DA:233,0
DA:268,0
DA:274,0
DA:283,0
DA:284,0
DA:285,0
DA:424,0
DA:434,0
DA:435,0
DA:436,0
DA:1063,0
DA:1065,0
DA:1321,0
DA:1324,0
DA:1325,0
DA:1326,0
DA:1746,0
DA:1747,0
end_of_record
SF:/usr/include/c++/11/bits/stl_construct.h
FN:109,_ZSt10_ConstructI4EdgeJRKS0_EEvPT_DpOT0_
FNDA:0,_ZSt10_ConstructI4EdgeJRKS0_EEvPT_DpOT0_
FN:109,_ZSt10_ConstructISt6vectorImSaImEEJRKS2_EEvPT_DpOT0_
FNDA:0,_ZSt10_ConstructISt6vectorImSaImEEJRKS2_EEvPT_DpOT0_
FN:146,_ZSt8_DestroyISt6vectorImSaImEEEvPT_
FNDA:0,_ZSt8_DestroyISt6vectorImSaImEEEvPT_
FN:146,_ZSt8_DestroyI4EdgeEvPT_
FNDA:0,_ZSt8_DestroyI4EdgeEvPT_
FN:160,_ZNSt12_Destroy_auxILb0EE9__destroyIPSt6vectorImSaImEEEEvT_S6_
FNDA:0,_ZNSt12_Destroy_auxILb0EE9__destroyIPSt6vectorImSaImEEEEvT_S6_
FN:160,_ZNSt12_Destroy_auxILb0EE9__destroyIP4EdgeEEvT_S4_
FNDA:0,_ZNSt12_Destroy_auxILb0EE9__destroyIP4EdgeEEvT_S4_
FN:172,_ZNSt12_Destroy_auxILb1EE9__destroyIPmEEvT_S3_
FNDA:0,_ZNSt12_Destroy_auxILb1EE9__destroyIPmEEvT_S3_
FN:182,_ZSt8_DestroyIPSt6vectorImSaImEEEvT_S4_
FNDA:0,_ZSt8_DestroyIPSt6vectorImSaImEEEvT_S4_
FN:182,_ZSt8_DestroyIPmEvT_S1_
FNDA:0,_ZSt8_DestroyIPmEvT_S1_
FN:182,_ZSt8_DestroyIP4EdgeEvT_S2_
FNDA:0,_ZSt8_DestroyIP4EdgeEvT_S2_
DA:109,0
DA:119,0
DA:120,0
DA:109,0
DA:119,0
DA:120,0
DA:146,0
DA:151,0
DA:153,0
DA:146,0
DA:151,0
DA:153,0
DA:160,0
DA:162,0
DA:163,0
DA:164,0
DA:160,0
DA:162,0
DA:163,0
DA:164,0
DA:172,0
DA:182,0
DA:196,0
DA:197,0
DA:182,0
DA:196,0
DA:197,0
DA:182,0
DA:196,0
DA:197,0
end_of_record
SF:/usr/include/c++/11/new
FN:174,_ZnwmPv
FNDA:0,_ZnwmPv
FN:180,_ZdlPvS_
FNDA:0,_ZdlPvS_
DA:174,0
DA:175,0
DA:180,0
end_of_record
SF:/usr/include/c++/11/bits/stl_algo.h
FN:79,_ZSt22__move_median_to_firstIN9__gnu_cxx17__normal_iteratorIP4EdgeSt6vectorIS2_SaIS2_EEEENS0_5__ops15_Iter_less_iterEEvT_SA_SA_SA_T0_
FNDA:0,_ZSt22__move_median_to_firstIN9__gnu_cxx17__normal_iteratorIP4EdgeSt6vectorIS2_SaIS2_EEEENS0_5__ops15_Iter_less_iterEEvT_SA_SA_SA_T0_
FN:1642,_ZSt13__heap_selectIN9__gnu_cxx17__normal_iteratorIP4EdgeSt6vectorIS2_SaIS2_EEEENS0_5__ops15_Iter_less_iterEEvT_SA_SA_T0_
FNDA:0,_ZSt13__heap_selectIN9__gnu_cxx17__normal_iteratorIP4EdgeSt6vectorIS2_SaIS2_EEEENS0_5__ops15_Iter_less_iterEEvT_SA_SA_T0_
FN:1799,_ZSt25__unguarded_linear_insertIN9__gnu_cxx17__normal_iteratorIP4EdgeSt6vectorIS2_SaIS2_EEEENS0_5__ops14_Val_less_iterEEvT_T0_
FNDA:0,_ZSt25__unguarded_linear_insertIN9__gnu_cxx17__normal_iteratorIP4EdgeSt6vectorIS2_SaIS2_EEEENS0_5__ops14_Val_less_iterEEvT_T0_
FN:1819,_ZSt16__insertion_sortIN9__gnu_cxx17__normal_iteratorIP4EdgeSt6vectorIS2_SaIS2_EEEENS0_5__ops15_Iter_less_iterEEvT_SA_T0_
FNDA:1,_ZSt16__insertion_sortIN9__gnu_cxx17__normal_iteratorIP4EdgeSt6vectorIS2_SaIS2_EEEENS0_5__ops15_Iter_less_iterEEvT_SA_T0_
FN:1843,_ZSt26__unguarded_insertion_sortIN9__gnu_cxx17__normal_iteratorIP4EdgeSt6vectorIS2_SaIS2_EEEENS0_5__ops15_Iter_less_iterEEvT_SA_T0_
FNDA:0,_ZSt26__unguarded_insertion_sortIN9__gnu_cxx17__normal_iteratorIP4EdgeSt6vectorIS2_SaIS2_EEEENS0_5__ops15_Iter_less_iterEEvT_SA_T0_
FN:1861,_ZSt22__final_insertion_sortIN9__gnu_cxx17__normal_iteratorIP4EdgeSt6vectorIS2_SaIS2_EEEENS0_5__ops15_Iter_less_iterEEvT_SA_T0_
FNDA:1,_ZSt22__final_insertion_sortIN9__gnu_cxx17__normal_iteratorIP4EdgeSt6vectorIS2_SaIS2_EEEENS0_5__ops15_Iter_less_iterEEvT_SA_T0_
FN:1878,_ZSt21__unguarded_partitionIN9__gnu_cxx17__normal_iteratorIP4EdgeSt6vectorIS2_SaIS2_EEEENS0_5__ops15_Iter_less_iterEET_SA_SA_SA_T0_
FNDA:0,_ZSt21__unguarded_partitionIN9__gnu_cxx17__normal_iteratorIP4EdgeSt6vectorIS2_SaIS2_EEEENS0_5__ops15_Iter_less_iterEET_SA_SA_SA_T0_
FN:1900,_ZSt27__unguarded_partition_pivotIN9__gnu_cxx17__normal_iteratorIP4EdgeSt6vectorIS2_SaIS2_EEEENS0_5__ops15_Iter_less_iterEET_SA_SA_T0_
FNDA:0,_ZSt27__unguarded_partition_pivotIN9__gnu_cxx17__normal_iteratorIP4EdgeSt6vectorIS2_SaIS2_EEEENS0_5__ops15_Iter_less_iterEET_SA_SA_T0_
FN:1912,_ZSt14__partial_sortIN9__gnu_cxx17__normal_iteratorIP4EdgeSt6vectorIS2_SaIS2_EEEENS0_5__ops15_Iter_less_iterEEvT_SA_SA_T0_
FNDA:0,_ZSt14__partial_sortIN9__gnu_cxx17__normal_iteratorIP4EdgeSt6vectorIS2_SaIS2_EEEENS0_5__ops15_Iter_less_iterEEvT_SA_SA_T0_
FN:1925,_ZSt16__introsort_loopIN9__gnu_cxx17__normal_iteratorIP4EdgeSt6vectorIS2_SaIS2_EEEElNS0_5__ops15_Iter_less_iterEEvT_SA_T0_T1_
FNDA:1,_ZSt16__introsort_loopIN9__gnu_cxx17__normal_iteratorIP4EdgeSt6vectorIS2_SaIS2_EEEElNS0_5__ops15_Iter_less_iterEEvT_SA_T0_T1_
FN:1949,_ZSt6__sortIN9__gnu_cxx17__normal_iteratorIP4EdgeSt6vectorIS2_SaIS2_EEEENS0_5__ops15_Iter_less_iterEEvT_SA_T0_
FNDA:1,_ZSt6__sortIN9__gnu_cxx17__normal_iteratorIP4EdgeSt6vectorIS2_SaIS2_EEEENS0_5__ops15_Iter_less_iterEEvT_SA_T0_
FN:4832,_ZSt4sortIN9__gnu_cxx17__normal_iteratorIP4EdgeSt6vectorIS2_SaIS2_EEEEEvT_S8_
FNDA:1,_ZSt4sortIN9__gnu_cxx17__normal_iteratorIP4EdgeSt6vectorIS2_SaIS2_EEEEEvT_S8_
DA:79,0
DA:82,0
DA:84,0
DA:85,0
DA:86,0
DA:87,0
DA:89,0
DA:91,0
DA:92,0
DA:93,0
DA:94,0
DA:96,0
DA:97,0
DA:1642,0
DA:1646,0
DA:1647,0
DA:1648,0
DA:1649,0
DA:1650,0
DA:1799,0
DA:1803,0
DA:1804,0
DA:1805,0
DA:1806,0
DA:1808,0
DA:1809,0
DA:1810,0
DA:1812,0
DA:1813,0
DA:1819,1
DA:1822,1
DA:1824,3
DA:1826,2
DA:1829,2
DA:1830,2
DA:1831,2
DA:1832,2
DA:1834,0
DA:1835,0
DA:1843,0
DA:1846,0
DA:1847,0
DA:1848,0
DA:1849,0
DA:1861,1
DA:1864,1
DA:1866,0
DA:1867,0
DA:1871,1
DA:1872,1
DA:1878,0
DA:1884,0
DA:1885,0
DA:1886,0
DA:1887,0
DA:1888,0
DA:1889,0
DA:1890,0
DA:1891,0
DA:1892,0
DA:1900,0
DA:1903,0
DA:1904,0
DA:1906,0
DA:1912,0
DA:1917,0
DA:1918,0
DA:1919,0
DA:1925,1
DA:1929,1
DA:1931,0
DA:1933,0
DA:1934,0
DA:1936,0
DA:1938,0
DA:1939,0
DA:1940,0
DA:1949,1
DA:1952,1
DA:1954,1
DA:1955,1
DA:1957,1
DA:1959,1
DA:4832,1
DA:4842,1
DA:4843,1
end_of_record
SF:/usr/include/c++/11/ext/new_allocator.h
FN:79,_ZN9__gnu_cxx13new_allocatorI4EdgeEC2Ev
FNDA:0,_ZN9__gnu_cxx13new_allocatorI4EdgeEC2Ev
FN:79,_ZN9__gnu_cxx13new_allocatorISt6vectorImSaImEEEC2Ev
FNDA:0,_ZN9__gnu_cxx13new_allocatorISt6vectorImSaImEEEC2Ev
FN:82,_ZN9__gnu_cxx13new_allocatorImEC2ERKS1_
FNDA:0,_ZN9__gnu_cxx13new_allocatorImEC2ERKS1_
FN:82,_ZN9__gnu_cxx13new_allocatorISt6vectorImSaImEEEC2ERKS4_
FNDA:0,_ZN9__gnu_cxx13new_allocatorISt6vectorImSaImEEEC2ERKS4_
FN:89,_ZN9__gnu_cxx13new_allocatorI4EdgeED2Ev
FNDA:0,_ZN9__gnu_cxx13new_allocatorI4EdgeED2Ev
FN:89,_ZN9__gnu_cxx13new_allocatorISt13_Rb_tree_nodeISt4pairIKmmEEED2Ev
FNDA:0,_ZN9__gnu_cxx13new_allocatorISt13_Rb_tree_nodeISt4pairIKmmEEED2Ev
FN:89,_ZN9__gnu_cxx13new_allocatorImED2Ev
FNDA:0,_ZN9__gnu_cxx13new_allocatorImED2Ev
FN:89,_ZN9__gnu_cxx13new_allocatorISt6vectorImSaImEEED2Ev
FNDA:0,_ZN9__gnu_cxx13new_allocatorISt6vectorImSaImEEED2Ev
FN:103,_ZN9__gnu_cxx13new_allocatorI4EdgeE8allocateEmPKv
FNDA:0,_ZN9__gnu_cxx13new_allocatorI4EdgeE8allocateEmPKv
FN:103,_ZN9__gnu_cxx13new_allocatorImE8allocateEmPKv
FNDA:0,_ZN9__gnu_cxx13new_allocatorImE8allocateEmPKv
FN:103,_ZN9__gnu_cxx13new_allocatorISt6vectorImSaImEEE8allocateEmPKv
FNDA:0,_ZN9__gnu_cxx13new_allocatorISt6vectorImSaImEEE8allocateEmPKv
FN:132,_ZN9__gnu_cxx13new_allocatorISt13_Rb_tree_nodeISt4pairIKmmEEE10deallocateEPS5_m
FNDA:0,_ZN9__gnu_cxx13new_allocatorISt13_Rb_tree_nodeISt4pairIKmmEEE10deallocateEPS5_m
FN:132,_ZN9__gnu_cxx13new_allocatorImE10deallocateEPmm
FNDA:0,_ZN9__gnu_cxx13new_allocatorImE10deallocateEPmm
FN:132,_ZN9__gnu_cxx13new_allocatorISt6vectorImSaImEEE10deallocateEPS3_m
FNDA:0,_ZN9__gnu_cxx13new_allocatorISt6vectorImSaImEEE10deallocateEPS3_m
FN:132,_ZN9__gnu_cxx13new_allocatorI4EdgeE10deallocateEPS1_m
FNDA:0,_ZN9__gnu_cxx13new_allocatorI4EdgeE10deallocateEPS1_m
FN:154,_ZNK9__gnu_cxx13new_allocatorI4EdgeE8max_sizeEv
FNDA:0,_ZNK9__gnu_cxx13new_allocatorI4EdgeE8max_sizeEv
FN:160,_ZN9__gnu_cxx13new_allocatorI4EdgeE9constructIS1_JRKS1_EEEvPT_DpOT0_
FNDA:0,_ZN9__gnu_cxx13new_allocatorI4EdgeE9constructIS1_JRKS1_EEEvPT_DpOT0_
FN:166,_ZN9__gnu_cxx13new_allocatorISt13_Rb_tree_nodeISt4pairIKmmEEE7destroyIS4_EEvPT_
FNDA:0,_ZN9__gnu_cxx13new_allocatorISt13_Rb_tree_nodeISt4pairIKmmEEE7destroyIS4_EEvPT_
FN:166,_ZN9__gnu_cxx13new_allocatorI4EdgeE7destroyIS1_EEvPT_
FNDA:0,_ZN9__gnu_cxx13new_allocatorI4EdgeE7destroyIS1_EEvPT_
FN:197,_ZNK9__gnu_cxx13new_allocatorI4EdgeE11_M_max_sizeEv
FNDA:0,_ZNK9__gnu_cxx13new_allocatorI4EdgeE11_M_max_sizeEv
FN:197,_ZNK9__gnu_cxx13new_allocatorISt6vectorImSaImEEE11_M_max_sizeEv
FNDA:0,_ZNK9__gnu_cxx13new_allocatorISt6vectorImSaImEEE11_M_max_sizeEv
FN:197,_ZNK9__gnu_cxx13new_allocatorImE11_M_max_sizeEv
FNDA:0,_ZNK9__gnu_cxx13new_allocatorImE11_M_max_sizeEv
DA:79,0
DA:79,0
DA:82,0
DA:82,0
DA:89,0
DA:89,0
DA:89,0
DA:89,0
DA:103,0
DA:111,0
DA:115,0
DA:116,0
DA:117,0
DA:127,0
DA:103,0
DA:111,0
DA:115,0
DA:116,0
DA:117,0
DA:127,0
DA:103,0
DA:111,0
DA:115,0
DA:116,0
DA:117,0
DA:127,0
DA:132,0
DA:145,0
DA:132,0
DA:145,0
DA:132,0
DA:145,0
DA:132,0
DA:145,0
DA:154,0
DA:155,0
DA:160,0
DA:162,0
DA:166,0
DA:168,0
DA:166,0
DA:168,0
DA:197,0
DA:200,0
DA:197,0
DA:200,0
DA:197,0
DA:200,0
end_of_record
SF:/usr/include/c++/11/bits/stl_vector.h
FN:97,_ZNSt12_Vector_baseImSaImEE17_Vector_impl_dataC2Ev
FNDA:0,_ZNSt12_Vector_baseImSaImEE17_Vector_impl_dataC2Ev
FN:97,_ZNSt12_Vector_baseI4EdgeSaIS0_EE17_Vector_impl_dataC2Ev
FNDA:0,_ZNSt12_Vector_baseI4EdgeSaIS0_EE17_Vector_impl_dataC2Ev
FN:97,_ZNSt12_Vector_baseISt6vectorImSaImEESaIS2_EE17_Vector_impl_dataC2Ev
FNDA:0,_ZNSt12_Vector_baseISt6vectorImSaImEESaIS2_EE17_Vector_impl_dataC2Ev
FN:109,_ZNSt12_Vector_baseISt6vectorImSaImEESaIS2_EE17_Vector_impl_data12_M_copy_dataERKS5_
FNDA:0,_ZNSt12_Vector_baseISt6vectorImSaImEESaIS2_EE17_Vector_impl_data12_M_copy_dataERKS5_
FN:117,_ZNSt12_Vector_baseISt6vectorImSaImEESaIS2_EE17_Vector_impl_data12_M_swap_dataERS5_
FNDA:0,_ZNSt12_Vector_baseISt6vectorImSaImEESaIS2_EE17_Vector_impl_data12_M_swap_dataERS5_
FN:131,_ZNSt12_Vector_baseI4EdgeSaIS0_EE12_Vector_implC2Ev
FNDA:0,_ZNSt12_Vector_baseI4EdgeSaIS0_EE12_Vector_implC2Ev
FN:131,_ZNSt12_Vector_baseISt6vectorImSaImEESaIS2_EE12_Vector_implC2Ev
FNDA:0,_ZNSt12_Vector_baseISt6vectorImSaImEESaIS2_EE12_Vector_implC2Ev
FN:136,_ZNSt12_Vector_baseISt6vectorImSaImEESaIS2_EE12_Vector_implC2ERKS3_
FNDA:0,_ZNSt12_Vector_baseISt6vectorImSaImEESaIS2_EE12_Vector_implC2ERKS3_
FN:136,_ZNSt12_Vector_baseImSaImEE12_Vector_implC2ERKS0_
FNDA:0,_ZNSt12_Vector_baseImSaImEE12_Vector_implC2ERKS0_
FN:276,_ZNSt12_Vector_baseImSaImEE19_M_get_Tp_allocatorEv
FNDA:0,_ZNSt12_Vector_baseImSaImEE19_M_get_Tp_allocatorEv
FN:276,_ZNSt12_Vector_baseISt6vectorImSaImEESaIS2_EE19_M_get_Tp_allocatorEv
FNDA:0,_ZNSt12_Vector_baseISt6vectorImSaImEESaIS2_EE19_M_get_Tp_allocatorEv
FN:276,_ZNSt12_Vector_baseI4EdgeSaIS0_EE19_M_get_Tp_allocatorEv
FNDA:0,_ZNSt12_Vector_baseI4EdgeSaIS0_EE19_M_get_Tp_allocatorEv
FN:280,_ZNKSt12_Vector_baseI4EdgeSaIS0_EE19_M_get_Tp_allocatorEv
FNDA:0,_ZNKSt12_Vector_baseI4EdgeSaIS0_EE19_M_get_Tp_allocatorEv
FN:280,_ZNKSt12_Vector_baseISt6vectorImSaImEESaIS2_EE19_M_get_Tp_allocatorEv
FNDA:0,_ZNKSt12_Vector_baseISt6vectorImSaImEESaIS2_EE19_M_get_Tp_allocatorEv
FN:280,_ZNKSt12_Vector_baseImSaImEE19_M_get_Tp_allocatorEv
FNDA:0,_ZNKSt12_Vector_baseImSaImEE19_M_get_Tp_allocatorEv
FN:284,_ZNKSt12_Vector_baseISt6vectorImSaImEESaIS2_EE13get_allocatorEv
FNDA:0,_ZNKSt12_Vector_baseISt6vectorImSaImEESaIS2_EE13get_allocatorEv
FN:288,_ZNSt12_Vector_baseI4EdgeSaIS0_EEC2Ev
FNDA:0,_ZNSt12_Vector_baseI4EdgeSaIS0_EEC2Ev
FN:288,_ZNSt12_Vector_baseISt6vectorImSaImEESaIS2_EEC2Ev
FNDA:0,_ZNSt12_Vector_baseISt6vectorImSaImEESaIS2_EEC2Ev
FN:293,_ZNSt12_Vector_baseISt6vectorImSaImEESaIS2_EEC2ERKS3_
FNDA:0,_ZNSt12_Vector_baseISt6vectorImSaImEESaIS2_EEC2ERKS3_
FN:303,_ZNSt12_Vector_baseImSaImEEC2EmRKS0_
FNDA:0,_ZNSt12_Vector_baseImSaImEEC2EmRKS0_
FN:303,_ZNSt12_Vector_baseISt6vectorImSaImEESaIS2_EEC2EmRKS3_
FNDA:0,_ZNSt12_Vector_baseISt6vectorImSaImEESaIS2_EEC2EmRKS3_
FN:333,_ZNSt12_Vector_baseI4EdgeSaIS0_EED2Ev
FNDA:0,_ZNSt12_Vector_baseI4EdgeSaIS0_EED2Ev
FN:333,_ZNSt12_Vector_baseISt6vectorImSaImEESaIS2_EED2Ev
FNDA:0,_ZNSt12_Vector_baseISt6vectorImSaImEESaIS2_EED2Ev
FN:333,_ZNSt12_Vector_baseImSaImEED2Ev
FNDA:0,_ZNSt12_Vector_baseImSaImEED2Ev
FN:343,_ZNSt12_Vector_baseImSaImEE11_M_allocateEm
FNDA:0,_ZNSt12_Vector_baseImSaImEE11_M_allocateEm
FN:343,_ZNSt12_Vector_baseISt6vectorImSaImEESaIS2_EE11_M_allocateEm
FNDA:0,_ZNSt12_Vector_baseISt6vectorImSaImEESaIS2_EE11_M_allocateEm
FN:343,_ZNSt12_Vector_baseI4EdgeSaIS0_EE11_M_allocateEm
FNDA:0,_ZNSt12_Vector_baseI4EdgeSaIS0_EE11_M_allocateEm
FN:350,_ZNSt12_Vector_baseI4EdgeSaIS0_EE13_M_deallocateEPS0_m
FNDA:0,_ZNSt12_Vector_baseI4EdgeSaIS0_EE13_M_deallocateEPS0_m
FN:350,_ZNSt12_Vector_baseImSaImEE13_M_deallocateEPmm
FNDA:0,_ZNSt12_Vector_baseImSaImEE13_M_deallocateEPmm
FN:350,_ZNSt12_Vector_baseISt6vectorImSaImEESaIS2_EE13_M_deallocateEPS2_m
FNDA:0,_ZNSt12_Vector_baseISt6vectorImSaImEESaIS2_EE13_M_deallocateEPS2_m
FN:359,_ZNSt12_Vector_baseISt6vectorImSaImEESaIS2_EE17_M_create_storageEm
FNDA:0,_ZNSt12_Vector_baseISt6vectorImSaImEESaIS2_EE17_M_create_storageEm
FN:359,_ZNSt12_Vector_baseImSaImEE17_M_create_storageEm
FNDA:0,_ZNSt12_Vector_baseImSaImEE17_M_create_storageEm
FN:487,_ZNSt6vectorIS_ImSaImEESaIS1_EEC2Ev
FNDA:0,_ZNSt6vectorIS_ImSaImEESaIS1_EEC2Ev
FN:487,_ZNSt6vectorI4EdgeSaIS0_EEC2Ev
FNDA:0,_ZNSt6vectorI4EdgeSaIS0_EEC2Ev
FN:497,_ZNSt6vectorIS_ImSaImEESaIS1_EEC2ERKS2_
FNDA:0,_ZNSt6vectorIS_ImSaImEESaIS1_EEC2ERKS2_
FN:553,_ZNSt6vectorImSaImEEC2ERKS1_
FNDA:0,_ZNSt6vectorImSaImEEC2ERKS1_
FN:553,_ZNSt6vectorIS_ImSaImEESaIS1_EEC2ERKS3_
FNDA:0,_ZNSt6vectorIS_ImSaImEESaIS1_EEC2ERKS3_
FN:678,_ZNSt6vectorI4EdgeSaIS0_EED2Ev
FNDA:0,_ZNSt6vectorI4EdgeSaIS0_EED2Ev
FN:678,_ZNSt6vectorImSaImEED2Ev
FNDA:0,_ZNSt6vectorImSaImEED2Ev
FN:678,_ZNSt6vectorIS_ImSaImEESaIS1_EED2Ev
FNDA:0,_ZNSt6vectorIS_ImSaImEESaIS1_EED2Ev
FN:709,_ZNSt6vectorIS_ImSaImEESaIS1_EEaSEOS3_
FNDA:0,_ZNSt6vectorIS_ImSaImEESaIS1_EEaSEOS3_
FN:811,_ZNSt6vectorI4EdgeSaIS0_EE5beginEv
FNDA:0,_ZNSt6vectorI4EdgeSaIS0_EE5beginEv
FN:820,_ZNKSt6vectorIS_ImSaImEESaIS1_EE5beginEv
FNDA:0,_ZNKSt6vectorIS_ImSaImEESaIS1_EE5beginEv
FN:820,_ZNKSt6vectorImSaImEE5beginEv
FNDA:0,_ZNKSt6vectorImSaImEE5beginEv
FN:829,_ZNSt6vectorI4EdgeSaIS0_EE3endEv
FNDA:0,_ZNSt6vectorI4EdgeSaIS0_EE3endEv
FN:838,_ZNKSt6vectorImSaImEE3endEv
FNDA:0,_ZNKSt6vectorImSaImEE3endEv
FN:838,_ZNKSt6vectorIS_ImSaImEESaIS1_EE3endEv
FNDA:0,_ZNKSt6vectorIS_ImSaImEESaIS1_EE3endEv
FN:918,_ZNKSt6vectorImSaImEE4sizeEv
FNDA:0,_ZNKSt6vectorImSaImEE4sizeEv
FN:918,_ZNKSt6vectorIS_ImSaImEESaIS1_EE4sizeEv
FNDA:0,_ZNKSt6vectorIS_ImSaImEESaIS1_EE4sizeEv
FN:918,_ZNKSt6vectorI4EdgeSaIS0_EE4sizeEv
FNDA:0,_ZNKSt6vectorI4EdgeSaIS0_EE4sizeEv
FN:923,_ZNKSt6vectorI4EdgeSaIS0_EE8max_sizeEv
FNDA:0,_ZNKSt6vectorI4EdgeSaIS0_EE8max_sizeEv
FN:1187,_ZNSt6vectorI4EdgeSaIS0_EE9push_backERKS0_
FNDA:0,_ZNSt6vectorI4EdgeSaIS0_EE9push_backERKS0_
FN:1756,_ZNKSt6vectorI4EdgeSaIS0_EE12_M_check_lenEmPKc
FNDA:0,_ZNKSt6vectorI4EdgeSaIS0_EE12_M_check_lenEmPKc
FN:1776,_ZNSt6vectorI4EdgeSaIS0_EE11_S_max_sizeERKS1_
FNDA:0,_ZNSt6vectorI4EdgeSaIS0_EE11_S_max_sizeERKS1_
FN:1815,_ZNSt6vectorIS_ImSaImEESaIS1_EE14_M_move_assignEOS3_St17integral_constantIbLb1EE
FNDA:0,_ZNSt6vectorIS_ImSaImEESaIS1_EE14_M_move_assignEOS3_St17integral_constantIbLb1EE
DA:97,0
DA:98,0
DA:99,0
DA:97,0
DA:98,0
DA:99,0
DA:97,0
DA:98,0
DA:99,0
DA:109,0
DA:111,0
DA:112,0
DA:113,0
DA:114,0
DA:117,0
DA:121,0
DA:122,0
DA:123,0
DA:124,0
DA:125,0
DA:131,0
DA:133,0
DA:134,0
DA:131,0
DA:133,0
DA:134,0
DA:136,0
DA:137,0
DA:138,0
DA:136,0
DA:137,0
DA:138,0
DA:276,0
DA:277,0
DA:276,0
DA:277,0
DA:276,0
DA:277,0
DA:280,0
DA:281,0
DA:280,0
DA:281,0
DA:280,0
DA:281,0
DA:284,0
DA:285,0
DA:288,0
DA:288,0
DA:293,0
DA:294,0
DA:303,0
DA:304,0
DA:305,0
DA:303,0
DA:304,0
DA:305,0
DA:333,0
DA:335,0
DA:336,0
DA:337,0
DA:333,0
DA:335,0
DA:336,0
DA:337,0
DA:333,0
DA:335,0
DA:336,0
DA:337,0
DA:343,0
DA:346,0
DA:343,0
DA:346,0
DA:343,0
DA:346,0
DA:350,0
DA:353,0
DA:354,0
DA:355,0
DA:350,0
DA:353,0
DA:354,0
DA:355,0
DA:350,0
DA:353,0
DA:354,0
DA:355,0
DA:359,0
DA:361,0
DA:362,0
DA:363,0
DA:364,0
DA:359,0
DA:361,0
DA:362,0
DA:363,0
DA:364,0
DA:487,0
DA:487,0
DA:497,0
DA:498,0
DA:553,0
DA:555,0
DA:557,0
DA:558,0
DA:560,0
DA:561,0
DA:553,0
DA:555,0
DA:557,0
DA:558,0
DA:560,0
DA:561,0
DA:678,0
DA:680,0
DA:681,0
DA:683,0
DA:678,0
DA:680,0
DA:681,0
DA:683,0
DA:678,0
DA:680,0
DA:681,0
DA:683,0
DA:709,0
DA:711,0
DA:714,0
DA:715,0
DA:811,0
DA:812,0
DA:820,0
DA:821,0
DA:820,0
DA:821,0
DA:829,0
DA:830,0
DA:838,0
DA:839,0
DA:838,0
DA:839,0
DA:918,0
DA:919,0
DA:918,0
DA:919,0
DA:918,0
DA:919,0
DA:923,0
DA:924,0
DA:1187,0
DA:1189,0
DA:1192,0
DA:1194,0
DA:1198,0
DA:1199,0
DA:1756,0
DA:1758,0
DA:1759,0
DA:1761,0
DA:1762,0
DA:1776,0
DA:1781,0
DA:1783,0
DA:1784,0
DA:1815,0
DA:1817,0
DA:1818,0
DA:1819,0
DA:1820,0
DA:1821,0
end_of_record
SF:/home/imri/OS-FinalProject/MST/Kruskal.cpp
FN:4,_ZN7KruskalclEP5Graph
FNDA:1,_ZN7KruskalclEP5Graph
DA:4,1
DA:5,1
DA:7,1
DA:8,4
DA:10,3
DA:12,1
DA:14,1
DA:15,4
DA:17,3
DA:19,2
DA:20,2
DA:22,3
DA:23,1
DA:24,1
DA:26,1
DA:27,1
DA:28,1
DA:29,1
end_of_record
SF:/usr/include/c++/11/bits/alloc_traits.h
FN:463,_ZNSt16allocator_traitsISaImEE8allocateERS0_m
FNDA:0,_ZNSt16allocator_traitsISaImEE8allocateERS0_m
FN:463,_ZNSt16allocator_traitsISaISt6vectorImSaImEEEE8allocateERS3_m
FNDA:0,_ZNSt16allocator_traitsISaISt6vectorImSaImEEEE8allocateERS3_m
FN:463,_ZNSt16allocator_traitsISaI4EdgeEE8allocateERS1_m
FNDA:0,_ZNSt16allocator_traitsISaI4EdgeEE8allocateERS1_m
FN:495,_ZNSt16allocator_traitsISaISt13_Rb_tree_nodeISt4pairIKmmEEEE10deallocateERS5_PS4_m
FNDA:0,_ZNSt16allocator_traitsISaISt13_Rb_tree_nodeISt4pairIKmmEEEE10deallocateERS5_PS4_m
FN:495,_ZNSt16allocator_traitsISaImEE10deallocateERS0_Pmm
FNDA:0,_ZNSt16allocator_traitsISaImEE10deallocateERS0_Pmm
FN:495,_ZNSt16allocator_traitsISaI4EdgeEE10deallocateERS1_PS0_m
FNDA:0,_ZNSt16allocator_traitsISaI4EdgeEE10deallocateERS1_PS0_m
FN:495,_ZNSt16allocator_traitsISaISt6vectorImSaImEEEE10deallocateERS3_PS2_m
FNDA:0,_ZNSt16allocator_traitsISaISt6vectorImSaImEEEE10deallocateERS3_PS2_m
FN:511,_ZNSt16allocator_traitsISaI4EdgeEE9constructIS0_JRKS0_EEEvRS1_PT_DpOT0_
FNDA:0,_ZNSt16allocator_traitsISaI4EdgeEE9constructIS0_JRKS0_EEEvRS1_PT_DpOT0_
FN:531,_ZNSt16allocator_traitsISaISt13_Rb_tree_nodeISt4pairIKmmEEEE7destroyIS3_EEvRS5_PT_
FNDA:0,_ZNSt16allocator_traitsISaISt13_Rb_tree_nodeISt4pairIKmmEEEE7destroyIS3_EEvRS5_PT_
FN:531,_ZNSt16allocator_traitsISaI4EdgeEE7destroyIS0_EEvRS1_PT_
FNDA:0,_ZNSt16allocator_traitsISaI4EdgeEE7destroyIS0_EEvRS1_PT_
FN:547,_ZNSt16allocator_traitsISaI4EdgeEE8max_sizeERKS1_
FNDA:0,_ZNSt16allocator_traitsISaI4EdgeEE8max_sizeERKS1_
FN:562,_ZNSt16allocator_traitsISaImEE37select_on_container_copy_constructionERKS0_
FNDA:0,_ZNSt16allocator_traitsISaImEE37select_on_container_copy_constructionERKS0_
FN:562,_ZNSt16allocator_traitsISaISt6vectorImSaImEEEE37select_on_container_copy_constructionERKS3_
FNDA:0,_ZNSt16allocator_traitsISaISt6vectorImSaImEEEE37select_on_container_copy_constructionERKS3_
FN:710,_ZSt15__alloc_on_moveISaISt6vectorImSaImEEEEvRT_S5_
FNDA:0,_ZSt15__alloc_on_moveISaISt6vectorImSaImEEEEvRT_S5_
FN:845,_ZSt8_DestroyIPSt6vectorImSaImEES2_EvT_S4_RSaIT0_E
FNDA:0,_ZSt8_DestroyIPSt6vectorImSaImEES2_EvT_S4_RSaIT0_E
FN:845,_ZSt8_DestroyIPmmEvT_S1_RSaIT0_E
FNDA:0,_ZSt8_DestroyIPmmEvT_S1_RSaIT0_E
FN:845,_ZSt8_DestroyIP4EdgeS0_EvT_S2_RSaIT0_E
FNDA:0,_ZSt8_DestroyIP4EdgeS0_EvT_S2_RSaIT0_E
DA:463,0
DA:464,0
DA:463,0
DA:464,0
DA:463,0
DA:464,0
DA:495,0
DA:496,0
DA:495,0
DA:496,0
DA:495,0
DA:496,0
DA:495,0
DA:496,0
DA:511,0
DA:516,0
DA:520,0
DA:531,0
DA:535,0
DA:539,0
DA:531,0
DA:535,0
DA:539,0
DA:547,0
DA:550,0
DA:562,0
DA:563,0
DA:562,0
DA:563,0
DA:710,0
DA:716,0
DA:720,0
DA:845,0
DA:848,0
DA:849,0
DA:845,0
DA:848,0
DA:849,0
DA:845,0
DA:848,0
DA:849,0
end_of_record
SF:/usr/include/c++/11/bits/stl_pair.h
end_of_record
SF:/usr/include/c++/11/bits/stl_map.h
FN:302,_ZNSt3mapImmSt4lessImESaISt4pairIKmmEEED2Ev
FNDA:0,_ZNSt3mapImmSt4lessImESaISt4pairIKmmEEED2Ev
DA:302,0
end_of_record
SF:/usr/include/c++/11/bits/stl_uninitialized.h
FN:85,_ZNSt20__uninitialized_copyILb0EE13__uninit_copyIPK4EdgePS2_EET0_T_S7_S6_
FNDA:0,_ZNSt20__uninitialized_copyILb0EE13__uninit_copyIPK4EdgePS2_EET0_T_S7_S6_
FN:85,_ZNSt20__uninitialized_copyILb0EE13__uninit_copyIN9__gnu_cxx17__normal_iteratorIPKSt6vectorImSaImEES4_IS6_SaIS6_EEEEPS6_EET0_T_SE_SD_
FNDA:0,_ZNSt20__uninitialized_copyILb0EE13__uninit_copyIN9__gnu_cxx17__normal_iteratorIPKSt6vectorImSaImEES4_IS6_SaIS6_EEEEPS6_EET0_T_SE_SD_
FN:108,_ZNSt20__uninitialized_copyILb1EE13__uninit_copyIN9__gnu_cxx17__normal_iteratorIPKmSt6vectorImSaImEEEEPmEET0_T_SC_SB_
FNDA:0,_ZNSt20__uninitialized_copyILb1EE13__uninit_copyIN9__gnu_cxx17__normal_iteratorIPKmSt6vectorImSaImEEEEPmEET0_T_SC_SB_
FN:126,_ZSt18uninitialized_copyIN9__gnu_cxx17__normal_iteratorIPKmSt6vectorImSaImEEEEPmET0_T_SA_S9_
FNDA:0,_ZSt18uninitialized_copyIN9__gnu_cxx17__normal_iteratorIPKmSt6vectorImSaImEEEEPmET0_T_SA_S9_
FN:126,_ZSt18uninitialized_copyIPK4EdgePS0_ET0_T_S5_S4_
FNDA:0,_ZSt18uninitialized_copyIPK4EdgePS0_ET0_T_S5_S4_
FN:126,_ZSt18uninitialized_copyIN9__gnu_cxx17__normal_iteratorIPKSt6vectorImSaImEES2_IS4_SaIS4_EEEEPS4_ET0_T_SC_SB_
FNDA:0,_ZSt18uninitialized_copyIN9__gnu_cxx17__normal_iteratorIPKSt6vectorImSaImEES2_IS4_SaIS4_EEEEPS4_ET0_T_SC_SB_
FN:331,_ZSt22__uninitialized_copy_aIN9__gnu_cxx17__normal_iteratorIPKmSt6vectorImSaImEEEEPmmET0_T_SA_S9_RSaIT1_E
FNDA:0,_ZSt22__uninitialized_copy_aIN9__gnu_cxx17__normal_iteratorIPKmSt6vectorImSaImEEEEPmmET0_T_SA_S9_RSaIT1_E
FN:331,_ZSt22__uninitialized_copy_aIPK4EdgePS0_S0_ET0_T_S5_S4_RSaIT1_E
FNDA:0,_ZSt22__uninitialized_copy_aIPK4EdgePS0_S0_ET0_T_S5_S4_RSaIT1_E
FN:331,_ZSt22__uninitialized_copy_aIN9__gnu_cxx17__normal_iteratorIPKSt6vectorImSaImEES2_IS4_SaIS4_EEEEPS4_S4_ET0_T_SC_SB_RSaIT1_E
FNDA:0,_ZSt22__uninitialized_copy_aIN9__gnu_cxx17__normal_iteratorIPKSt6vectorImSaImEES2_IS4_SaIS4_EEEEPS4_S4_ET0_T_SC_SB_RSaIT1_E
FN:349,_ZSt34__uninitialized_move_if_noexcept_aIP4EdgeS1_SaIS0_EET0_T_S4_S3_RT1_
FNDA:0,_ZSt34__uninitialized_move_if_noexcept_aIP4EdgeS1_SaIS0_EET0_T_S4_S3_RT1_
DA:85,0
DA:88,0
DA:91,0
DA:92,0
DA:93,0
DA:95,0
DA:97,0
DA:98,0
DA:85,0
DA:88,0
DA:91,0
DA:92,0
DA:93,0
DA:95,0
DA:97,0
DA:98,0
DA:108,0
DA:110,0
DA:126,0
DA:145,0
DA:151,0
DA:126,0
DA:145,0
DA:151,0
DA:126,0
DA:145,0
DA:151,0
DA:331,0
DA:333,0
DA:331,0
DA:333,0
DA:331,0
DA:333,0
DA:349,0
DA:355,0
DA:356,0
end_of_record
SF:/usr/include/c++/11/bits/stl_iterator.h
FN:1027,_ZN9__gnu_cxx17__normal_iteratorIPKmSt6vectorImSaImEEEC2ERKS2_
FNDA:0,_ZN9__gnu_cxx17__normal_iteratorIPKmSt6vectorImSaImEEEC2ERKS2_
FN:1027,_ZN9__gnu_cxx17__normal_iteratorIP4EdgeSt6vectorIS1_SaIS1_EEEC2ERKS2_
FNDA:0,_ZN9__gnu_cxx17__normal_iteratorIP4EdgeSt6vectorIS1_SaIS1_EEEC2ERKS2_
FN:1027,_ZN9__gnu_cxx17__normal_iteratorIPKSt6vectorImSaImEES1_IS3_SaIS3_EEEC2ERKS5_
FNDA:0,_ZN9__gnu_cxx17__normal_iteratorIPKSt6vectorImSaImEES1_IS3_SaIS3_EEEC2ERKS5_
FN:1042,_ZNK9__gnu_cxx17__normal_iteratorIP4EdgeSt6vectorIS1_SaIS1_EEEdeEv
FNDA:0,_ZNK9__gnu_cxx17__normal_iteratorIP4EdgeSt6vectorIS1_SaIS1_EEEdeEv
FN:1042,_ZNK9__gnu_cxx17__normal_iteratorIPKSt6vectorImSaImEES1_IS3_SaIS3_EEEdeEv
FNDA:0,_ZNK9__gnu_cxx17__normal_iteratorIPKSt6vectorImSaImEES1_IS3_SaIS3_EEEdeEv
FN:1052,_ZN9__gnu_cxx17__normal_iteratorIP4EdgeSt6vectorIS1_SaIS1_EEEppEv
FNDA:0,_ZN9__gnu_cxx17__normal_iteratorIP4EdgeSt6vectorIS1_SaIS1_EEEppEv
FN:1052,_ZN9__gnu_cxx17__normal_iteratorIPKSt6vectorImSaImEES1_IS3_SaIS3_EEEppEv
FNDA:0,_ZN9__gnu_cxx17__normal_iteratorIPKSt6vectorImSaImEES1_IS3_SaIS3_EEEppEv
FN:1066,_ZN9__gnu_cxx17__normal_iteratorIP4EdgeSt6vectorIS1_SaIS1_EEEmmEv
FNDA:0,_ZN9__gnu_cxx17__normal_iteratorIP4EdgeSt6vectorIS1_SaIS1_EEEmmEv
FN:1090,_ZNK9__gnu_cxx17__normal_iteratorIP4EdgeSt6vectorIS1_SaIS1_EEEplEl
FNDA:0,_ZNK9__gnu_cxx17__normal_iteratorIP4EdgeSt6vectorIS1_SaIS1_EEEplEl
FN:1100,_ZNK9__gnu_cxx17__normal_iteratorIP4EdgeSt6vectorIS1_SaIS1_EEEmiEl
FNDA:0,_ZNK9__gnu_cxx17__normal_iteratorIP4EdgeSt6vectorIS1_SaIS1_EEEmiEl
FN:1105,_ZNK9__gnu_cxx17__normal_iteratorIPKmSt6vectorImSaImEEE4baseEv
FNDA:0,_ZNK9__gnu_cxx17__normal_iteratorIPKmSt6vectorImSaImEEE4baseEv
FN:1105,_ZNK9__gnu_cxx17__normal_iteratorIPKSt6vectorImSaImEES1_IS3_SaIS3_EEE4baseEv
FNDA:0,_ZNK9__gnu_cxx17__normal_iteratorIPKSt6vectorImSaImEES1_IS3_SaIS3_EEE4baseEv
FN:1105,_ZNK9__gnu_cxx17__normal_iteratorIP4EdgeSt6vectorIS1_SaIS1_EEE4baseEv
FNDA:0,_ZNK9__gnu_cxx17__normal_iteratorIP4EdgeSt6vectorIS1_SaIS1_EEE4baseEv
FN:1163,_ZN9__gnu_cxxeqIP4EdgeSt6vectorIS1_SaIS1_EEEEbRKNS_17__normal_iteratorIT_T0_EESB_
FNDA:0,_ZN9__gnu_cxxeqIP4EdgeSt6vectorIS1_SaIS1_EEEEbRKNS_17__normal_iteratorIT_T0_EESB_
FN:1179,_ZN9__gnu_cxxneIP4EdgeSt6vectorIS1_SaIS1_EEEEbRKNS_17__normal_iteratorIT_T0_EESB_
FNDA:0,_ZN9__gnu_cxxneIP4EdgeSt6vectorIS1_SaIS1_EEEEbRKNS_17__normal_iteratorIT_T0_EESB_
FN:1179,_ZN9__gnu_cxxneIPKSt6vectorImSaImEES1_IS3_SaIS3_EEEEbRKNS_17__normal_iteratorIT_T0_EESD_
FNDA:0,_ZN9__gnu_cxxneIPKSt6vectorImSaImEES1_IS3_SaIS3_EEEEbRKNS_17__normal_iteratorIT_T0_EESD_
FN:1195,_ZN9__gnu_cxxltIP4EdgeSt6vectorIS1_SaIS1_EEEEbRKNS_17__normal_iteratorIT_T0_EESB_
FNDA:0,_ZN9__gnu_cxxltIP4EdgeSt6vectorIS1_SaIS1_EEEEbRKNS_17__normal_iteratorIT_T0_EESB_
FN:1268,_ZN9__gnu_cxxmiIP4EdgeSt6vectorIS1_SaIS1_EEEENS_17__normal_iteratorIT_T0_E15difference_typeERKS9_SC_
FNDA:0,_ZN9__gnu_cxxmiIP4EdgeSt6vectorIS1_SaIS1_EEEENS_17__normal_iteratorIT_T0_E15difference_typeERKS9_SC_
FN:1291,_ZSt12__niter_baseIP4EdgeSt6vectorIS0_SaIS0_EEET_N9__gnu_cxx17__normal_iteratorIS5_T0_EE
FNDA:0,_ZSt12__niter_baseIP4EdgeSt6vectorIS0_SaIS0_EEET_N9__gnu_cxx17__normal_iteratorIS5_T0_EE
FN:1291,_ZSt12__niter_baseIPKmSt6vectorImSaImEEET_N9__gnu_cxx17__normal_iteratorIS5_T0_EE
FNDA:0,_ZSt12__niter_baseIPKmSt6vectorImSaImEEET_N9__gnu_cxx17__normal_iteratorIS5_T0_EE
FN:1723,_ZSt32__make_move_if_noexcept_iteratorI4EdgePKS0_ET0_PT_
FNDA:0,_ZSt32__make_move_if_noexcept_iteratorI4EdgePKS0_ET0_PT_
DA:1027,0
DA:1028,0
DA:1027,0
DA:1028,0
DA:1027,0
DA:1028,0
DA:1042,0
DA:1043,0
DA:1042,0
DA:1043,0
DA:1052,0
DA:1054,0
DA:1055,0
DA:1052,0
DA:1054,0
DA:1055,0
DA:1066,0
DA:1068,0
DA:1069,0
DA:1090,0
DA:1091,0
DA:1100,0
DA:1101,0
DA:1105,0
DA:1106,0
DA:1105,0
DA:1106,0
DA:1105,0
DA:1106,0
DA:1163,0
DA:1166,0
DA:1179,0
DA:1182,0
DA:1179,0
DA:1182,0
DA:1195,0
DA:1198,0
DA:1268,0
DA:1271,0
DA:1291,0
DA:1293,0
DA:1291,0
DA:1293,0
DA:1723,0
DA:1724,0
end_of_record
SF:/usr/include/c++/11/ext/alloc_traits.h
FN:97,_ZN9__gnu_cxx14__alloc_traitsISaImEmE17_S_select_on_copyERKS1_
FNDA:0,_ZN9__gnu_cxx14__alloc_traitsISaImEmE17_S_select_on_copyERKS1_
FN:97,_ZN9__gnu_cxx14__alloc_traitsISaISt6vectorImSaImEEES3_E17_S_select_on_copyERKS4_
FNDA:0,_ZN9__gnu_cxx14__alloc_traitsISaISt6vectorImSaImEEES3_E17_S_select_on_copyERKS4_
DA:97,0
DA:98,0
DA:97,0
DA:98,0
end_of_record
SF:/usr/include/c++/11/bits/predefined_ops.h
FN:44,_ZNK9__gnu_cxx5__ops15_Iter_less_iterclINS_17__normal_iteratorIP4EdgeSt6vectorIS4_SaIS4_EEEES9_EEbT_T0_
FNDA:2,_ZNK9__gnu_cxx5__ops15_Iter_less_iterclINS_17__normal_iteratorIP4EdgeSt6vectorIS4_SaIS4_EEEES9_EEbT_T0_
FN:50,_ZN9__gnu_cxx5__ops16__iter_less_iterEv
FNDA:1,_ZN9__gnu_cxx5__ops16__iter_less_iterEv
FN:63,_ZN9__gnu_cxx5__ops14_Iter_less_valC2ENS0_15_Iter_less_iterE
FNDA:0,_ZN9__gnu_cxx5__ops14_Iter_less_valC2ENS0_15_Iter_less_iterE
FN:68,_ZNK9__gnu_cxx5__ops14_Iter_less_valclINS_17__normal_iteratorIP4EdgeSt6vectorIS4_SaIS4_EEEES4_EEbT_RT0_
FNDA:0,_ZNK9__gnu_cxx5__ops14_Iter_less_valclINS_17__normal_iteratorIP4EdgeSt6vectorIS4_SaIS4_EEEES4_EEbT_RT0_
FN:97,_ZNK9__gnu_cxx5__ops14_Val_less_iterclI4EdgeNS_17__normal_iteratorIPS3_St6vectorIS3_SaIS3_EEEEEEbRT_T0_
FNDA:0,_ZNK9__gnu_cxx5__ops14_Val_less_iterclI4EdgeNS_17__normal_iteratorIPS3_St6vectorIS3_SaIS3_EEEEEEbRT_T0_
FN:108,_ZN9__gnu_cxx5__ops15__val_comp_iterENS0_15_Iter_less_iterE
FNDA:0,_ZN9__gnu_cxx5__ops15__val_comp_iterENS0_15_Iter_less_iterE
DA:44,2
DA:45,2
DA:50,1
DA:51,1
DA:63,0
DA:68,0
DA:69,0
DA:97,0
DA:98,0
DA:108,0
DA:109,0
end_of_record
SF:/home/imri/OS-FinalProject/DataStruct/UnionFind.hpp
end_of_record
SF:/home/imri/OS-FinalProject/MST/Kruskal.hpp
end_of_record
SF:/usr/include/c++/11/ext/aligned_buffer.h
FN:64,_ZN9__gnu_cxx16__aligned_membufISt4pairIKmmEE7_M_addrEv
FNDA:0,_ZN9__gnu_cxx16__aligned_membufISt4pairIKmmEE7_M_addrEv
FN:72,_ZN9__gnu_cxx16__aligned_membufISt4pairIKmmEE6_M_ptrEv
FNDA:0,_ZN9__gnu_cxx16__aligned_membufISt4pairIKmmEE6_M_ptrEv
FN:102,_ZN9__gnu_cxx16__aligned_bufferI4EdgeE7_M_addrEv
FNDA:0,_ZN9__gnu_cxx16__aligned_bufferI4EdgeE7_M_addrEv
FN:114,_ZN9__gnu_cxx16__aligned_bufferI4EdgeE6_M_ptrEv
FNDA:0,_ZN9__gnu_cxx16__aligned_bufferI4EdgeE6_M_ptrEv
DA:64,0
DA:65,0
DA:72,0
DA:73,0
DA:102,0
DA:104,0
DA:114,0
DA:115,0
end_of_record
SF:/usr/include/c++/11/iostream
end_of_record
SF:/usr/include/c++/11/bits/move.h
FN:49,_ZSt11__addressofISt6vectorImSaImEEEPT_RS3_
FNDA:0,_ZSt11__addressofISt6vectorImSaImEEEPT_RS3_
FN:49,_ZSt11__addressofI4EdgeEPT_RS1_
FNDA:0,_ZSt11__addressofI4EdgeEPT_RS1_
FN:77,_ZSt7forwardIRKSt6vectorImSaImEEEOT_RNSt16remove_referenceIS5_E4typeE
FNDA:0,_ZSt7forwardIRKSt6vectorImSaImEEEOT_RNSt16remove_referenceIS5_E4typeE
FN:77,_ZSt7forwardIRK4EdgeEOT_RNSt16remove_referenceIS3_E4typeE
FNDA:0,_ZSt7forwardIRK4EdgeEOT_RNSt16remove_referenceIS3_E4typeE
FN:77,_ZSt7forwardISt6vectorIS0_ImSaImEESaIS2_EEEOT_RNSt16remove_referenceIS5_E4typeE
FNDA:0,_ZSt7forwardISt6vectorIS0_ImSaImEESaIS2_EEEOT_RNSt16remove_referenceIS5_E4typeE
FN:104,_ZSt4moveIRN9__gnu_cxx5__ops15_Iter_less_iterEEONSt16remove_referenceIT_E4typeEOS5_
FNDA:0,_ZSt4moveIRN9__gnu_cxx5__ops15_Iter_less_iterEEONSt16remove_referenceIT_E4typeEOS5_
FN:104,_ZSt4moveIRSaISt6vectorImSaImEEEEONSt16remove_referenceIT_E4typeEOS6_
FNDA:0,_ZSt4moveIRSaISt6vectorImSaImEEEEONSt16remove_referenceIT_E4typeEOS6_
FN:104,_ZSt4moveIR4EdgeEONSt16remove_referenceIT_E4typeEOS3_
FNDA:0,_ZSt4moveIR4EdgeEONSt16remove_referenceIT_E4typeEOS3_
FN:104,_ZSt4moveIRSt6vectorIS0_ImSaImEESaIS2_EEEONSt16remove_referenceIT_E4typeEOS7_
FNDA:0,_ZSt4moveIRSt6vectorIS0_ImSaImEESaIS2_EEEONSt16remove_referenceIT_E4typeEOS7_
FN:196,_ZSt4swapI4EdgeENSt9enable_ifIXsrSt6__and_IJSt6__not_ISt15__is_tuple_likeIT_EESt21is_move_constructibleIS5_ESt18is_move_assignableIS5_EEE5valueEvE4typeERS5_SF_
FNDA:0,_ZSt4swapI4EdgeENSt9enable_ifIXsrSt6__and_IJSt6__not_ISt15__is_tuple_likeIT_EESt21is_move_constructibleIS5_ESt18is_move_assignableIS5_EEE5valueEvE4typeERS5_SF_
DA:49,0
DA:50,0
DA:49,0
DA:50,0
DA:77,0
DA:78,0
DA:77,0
DA:78,0
DA:77,0
DA:78,0
DA:104,0
DA:105,0
DA:104,0
DA:105,0
DA:104,0
DA:105,0
DA:104,0
DA:105,0
DA:196,0
DA:204,0
DA:205,0
DA:206,0
DA:207,0
end_of_record
SF:/home/imri/OS-FinalProject/GraphObj/vertex.hpp
end_of_record
SF:/home/imri/OS-FinalProject/GraphObj/edge.hpp
end_of_record
TN:
SF:/usr/include/c++/11/bits/stl_iterator_base_types.h
FN:238,_ZSt19__iterator_categoryIPiENSt15iterator_traitsIT_E17iterator_categoryERKS2_
FNDA:3,_ZSt19__iterator_categoryIPiENSt15iterator_traitsIT_E17iterator_categoryERKS2_
DA:238,3
DA:239,3
end_of_record
SF:/usr/include/c++/11/ext/aligned_buffer.h
FN:64,_ZN9__gnu_cxx16__aligned_membufISt4pairIKS1_ImiEmEE7_M_addrEv
FNDA:29,_ZN9__gnu_cxx16__aligned_membufISt4pairIKS1_ImiEmEE7_M_addrEv
FN:64,_ZN9__gnu_cxx16__aligned_membufISt4pairIKmmEE7_M_addrEv
FNDA:0,_ZN9__gnu_cxx16__aligned_membufISt4pairIKmmEE7_M_addrEv
FN:64,_ZN9__gnu_cxx16__aligned_membufISt4pairIKi6VertexEE7_M_addrEv
FNDA:0,_ZN9__gnu_cxx16__aligned_membufISt4pairIKi6VertexEE7_M_addrEv
FN:68,_ZNK9__gnu_cxx16__aligned_membufISt4pairIKS1_ImiEmEE7_M_addrEv
FNDA:59,_ZNK9__gnu_cxx16__aligned_membufISt4pairIKS1_ImiEmEE7_M_addrEv
FN:72,_ZN9__gnu_cxx16__aligned_membufISt4pairIKS1_ImiEmEE6_M_ptrEv
FNDA:29,_ZN9__gnu_cxx16__aligned_membufISt4pairIKS1_ImiEmEE6_M_ptrEv
FN:72,_ZN9__gnu_cxx16__aligned_membufISt4pairIKmmEE6_M_ptrEv
FNDA:0,_ZN9__gnu_cxx16__aligned_membufISt4pairIKmmEE6_M_ptrEv
FN:72,_ZN9__gnu_cxx16__aligned_membufISt4pairIKi6VertexEE6_M_ptrEv
FNDA:0,_ZN9__gnu_cxx16__aligned_membufISt4pairIKi6VertexEE6_M_ptrEv
FN:76,_ZNK9__gnu_cxx16__aligned_membufISt4pairIKS1_ImiEmEE6_M_ptrEv
FNDA:59,_ZNK9__gnu_cxx16__aligned_membufISt4pairIKS1_ImiEmEE6_M_ptrEv
DA:64,29
DA:65,29
DA:64,0
DA:65,0
DA:64,0
DA:65,0
DA:68,59
DA:69,59
DA:72,29
DA:73,29
DA:72,0
DA:73,0
DA:72,0
DA:73,0
DA:76,59
DA:77,59
end_of_record
SF:/usr/include/c++/11/iostream
end_of_record
SF:/usr/include/c++/11/bits/move.h
FN:49,_ZSt11__addressofISt4pairImiEEPT_RS2_
FNDA:9,_ZSt11__addressofISt4pairImiEEPT_RS2_
FN:49,_ZSt11__addressofImEPT_RS0_
FNDA:0,_ZSt11__addressofImEPT_RS0_
FN:49,_ZSt11__addressofI4EdgeEPT_RS1_
FNDA:0,_ZSt11__addressofI4EdgeEPT_RS1_
FN:49,_ZSt11__addressofISt6vectorImSaImEEEPT_RS3_
FNDA:0,_ZSt11__addressofISt6vectorImSaImEEEPT_RS3_
FN:77,_ZSt7forwardIRKSt4pairImiEEOT_RNSt16remove_referenceIS4_E4typeE
FNDA:15,_ZSt7forwardIRKSt4pairImiEEOT_RNSt16remove_referenceIS4_E4typeE
FN:77,_ZSt7forwardIRKSt21piecewise_construct_tEOT_RNSt16remove_referenceIS3_E4typeE
FNDA:0,_ZSt7forwardIRKSt21piecewise_construct_tEOT_RNSt16remove_referenceIS3_E4typeE
FN:77,_ZSt7forwardISt5tupleIJRKSt4pairImiEEEEOT_RNSt16remove_referenceIS6_E4typeE
FNDA:30,_ZSt7forwardISt5tupleIJRKSt4pairImiEEEEOT_RNSt16remove_referenceIS6_E4typeE
FN:77,_ZSt7forwardISt5tupleIJEEEOT_RNSt16remove_referenceIS2_E4typeE
FNDA:0,_ZSt7forwardISt5tupleIJEEEOT_RNSt16remove_referenceIS2_E4typeE
FN:77,_ZSt7forwardISt6vectorIS0_ImSaImEESaIS2_EEEOT_RNSt16remove_referenceIS5_E4typeE
FNDA:0,_ZSt7forwardISt6vectorIS0_ImSaImEESaIS2_EEEOT_RNSt16remove_referenceIS5_E4typeE
FN:77,_ZSt7forwardISt4pairImiEEOT_RNSt16remove_referenceIS2_E4typeE
FNDA:6,_ZSt7forwardISt4pairImiEEOT_RNSt16remove_referenceIS2_E4typeE
FN:77,_ZSt7forwardIRmEOT_RNSt16remove_referenceIS1_E4typeE
FNDA:6,_ZSt7forwardIRmEOT_RNSt16remove_referenceIS1_E4typeE
FN:77,_ZSt7forwardIRiEOT_RNSt16remove_referenceIS1_E4typeE
FNDA:0,_ZSt7forwardIRiEOT_RNSt16remove_referenceIS1_E4typeE
FN:77,_ZSt7forwardIRK4EdgeEOT_RNSt16remove_referenceIS3_E4typeE
FNDA:0,_ZSt7forwardIRK4EdgeEOT_RNSt16remove_referenceIS3_E4typeE
FN:77,_ZSt7forwardIRKSt4pairIKmmEEOT_RNSt16remove_referenceIS5_E4typeE
FNDA:0,_ZSt7forwardIRKSt4pairIKmmEEOT_RNSt16remove_referenceIS5_E4typeE
FN:77,_ZSt7forwardIRPSt18_Rb_tree_node_baseEOT_RNSt16remove_referenceIS3_E4typeE
FNDA:0,_ZSt7forwardIRPSt18_Rb_tree_node_baseEOT_RNSt16remove_referenceIS3_E4typeE
FN:77,_ZSt7forwardISt17_Rb_tree_iteratorISt4pairIKS1_ImiEmEEEOT_RNSt16remove_referenceIS6_E4typeE
FNDA:6,_ZSt7forwardISt17_Rb_tree_iteratorISt4pairIKS1_ImiEmEEEOT_RNSt16remove_referenceIS6_E4typeE
FN:77,_ZSt7forwardIRKSt6vectorImSaImEEEOT_RNSt16remove_referenceIS5_E4typeE
FNDA:0,_ZSt7forwardIRKSt6vectorImSaImEEEOT_RNSt16remove_referenceIS5_E4typeE
FN:77,_ZSt7forwardIRPSt13_Rb_tree_nodeISt4pairIKS1_ImiEmEEEOT_RNSt16remove_referenceIS8_E4typeE
FNDA:1,_ZSt7forwardIRPSt13_Rb_tree_nodeISt4pairIKS1_ImiEmEEEOT_RNSt16remove_referenceIS8_E4typeE
FN:77,_ZSt7forwardIRKiEOT_RNSt16remove_referenceIS2_E4typeE
FNDA:0,_ZSt7forwardIRKiEOT_RNSt16remove_referenceIS2_E4typeE
FN:104,_ZSt4moveIRiEONSt16remove_referenceIT_E4typeEOS2_
FNDA:0,_ZSt4moveIRiEONSt16remove_referenceIT_E4typeEOS2_
FN:104,_ZSt4moveIRSt6vectorIS0_ImSaImEESaIS2_EEEONSt16remove_referenceIT_E4typeEOS7_
FNDA:0,_ZSt4moveIRSt6vectorIS0_ImSaImEESaIS2_EEEONSt16remove_referenceIT_E4typeEOS7_
FN:104,_ZSt4moveIRmEONSt16remove_referenceIT_E4typeEOS2_
FNDA:0,_ZSt4moveIRmEONSt16remove_referenceIT_E4typeEOS2_
FN:104,_ZSt4moveIRSaISt6vectorImSaImEEEEONSt16remove_referenceIT_E4typeEOS6_
FNDA:0,_ZSt4moveIRSaISt6vectorImSaImEEEEONSt16remove_referenceIT_E4typeEOS6_
FN:104,_ZSt4moveIRSt4pairImiEEONSt16remove_referenceIT_E4typeEOS4_
FNDA:3,_ZSt4moveIRSt4pairImiEEONSt16remove_referenceIT_E4typeEOS4_
FN:196,_ZSt4swapImENSt9enable_ifIXsrSt6__and_IJSt6__not_ISt15__is_tuple_likeIT_EESt21is_move_constructibleIS4_ESt18is_move_assignableIS4_EEE5valueEvE4typeERS4_SE_
FNDA:4,_ZSt4swapImENSt9enable_ifIXsrSt6__and_IJSt6__not_ISt15__is_tuple_likeIT_EESt21is_move_constructibleIS4_ESt18is_move_assignableIS4_EEE5valueEvE4typeERS4_SE_
FN:196,_ZSt4swapIiENSt9enable_ifIXsrSt6__and_IJSt6__not_ISt15__is_tuple_likeIT_EESt21is_move_constructibleIS4_ESt18is_move_assignableIS4_EEE5valueEvE4typeERS4_SE_
FNDA:4,_ZSt4swapIiENSt9enable_ifIXsrSt6__and_IJSt6__not_ISt15__is_tuple_likeIT_EESt21is_move_constructibleIS4_ESt18is_move_assignableIS4_EEE5valueEvE4typeERS4_SE_
DA:49,9
DA:50,9
DA:49,0
DA:50,0
DA:49,0
DA:50,0
DA:49,0
DA:50,0
DA:77,6
DA:78,6
DA:77,1
DA:78,1
DA:77,0
DA:78,0
DA:77,6
DA:78,6
DA:77,0
DA:78,0
DA:77,0
DA:78,0
DA:77,0
DA:78,0
DA:77,0
DA:78,0
DA:77,30
DA:78,30
DA:77,0
DA:78,0
DA:77,15
DA:78,15
DA:77,0
DA:78,0
DA:77,6
DA:78,6
DA:77,0
DA:78,0
DA:77,0
DA:78,0
DA:104,3
DA:105,3
DA:104,0
DA:105,0
DA:104,0
DA:105,0
DA:104,0
DA:105,0
DA:104,0
DA:105,0
DA:196,4
DA:204,4
DA:205,4
DA:206,4
DA:207,4
DA:196,4
DA:204,4
DA:205,4
DA:206,4
DA:207,4
end_of_record
SF:/home/imri/OS-FinalProject/GraphObj/vertex.hpp
end_of_record
SF:/usr/include/c++/11/bits/stl_function.h
FN:399,_ZNKSt4lessISt4pairImiEEclERKS1_S4_
FNDA:54,_ZNKSt4lessISt4pairImiEEclERKS1_S4_
FN:1174,_ZNKSt10_Select1stISt4pairIKS0_ImiEmEEclERKS3_
FNDA:56,_ZNKSt10_Select1stISt4pairIKS0_ImiEmEEclERKS3_
DA:399,54
DA:400,54
DA:1174,56
DA:1175,56
end_of_record
SF:/home/imri/OS-FinalProject/GraphObj/edge.hpp
end_of_record
SF:/home/imri/OS-FinalProject/DataStruct/BinaryHeap.hpp
FN:9,_ZN10BinaryHeapISt4pairImiE13CompareVertexEC2Ev
FNDA:1,_ZN10BinaryHeapISt4pairImiE13CompareVertexEC2Ev
FN:11,_ZN10BinaryHeapISt4pairImiE13CompareVertexE4pushERKS1_
FNDA:3,_ZN10BinaryHeapISt4pairImiE13CompareVertexE4pushERKS1_
FN:17,_ZN10BinaryHeapISt4pairImiE13CompareVertexE3popEv
FNDA:3,_ZN10BinaryHeapISt4pairImiE13CompareVertexE3popEv
FN:30,_ZNK10BinaryHeapISt4pairImiE13CompareVertexE3topEv
FNDA:3,_ZNK10BinaryHeapISt4pairImiE13CompareVertexE3topEv
FN:37,_ZNK10BinaryHeapISt4pairImiE13CompareVertexE5emptyEv
FNDA:4,_ZNK10BinaryHeapISt4pairImiE13CompareVertexE5emptyEv
FN:45,_ZNK10BinaryHeapISt4pairImiE13CompareVertexE8getIndexERKS1_
FNDA:3,_ZNK10BinaryHeapISt4pairImiE13CompareVertexE8getIndexERKS1_
FN:53,_ZN10BinaryHeapISt4pairImiE13CompareVertexE11decreaseKeyEmRKS1_
FNDA:3,_ZN10BinaryHeapISt4pairImiE13CompareVertexE11decreaseKeyEmRKS1_
FN:70,_ZN10BinaryHeapISt4pairImiE13CompareVertexE9heapifyUpEm
FNDA:6,_ZN10BinaryHeapISt4pairImiE13CompareVertexE9heapifyUpEm
FN:83,_ZN10BinaryHeapISt4pairImiE13CompareVertexE11heapifyDownEm
FNDA:2,_ZN10BinaryHeapISt4pairImiE13CompareVertexE11heapifyDownEm
DA:9,1
DA:11,3
DA:12,3
DA:13,3
DA:14,3
DA:15,3
DA:17,3
DA:18,3
DA:19,0
DA:21,3
DA:22,3
DA:23,3
DA:24,3
DA:25,2
DA:26,2
DA:28,3
DA:30,3
DA:31,3
DA:32,0
DA:34,3
DA:37,4
DA:38,4
DA:45,3
DA:46,3
DA:47,3
DA:48,0
DA:50,3
DA:53,3
DA:54,3
DA:55,0
DA:57,3
DA:58,0
DA:60,3
DA:61,3
DA:62,3
DA:63,3
DA:70,6
DA:71,7
DA:72,4
DA:73,4
DA:74,3
DA:76,1
DA:77,1
DA:78,1
DA:79,1
DA:81,6
DA:83,2
DA:86,2
DA:87,2
DA:88,2
DA:90,2
DA:91,0
DA:93,2
DA:94,0
DA:96,2
DA:97,2
DA:99,0
DA:100,0
DA:101,0
DA:102,0
DA:104,2
end_of_record
SF:/usr/include/c++/11/bits/vector.tcc
FN:426,_ZNSt6vectorISt4pairImiESaIS1_EE17_M_realloc_insertIJRKS1_EEEvN9__gnu_cxx17__normal_iteratorIPS1_S3_EEDpOT_
FNDA:3,_ZNSt6vectorISt4pairImiESaIS1_EE17_M_realloc_insertIJRKS1_EEEvN9__gnu_cxx17__normal_iteratorIPS1_S3_EEDpOT_
DA:426,3
DA:436,3
DA:437,3
DA:438,3
DA:439,3
DA:440,3
DA:441,3
DA:449,3
DA:450,3
DA:456,3
DA:461,3
DA:462,3
DA:464,3
DA:466,3
DA:467,3
DA:500,3
DA:501,3
DA:502,3
DA:503,3
DA:504,3
DA:505,3
end_of_record
SF:/usr/include/c++/11/bits/stl_algobase.h
FN:230,_ZSt3minImERKT_S2_S2_
FNDA:0,_ZSt3minImERKT_S2_S2_
FN:254,_ZSt3maxImERKT_S2_S2_
FNDA:0,_ZSt3maxImERKT_S2_S2_
FN:313,_ZSt12__niter_baseIPmET_S1_
FNDA:0,_ZSt12__niter_baseIPmET_S1_
FN:313,_ZSt12__niter_baseIPSt4pairImiEET_S3_
FNDA:18,_ZSt12__niter_baseIPSt4pairImiEET_S3_
FN:335,_ZSt12__niter_wrapIPmET_RKS1_S1_
FNDA:0,_ZSt12__niter_wrapIPmET_RKS1_S1_
FN:420,_ZNSt11__copy_moveILb0ELb1ESt26random_access_iterator_tagE8__copy_mImEEPT_PKS3_S6_S4_
FNDA:0,_ZNSt11__copy_moveILb0ELb1ESt26random_access_iterator_tagE8__copy_mImEEPT_PKS3_S6_S4_
FN:486,_ZSt14__copy_move_a2ILb0EPKmPmET1_T0_S4_S3_
FNDA:0,_ZSt14__copy_move_a2ILb0EPKmPmET1_T0_S4_S3_
FN:521,_ZSt14__copy_move_a1ILb0EPKmPmET1_T0_S4_S3_
FNDA:0,_ZSt14__copy_move_a1ILb0EPKmPmET1_T0_S4_S3_
FN:527,_ZSt13__copy_move_aILb0EN9__gnu_cxx17__normal_iteratorIPKmSt6vectorImSaImEEEEPmET1_T0_SA_S9_
FNDA:0,_ZSt13__copy_move_aILb0EN9__gnu_cxx17__normal_iteratorIPKmSt6vectorImSaImEEEEPmET1_T0_SA_S9_
FN:611,_ZSt4copyIN9__gnu_cxx17__normal_iteratorIPKmSt6vectorImSaImEEEEPmET0_T_SA_S9_
FNDA:0,_ZSt4copyIN9__gnu_cxx17__normal_iteratorIPKmSt6vectorImSaImEEEEPmET0_T_SA_S9_
FN:919,_ZSt9__fill_a1IPiiEN9__gnu_cxx11__enable_ifIXsrSt11__is_scalarIT0_E7__valueEvE6__typeET_S8_RKS4_
FNDA:3,_ZSt9__fill_a1IPiiEN9__gnu_cxx11__enable_ifIXsrSt11__is_scalarIT0_E7__valueEvE6__typeET_S8_RKS4_
FN:968,_ZSt8__fill_aIPiiEvT_S1_RKT0_
FNDA:3,_ZSt8__fill_aIPiiEvT_S1_RKT0_
FN:1010,_ZSt17__size_to_integerm
FNDA:0,_ZSt17__size_to_integerm
FN:1109,_ZSt10__fill_n_aIPimiET_S1_T0_RKT1_St26random_access_iterator_tag
FNDA:3,_ZSt10__fill_n_aIPimiET_S1_T0_RKT1_St26random_access_iterator_tag
FN:1144,_ZSt6fill_nIPimiET_S1_T0_RKT1_
FNDA:3,_ZSt6fill_nIPimiET_S1_T0_RKT1_
DA:230,0
DA:235,0
DA:236,0
DA:237,0
DA:254,0
DA:259,0
DA:260,0
DA:261,0
DA:313,0
DA:315,0
DA:313,18
DA:315,18
DA:335,0
DA:336,0
DA:420,0
DA:429,0
DA:430,0
DA:431,0
DA:432,0
DA:486,0
DA:495,0
DA:521,0
DA:522,0
DA:527,0
DA:529,0
DA:532,0
DA:611,0
DA:620,0
DA:919,3
DA:922,3
DA:923,11
DA:924,8
DA:925,3
DA:968,3
DA:969,3
DA:1010,0
DA:1109,3
DA:1115,3
DA:1116,0
DA:1120,3
DA:1121,3
DA:1144,3
DA:1149,3
DA:1150,6
end_of_record
SF:/usr/include/c++/11/bits/stl_tree.h
FN:112,_ZNSt18_Rb_tree_node_base10_S_minimumEPS_
FNDA:0,_ZNSt18_Rb_tree_node_base10_S_minimumEPS_
FN:126,_ZNSt18_Rb_tree_node_base10_S_maximumEPS_
FNDA:0,_ZNSt18_Rb_tree_node_base10_S_maximumEPS_
FN:146,_ZNSt20_Rb_tree_key_compareISt4lessISt4pairImiEEEC2Ev
FNDA:1,_ZNSt20_Rb_tree_key_compareISt4lessISt4pairImiEEEC2Ev
FN:152,_ZNSt20_Rb_tree_key_compareISt4lessImEEC2ERKS1_
FNDA:0,_ZNSt20_Rb_tree_key_compareISt4lessImEEC2ERKS1_
FN:173,_ZNSt15_Rb_tree_headerC2Ev
FNDA:0,_ZNSt15_Rb_tree_headerC2Ev
FN:206,_ZNSt15_Rb_tree_header8_M_resetEv
FNDA:0,_ZNSt15_Rb_tree_header8_M_resetEv
FN:234,_ZNSt13_Rb_tree_nodeISt4pairIKi6VertexEE9_M_valptrEv
FNDA:0,_ZNSt13_Rb_tree_nodeISt4pairIKi6VertexEE9_M_valptrEv
FN:234,_ZNSt13_Rb_tree_nodeISt4pairIKS0_ImiEmEE9_M_valptrEv
FNDA:29,_ZNSt13_Rb_tree_nodeISt4pairIKS0_ImiEmEE9_M_valptrEv
FN:234,_ZNSt13_Rb_tree_nodeISt4pairIKmmEE9_M_valptrEv
FNDA:0,_ZNSt13_Rb_tree_nodeISt4pairIKmmEE9_M_valptrEv
FN:238,_ZNKSt13_Rb_tree_nodeISt4pairIKS0_ImiEmEE9_M_valptrEv
FNDA:59,_ZNKSt13_Rb_tree_nodeISt4pairIKS0_ImiEmEE9_M_valptrEv
FN:273,_ZNSt17_Rb_tree_iteratorISt4pairIKS0_ImiEmEEC2EPSt18_Rb_tree_node_base
FNDA:45,_ZNSt17_Rb_tree_iteratorISt4pairIKS0_ImiEmEEC2EPSt18_Rb_tree_node_base
FN:277,_ZNKSt17_Rb_tree_iteratorISt4pairIKi6VertexEEdeEv
FNDA:0,_ZNKSt17_Rb_tree_iteratorISt4pairIKi6VertexEEdeEv
FN:277,_ZNKSt17_Rb_tree_iteratorISt4pairIKS0_ImiEmEEdeEv
FNDA:17,_ZNKSt17_Rb_tree_iteratorISt4pairIKS0_ImiEmEEdeEv
FN:281,_ZNKSt17_Rb_tree_iteratorISt4pairIKmmEEptEv
FNDA:12,_ZNKSt17_Rb_tree_iteratorISt4pairIKmmEEptEv
FN:285,_ZNSt17_Rb_tree_iteratorISt4pairIKi6VertexEEppEv
FNDA:0,_ZNSt17_Rb_tree_iteratorISt4pairIKi6VertexEEppEv
FN:285,_ZNSt17_Rb_tree_iteratorISt4pairIKS0_ImiEmEEppEv
FNDA:0,_ZNSt17_Rb_tree_iteratorISt4pairIKS0_ImiEmEEppEv
FN:292,_ZNSt17_Rb_tree_iteratorISt4pairIKmmEEppEi
FNDA:6,_ZNSt17_Rb_tree_iteratorISt4pairIKmmEEppEi
FN:300,_ZNSt17_Rb_tree_iteratorISt4pairIKS0_ImiEmEEmmEv
FNDA:2,_ZNSt17_Rb_tree_iteratorISt4pairIKS0_ImiEmEEmmEv
FN:315,_ZSteqRKSt17_Rb_tree_iteratorISt4pairIKS0_ImiEmEES6_
FNDA:11,_ZSteqRKSt17_Rb_tree_iteratorISt4pairIKS0_ImiEmEES6_
FN:320,_ZStneRKSt17_Rb_tree_iteratorISt4pairIKmmEES5_
FNDA:9,_ZStneRKSt17_Rb_tree_iteratorISt4pairIKmmEES5_
FN:320,_ZStneRKSt17_Rb_tree_iteratorISt4pairIKi6VertexEES6_
FNDA:0,_ZStneRKSt17_Rb_tree_iteratorISt4pairIKi6VertexEES6_
FN:347,_ZNSt23_Rb_tree_const_iteratorISt4pairIKS0_ImiEmEEC2EPKSt18_Rb_tree_node_base
FNDA:9,_ZNSt23_Rb_tree_const_iteratorISt4pairIKS0_ImiEmEEC2EPKSt18_Rb_tree_node_base
FN:350,_ZNSt23_Rb_tree_const_iteratorISt4pairIKS0_ImiEmEEC2ERKSt17_Rb_tree_iteratorIS3_E
FNDA:17,_ZNSt23_Rb_tree_const_iteratorISt4pairIKS0_ImiEmEEC2ERKSt17_Rb_tree_iteratorIS3_E
FN:354,_ZNKSt23_Rb_tree_const_iteratorISt4pairIKS0_ImiEmEE13_M_const_castEv
FNDA:6,_ZNKSt23_Rb_tree_const_iteratorISt4pairIKS0_ImiEmEE13_M_const_castEv
FN:362,_ZNKSt23_Rb_tree_const_iteratorISt4pairIKS0_ImiEmEEptEv
FNDA:3,_ZNKSt23_Rb_tree_const_iteratorISt4pairIKS0_ImiEmEEptEv
FN:373,_ZNSt23_Rb_tree_const_iteratorISt4pairIKS0_ImiEmEEppEi
FNDA:3,_ZNSt23_Rb_tree_const_iteratorISt4pairIKS0_ImiEmEEppEi
FN:396,_ZSteqRKSt23_Rb_tree_const_iteratorISt4pairIKS0_ImiEmEES6_
FNDA:11,_ZSteqRKSt23_Rb_tree_const_iteratorISt4pairIKS0_ImiEmEES6_
FN:401,_ZStneRKSt23_Rb_tree_const_iteratorISt4pairIKS0_ImiEmEES6_
FNDA:6,_ZStneRKSt23_Rb_tree_const_iteratorISt4pairIKS0_ImiEmEES6_
FN:523,_ZNSt8_Rb_treeImSt4pairIKmmESt10_Select1stIS2_ESt4lessImESaIS2_EE11_Alloc_nodeC2ERS8_
FNDA:0,_ZNSt8_Rb_treeImSt4pairIKmmESt10_Select1stIS2_ESt4lessImESaIS2_EE11_Alloc_nodeC2ERS8_
FN:528,_ZNKSt8_Rb_treeImSt4pairIKmmESt10_Select1stIS2_ESt4lessImESaIS2_EE11_Alloc_nodeclIRKS2_EEPSt13_Rb_tree_nodeIS2_EOT_
FNDA:0,_ZNKSt8_Rb_treeImSt4pairIKmmESt10_Select1stIS2_ESt4lessImESaIS2_EE11_Alloc_nodeclIRKS2_EEPSt13_Rb_tree_nodeIS2_EOT_
FN:547,_ZNSt8_Rb_treeImSt4pairIKmmESt10_Select1stIS2_ESt4lessImESaIS2_EE21_M_get_Node_allocatorEv
FNDA:0,_ZNSt8_Rb_treeImSt4pairIKmmESt10_Select1stIS2_ESt4lessImESaIS2_EE21_M_get_Node_allocatorEv
FN:547,_ZNSt8_Rb_treeISt4pairImiES0_IKS1_mESt10_Select1stIS3_ESt4lessIS1_ESaIS3_EE21_M_get_Node_allocatorEv
FNDA:24,_ZNSt8_Rb_treeISt4pairImiES0_IKS1_mESt10_Select1stIS3_ESt4lessIS1_ESaIS3_EE21_M_get_Node_allocatorEv
FN:560,_ZNSt8_Rb_treeImSt4pairIKmmESt10_Select1stIS2_ESt4lessImESaIS2_EE11_M_get_nodeEv
FNDA:0,_ZNSt8_Rb_treeImSt4pairIKmmESt10_Select1stIS2_ESt4lessImESaIS2_EE11_M_get_nodeEv
FN:560,_ZNSt8_Rb_treeISt4pairImiES0_IKS1_mESt10_Select1stIS3_ESt4lessIS1_ESaIS3_EE11_M_get_nodeEv
FNDA:6,_ZNSt8_Rb_treeISt4pairImiES0_IKS1_mESt10_Select1stIS3_ESt4lessIS1_ESaIS3_EE11_M_get_nodeEv
FN:564,_ZNSt8_Rb_treeImSt4pairIKmmESt10_Select1stIS2_ESt4lessImESaIS2_EE11_M_put_nodeEPSt13_Rb_tree_nodeIS2_E
FNDA:0,_ZNSt8_Rb_treeImSt4pairIKmmESt10_Select1stIS2_ESt4lessImESaIS2_EE11_M_put_nodeEPSt13_Rb_tree_nodeIS2_E
FN:564,_ZNSt8_Rb_treeISt4pairImiES0_IKS1_mESt10_Select1stIS3_ESt4lessIS1_ESaIS3_EE11_M_put_nodeEPSt13_Rb_tree_nodeIS3_E
FNDA:6,_ZNSt8_Rb_treeISt4pairImiES0_IKS1_mESt10_Select1stIS3_ESt4lessIS1_ESaIS3_EE11_M_put_nodeEPSt13_Rb_tree_nodeIS3_E
FN:590,_ZNSt8_Rb_treeImSt4pairIKmmESt10_Select1stIS2_ESt4lessImESaIS2_EE17_M_construct_nodeIJRKS2_EEEvPSt13_Rb_tree_nodeIS2_EDpOT_
FNDA:0,_ZNSt8_Rb_treeImSt4pairIKmmESt10_Select1stIS2_ESt4lessImESaIS2_EE17_M_construct_nodeIJRKS2_EEEvPSt13_Rb_tree_nodeIS2_EDpOT_
FN:590,_ZNSt8_Rb_treeISt4pairImiES0_IKS1_mESt10_Select1stIS3_ESt4lessIS1_ESaIS3_EE17_M_construct_nodeIJRKSt21piecewise_construct_tSt5tupleIJRS2_EESE_IJEEEEEvPSt13_Rb_tree_nodeIS3_EDpOT_
FNDA:6,_ZNSt8_Rb_treeISt4pairImiES0_IKS1_mESt10_Select1stIS3_ESt4lessIS1_ESaIS3_EE17_M_construct_nodeIJRKSt21piecewise_construct_tSt5tupleIJRS2_EESE_IJEEEEEvPSt13_Rb_tree_nodeIS3_EDpOT_
FN:609,_ZNSt8_Rb_treeImSt4pairIKmmESt10_Select1stIS2_ESt4lessImESaIS2_EE14_M_create_nodeIJRKS2_EEEPSt13_Rb_tree_nodeIS2_EDpOT_
FNDA:0,_ZNSt8_Rb_treeImSt4pairIKmmESt10_Select1stIS2_ESt4lessImESaIS2_EE14_M_create_nodeIJRKS2_EEEPSt13_Rb_tree_nodeIS2_EDpOT_
FN:609,_ZNSt8_Rb_treeISt4pairImiES0_IKS1_mESt10_Select1stIS3_ESt4lessIS1_ESaIS3_EE14_M_create_nodeIJRKSt21piecewise_construct_tSt5tupleIJRS2_EESE_IJEEEEEPSt13_Rb_tree_nodeIS3_EDpOT_
FNDA:6,_ZNSt8_Rb_treeISt4pairImiES0_IKS1_mESt10_Select1stIS3_ESt4lessIS1_ESaIS3_EE14_M_create_nodeIJRKSt21piecewise_construct_tSt5tupleIJRS2_EESE_IJEEEEEPSt13_Rb_tree_nodeIS3_EDpOT_
FN:618,_ZNSt8_Rb_treeISt4pairImiES0_IKS1_mESt10_Select1stIS3_ESt4lessIS1_ESaIS3_EE15_M_destroy_nodeEPSt13_Rb_tree_nodeIS3_E
FNDA:6,_ZNSt8_Rb_treeISt4pairImiES0_IKS1_mESt10_Select1stIS3_ESt4lessIS1_ESaIS3_EE15_M_destroy_nodeEPSt13_Rb_tree_nodeIS3_E
FN:618,_ZNSt8_Rb_treeImSt4pairIKmmESt10_Select1stIS2_ESt4lessImESaIS2_EE15_M_destroy_nodeEPSt13_Rb_tree_nodeIS2_E
FNDA:0,_ZNSt8_Rb_treeImSt4pairIKmmESt10_Select1stIS2_ESt4lessImESaIS2_EE15_M_destroy_nodeEPSt13_Rb_tree_nodeIS2_E
FN:629,_ZNSt8_Rb_treeISt4pairImiES0_IKS1_mESt10_Select1stIS3_ESt4lessIS1_ESaIS3_EE12_M_drop_nodeEPSt13_Rb_tree_nodeIS3_E
FNDA:6,_ZNSt8_Rb_treeISt4pairImiES0_IKS1_mESt10_Select1stIS3_ESt4lessIS1_ESaIS3_EE12_M_drop_nodeEPSt13_Rb_tree_nodeIS3_E
FN:629,_ZNSt8_Rb_treeImSt4pairIKmmESt10_Select1stIS2_ESt4lessImESaIS2_EE12_M_drop_nodeEPSt13_Rb_tree_nodeIS2_E
FNDA:0,_ZNSt8_Rb_treeImSt4pairIKmmESt10_Select1stIS2_ESt4lessImESaIS2_EE12_M_drop_nodeEPSt13_Rb_tree_nodeIS2_E
FN:637,_ZNSt8_Rb_treeImSt4pairIKmmESt10_Select1stIS2_ESt4lessImESaIS2_EE13_M_clone_nodeILb0ENS8_11_Alloc_nodeEEEPSt13_Rb_tree_nodeIS2_ESD_RT0_
FNDA:0,_ZNSt8_Rb_treeImSt4pairIKmmESt10_Select1stIS2_ESt4lessImESaIS2_EE13_M_clone_nodeILb0ENS8_11_Alloc_nodeEEEPSt13_Rb_tree_nodeIS2_ESD_RT0_
FN:667,_ZNSt8_Rb_treeISt4pairImiES0_IKS1_mESt10_Select1stIS3_ESt4lessIS1_ESaIS3_EE13_Rb_tree_implIS7_Lb1EEC2Ev
FNDA:1,_ZNSt8_Rb_treeISt4pairImiES0_IKS1_mESt10_Select1stIS3_ESt4lessIS1_ESaIS3_EE13_Rb_tree_implIS7_Lb1EEC2Ev
FN:674,_ZNSt8_Rb_treeImSt4pairIKmmESt10_Select1stIS2_ESt4lessImESaIS2_EE13_Rb_tree_implIS6_Lb1EEC2ERKSA_
FNDA:0,_ZNSt8_Rb_treeImSt4pairIKmmESt10_Select1stIS2_ESt4lessImESaIS2_EE13_Rb_tree_implIS6_Lb1EEC2ERKSA_
FN:710,_ZNSt8_Rb_treeImSt4pairIKmmESt10_Select1stIS2_ESt4lessImESaIS2_EE7_M_rootEv
FNDA:0,_ZNSt8_Rb_treeImSt4pairIKmmESt10_Select1stIS2_ESt4lessImESaIS2_EE7_M_rootEv
FN:714,_ZNKSt8_Rb_treeImSt4pairIKmmESt10_Select1stIS2_ESt4lessImESaIS2_EE7_M_rootEv
FNDA:0,_ZNKSt8_Rb_treeImSt4pairIKmmESt10_Select1stIS2_ESt4lessImESaIS2_EE7_M_rootEv
FN:718,_ZNSt8_Rb_treeImSt4pairIKmmESt10_Select1stIS2_ESt4lessImESaIS2_EE11_M_leftmostEv
FNDA:0,_ZNSt8_Rb_treeImSt4pairIKmmESt10_Select1stIS2_ESt4lessImESaIS2_EE11_M_leftmostEv
FN:718,_ZNSt8_Rb_treeISt4pairImiES0_IKS1_mESt10_Select1stIS3_ESt4lessIS1_ESaIS3_EE11_M_leftmostEv
FNDA:5,_ZNSt8_Rb_treeISt4pairImiES0_IKS1_mESt10_Select1stIS3_ESt4lessIS1_ESaIS3_EE11_M_leftmostEv
FN:726,_ZNSt8_Rb_treeImSt4pairIKmmESt10_Select1stIS2_ESt4lessImESaIS2_EE12_M_rightmostEv
FNDA:0,_ZNSt8_Rb_treeImSt4pairIKmmESt10_Select1stIS2_ESt4lessImESaIS2_EE12_M_rightmostEv
FN:726,_ZNSt8_Rb_treeISt4pairImiES0_IKS1_mESt10_Select1stIS3_ESt4lessIS1_ESaIS3_EE12_M_rightmostEv
FNDA:4,_ZNSt8_Rb_treeISt4pairImiES0_IKS1_mESt10_Select1stIS3_ESt4lessIS1_ESaIS3_EE12_M_rightmostEv
FN:734,_ZNKSt8_Rb_treeISt4pairImiES0_IKS1_mESt10_Select1stIS3_ESt4lessIS1_ESaIS3_EE9_M_mbeginEv
FNDA:15,_ZNKSt8_Rb_treeISt4pairImiES0_IKS1_mESt10_Select1stIS3_ESt4lessIS1_ESaIS3_EE9_M_mbeginEv
FN:734,_ZNKSt8_Rb_treeImSt4pairIKmmESt10_Select1stIS2_ESt4lessImESaIS2_EE9_M_mbeginEv
FNDA:0,_ZNKSt8_Rb_treeImSt4pairIKmmESt10_Select1stIS2_ESt4lessImESaIS2_EE9_M_mbeginEv
FN:738,_ZNSt8_Rb_treeImSt4pairIKmmESt10_Select1stIS2_ESt4lessImESaIS2_EE8_M_beginEv
FNDA:0,_ZNSt8_Rb_treeImSt4pairIKmmESt10_Select1stIS2_ESt4lessImESaIS2_EE8_M_beginEv
FN:738,_ZNSt8_Rb_treeISt4pairImiES0_IKS1_mESt10_Select1stIS3_ESt4lessIS1_ESaIS3_EE8_M_beginEv
FNDA:15,_ZNSt8_Rb_treeISt4pairImiES0_IKS1_mESt10_Select1stIS3_ESt4lessIS1_ESaIS3_EE8_M_beginEv
FN:742,_ZNKSt8_Rb_treeISt4pairImiES0_IKS1_mESt10_Select1stIS3_ESt4lessIS1_ESaIS3_EE8_M_beginEv
FNDA:3,_ZNKSt8_Rb_treeISt4pairImiES0_IKS1_mESt10_Select1stIS3_ESt4lessIS1_ESaIS3_EE8_M_beginEv
FN:749,_ZNSt8_Rb_treeISt4pairImiES0_IKS1_mESt10_Select1stIS3_ESt4lessIS1_ESaIS3_EE6_M_endEv
FNDA:24,_ZNSt8_Rb_treeISt4pairImiES0_IKS1_mESt10_Select1stIS3_ESt4lessIS1_ESaIS3_EE6_M_endEv
FN:749,_ZNSt8_Rb_treeImSt4pairIKmmESt10_Select1stIS2_ESt4lessImESaIS2_EE6_M_endEv
FNDA:0,_ZNSt8_Rb_treeImSt4pairIKmmESt10_Select1stIS2_ESt4lessImESaIS2_EE6_M_endEv
FN:753,_ZNKSt8_Rb_treeISt4pairImiES0_IKS1_mESt10_Select1stIS3_ESt4lessIS1_ESaIS3_EE6_M_endEv
FNDA:3,_ZNKSt8_Rb_treeISt4pairImiES0_IKS1_mESt10_Select1stIS3_ESt4lessIS1_ESaIS3_EE6_M_endEv
FN:757,_ZNSt8_Rb_treeISt4pairImiES0_IKS1_mESt10_Select1stIS3_ESt4lessIS1_ESaIS3_EE6_S_keyEPKSt13_Rb_tree_nodeIS3_E
FNDA:56,_ZNSt8_Rb_treeISt4pairImiES0_IKS1_mESt10_Select1stIS3_ESt4lessIS1_ESaIS3_EE6_S_keyEPKSt13_Rb_tree_nodeIS3_E
FN:779,_ZNSt8_Rb_treeImSt4pairIKmmESt10_Select1stIS2_ESt4lessImESaIS2_EE7_S_leftEPSt18_Rb_tree_node_base
FNDA:0,_ZNSt8_Rb_treeImSt4pairIKmmESt10_Select1stIS2_ESt4lessImESaIS2_EE7_S_leftEPSt18_Rb_tree_node_base
FN:779,_ZNSt8_Rb_treeISt4pairImiES0_IKS1_mESt10_Select1stIS3_ESt4lessIS1_ESaIS3_EE7_S_leftEPSt18_Rb_tree_node_base
FNDA:17,_ZNSt8_Rb_treeISt4pairImiES0_IKS1_mESt10_Select1stIS3_ESt4lessIS1_ESaIS3_EE7_S_leftEPSt18_Rb_tree_node_base
FN:783,_ZNSt8_Rb_treeISt4pairImiES0_IKS1_mESt10_Select1stIS3_ESt4lessIS1_ESaIS3_EE7_S_leftEPKSt18_Rb_tree_node_base
FNDA:3,_ZNSt8_Rb_treeISt4pairImiES0_IKS1_mESt10_Select1stIS3_ESt4lessIS1_ESaIS3_EE7_S_leftEPKSt18_Rb_tree_node_base
FN:787,_ZNSt8_Rb_treeImSt4pairIKmmESt10_Select1stIS2_ESt4lessImESaIS2_EE8_S_rightEPSt18_Rb_tree_node_base
FNDA:0,_ZNSt8_Rb_treeImSt4pairIKmmESt10_Select1stIS2_ESt4lessImESaIS2_EE8_S_rightEPSt18_Rb_tree_node_base
FN:787,_ZNSt8_Rb_treeISt4pairImiES0_IKS1_mESt10_Select1stIS3_ESt4lessIS1_ESaIS3_EE8_S_rightEPSt18_Rb_tree_node_base
FNDA:17,_ZNSt8_Rb_treeISt4pairImiES0_IKS1_mESt10_Select1stIS3_ESt4lessIS1_ESaIS3_EE8_S_rightEPSt18_Rb_tree_node_base
FN:791,_ZNSt8_Rb_treeISt4pairImiES0_IKS1_mESt10_Select1stIS3_ESt4lessIS1_ESaIS3_EE8_S_rightEPKSt18_Rb_tree_node_base
FNDA:2,_ZNSt8_Rb_treeISt4pairImiES0_IKS1_mESt10_Select1stIS3_ESt4lessIS1_ESaIS3_EE8_S_rightEPKSt18_Rb_tree_node_base
FN:795,_ZNSt8_Rb_treeISt4pairImiES0_IKS1_mESt10_Select1stIS3_ESt4lessIS1_ESaIS3_EE6_S_keyEPKSt18_Rb_tree_node_base
FNDA:13,_ZNSt8_Rb_treeISt4pairImiES0_IKS1_mESt10_Select1stIS3_ESt4lessIS1_ESaIS3_EE6_S_keyEPKSt18_Rb_tree_node_base
FN:799,_ZNSt8_Rb_treeImSt4pairIKmmESt10_Select1stIS2_ESt4lessImESaIS2_EE10_S_minimumEPSt18_Rb_tree_node_base
FNDA:0,_ZNSt8_Rb_treeImSt4pairIKmmESt10_Select1stIS2_ESt4lessImESaIS2_EE10_S_minimumEPSt18_Rb_tree_node_base
FN:807,_ZNSt8_Rb_treeImSt4pairIKmmESt10_Select1stIS2_ESt4lessImESaIS2_EE10_S_maximumEPSt18_Rb_tree_node_base
FNDA:0,_ZNSt8_Rb_treeImSt4pairIKmmESt10_Select1stIS2_ESt4lessImESaIS2_EE10_S_maximumEPSt18_Rb_tree_node_base
FN:887,_ZNSt8_Rb_treeImSt4pairIKmmESt10_Select1stIS2_ESt4lessImESaIS2_EE7_M_copyILb0ENS8_11_Alloc_nodeEEEPSt13_Rb_tree_nodeIS2_ERKS8_RT0_
FNDA:0,_ZNSt8_Rb_treeImSt4pairIKmmESt10_Select1stIS2_ESt4lessImESaIS2_EE7_M_copyILb0ENS8_11_Alloc_nodeEEEPSt13_Rb_tree_nodeIS2_ERKS8_RT0_
FN:898,_ZNSt8_Rb_treeImSt4pairIKmmESt10_Select1stIS2_ESt4lessImESaIS2_EE7_M_copyERKS8_
FNDA:0,_ZNSt8_Rb_treeImSt4pairIKmmESt10_Select1stIS2_ESt4lessImESaIS2_EE7_M_copyERKS8_
FN:928,_ZNSt8_Rb_treeISt4pairImiES0_IKS1_mESt10_Select1stIS3_ESt4lessIS1_ESaIS3_EEC2Ev
FNDA:1,_ZNSt8_Rb_treeISt4pairImiES0_IKS1_mESt10_Select1stIS3_ESt4lessIS1_ESaIS3_EEC2Ev
FN:935,_ZNSt8_Rb_treeImSt4pairIKmmESt10_Select1stIS2_ESt4lessImESaIS2_EEC2ERKS8_
FNDA:0,_ZNSt8_Rb_treeImSt4pairIKmmESt10_Select1stIS2_ESt4lessImESaIS2_EEC2ERKS8_
FN:983,_ZNSt8_Rb_treeImSt4pairIKmmESt10_Select1stIS2_ESt4lessImESaIS2_EED2Ev
FNDA:0,_ZNSt8_Rb_treeImSt4pairIKmmESt10_Select1stIS2_ESt4lessImESaIS2_EED2Ev
FN:983,_ZNSt8_Rb_treeISt4pairImiES0_IKS1_mESt10_Select1stIS3_ESt4lessIS1_ESaIS3_EED2Ev
FNDA:1,_ZNSt8_Rb_treeISt4pairImiES0_IKS1_mESt10_Select1stIS3_ESt4lessIS1_ESaIS3_EED2Ev
FN:991,_ZNKSt8_Rb_treeISt4pairImiES0_IKS1_mESt10_Select1stIS3_ESt4lessIS1_ESaIS3_EE8key_compEv
FNDA:7,_ZNKSt8_Rb_treeISt4pairImiES0_IKS1_mESt10_Select1stIS3_ESt4lessIS1_ESaIS3_EE8key_compEv
FN:995,_ZNSt8_Rb_treeISt4pairImiES0_IKS1_mESt10_Select1stIS3_ESt4lessIS1_ESaIS3_EE5beginEv
FNDA:4,_ZNSt8_Rb_treeISt4pairImiES0_IKS1_mESt10_Select1stIS3_ESt4lessIS1_ESaIS3_EE5beginEv
FN:1003,_ZNSt8_Rb_treeISt4pairImiES0_IKS1_mESt10_Select1stIS3_ESt4lessIS1_ESaIS3_EE3endEv
FNDA:12,_ZNSt8_Rb_treeISt4pairImiES0_IKS1_mESt10_Select1stIS3_ESt4lessIS1_ESaIS3_EE3endEv
FN:1007,_ZNKSt8_Rb_treeISt4pairImiES0_IKS1_mESt10_Select1stIS3_ESt4lessIS1_ESaIS3_EE3endEv
FNDA:6,_ZNKSt8_Rb_treeISt4pairImiES0_IKS1_mESt10_Select1stIS3_ESt4lessIS1_ESaIS3_EE3endEv
FN:1031,_ZNKSt8_Rb_treeISt4pairImiES0_IKS1_mESt10_Select1stIS3_ESt4lessIS1_ESaIS3_EE4sizeEv
FNDA:9,_ZNKSt8_Rb_treeISt4pairImiES0_IKS1_mESt10_Select1stIS3_ESt4lessIS1_ESaIS3_EE4sizeEv
FN:1252,_ZNSt8_Rb_treeISt4pairImiES0_IKS1_mESt10_Select1stIS3_ESt4lessIS1_ESaIS3_EE5clearEv
FNDA:0,_ZNSt8_Rb_treeISt4pairImiES0_IKS1_mESt10_Select1stIS3_ESt4lessIS1_ESaIS3_EE5clearEv
FN:1269,_ZNSt8_Rb_treeISt4pairImiES0_IKS1_mESt10_Select1stIS3_ESt4lessIS1_ESaIS3_EE11lower_boundERS2_
FNDA:10,_ZNSt8_Rb_treeISt4pairImiES0_IKS1_mESt10_Select1stIS3_ESt4lessIS1_ESaIS3_EE11lower_boundERS2_
FN:1845,_ZNSt8_Rb_treeImSt4pairIKmmESt10_Select1stIS2_ESt4lessImESaIS2_EE7_M_copyILb0ENS8_11_Alloc_nodeEEEPSt13_Rb_tree_nodeIS2_ESD_PSt18_Rb_tree_node_baseRT0_
FNDA:0,_ZNSt8_Rb_treeImSt4pairIKmmESt10_Select1stIS2_ESt4lessImESaIS2_EE7_M_copyILb0ENS8_11_Alloc_nodeEEEPSt13_Rb_tree_nodeIS2_ESD_PSt18_Rb_tree_node_baseRT0_
FN:1883,_ZNSt8_Rb_treeImSt4pairIKmmESt10_Select1stIS2_ESt4lessImESaIS2_EE8_M_eraseEPSt13_Rb_tree_nodeIS2_E
FNDA:0,_ZNSt8_Rb_treeImSt4pairIKmmESt10_Select1stIS2_ESt4lessImESaIS2_EE8_M_eraseEPSt13_Rb_tree_nodeIS2_E
FN:1883,_ZNSt8_Rb_treeISt4pairImiES0_IKS1_mESt10_Select1stIS3_ESt4lessIS1_ESaIS3_EE8_M_eraseEPSt13_Rb_tree_nodeIS3_E
FNDA:4,_ZNSt8_Rb_treeISt4pairImiES0_IKS1_mESt10_Select1stIS3_ESt4lessIS1_ESaIS3_EE8_M_eraseEPSt13_Rb_tree_nodeIS3_E
FN:1900,_ZNSt8_Rb_treeISt4pairImiES0_IKS1_mESt10_Select1stIS3_ESt4lessIS1_ESaIS3_EE14_M_lower_boundEPSt13_Rb_tree_nodeIS3_EPSt18_Rb_tree_node_baseRS2_
FNDA:13,_ZNSt8_Rb_treeISt4pairImiES0_IKS1_mESt10_Select1stIS3_ESt4lessIS1_ESaIS3_EE14_M_lower_boundEPSt13_Rb_tree_nodeIS3_EPSt18_Rb_tree_node_baseRS2_
FN:1916,_ZNKSt8_Rb_treeISt4pairImiES0_IKS1_mESt10_Select1stIS3_ESt4lessIS1_ESaIS3_EE14_M_lower_boundEPKSt13_Rb_tree_nodeIS3_EPKSt18_Rb_tree_node_baseRS2_
FNDA:3,_ZNKSt8_Rb_treeISt4pairImiES0_IKS1_mESt10_Select1stIS3_ESt4lessIS1_ESaIS3_EE14_M_lower_boundEPKSt13_Rb_tree_nodeIS3_EPKSt18_Rb_tree_node_baseRS2_
FN:1932,_ZNSt8_Rb_treeISt4pairImiES0_IKS1_mESt10_Select1stIS3_ESt4lessIS1_ESaIS3_EE14_M_upper_boundEPSt13_Rb_tree_nodeIS3_EPSt18_Rb_tree_node_baseRS2_
FNDA:3,_ZNSt8_Rb_treeISt4pairImiES0_IKS1_mESt10_Select1stIS3_ESt4lessIS1_ESaIS3_EE14_M_upper_boundEPSt13_Rb_tree_nodeIS3_EPSt18_Rb_tree_node_baseRS2_
FN:1966,_ZNSt8_Rb_treeISt4pairImiES0_IKS1_mESt10_Select1stIS3_ESt4lessIS1_ESaIS3_EE11equal_rangeERS2_
FNDA:3,_ZNSt8_Rb_treeISt4pairImiES0_IKS1_mESt10_Select1stIS3_ESt4lessIS1_ESaIS3_EE11equal_rangeERS2_
FN:2061,_ZNSt8_Rb_treeISt4pairImiES0_IKS1_mESt10_Select1stIS3_ESt4lessIS1_ESaIS3_EE24_M_get_insert_unique_posERS2_
FNDA:1,_ZNSt8_Rb_treeISt4pairImiES0_IKS1_mESt10_Select1stIS3_ESt4lessIS1_ESaIS3_EE24_M_get_insert_unique_posERS2_
FN:2163,_ZNSt8_Rb_treeISt4pairImiES0_IKS1_mESt10_Select1stIS3_ESt4lessIS1_ESaIS3_EE29_M_get_insert_hint_unique_posESt23_Rb_tree_const_iteratorIS3_ERS2_
FNDA:6,_ZNSt8_Rb_treeISt4pairImiES0_IKS1_mESt10_Select1stIS3_ESt4lessIS1_ESaIS3_EE29_M_get_insert_hint_unique_posESt23_Rb_tree_const_iteratorIS3_ERS2_
FN:2330,_ZNSt8_Rb_treeISt4pairImiES0_IKS1_mESt10_Select1stIS3_ESt4lessIS1_ESaIS3_EE14_M_insert_nodeEPSt18_Rb_tree_node_baseSB_PSt13_Rb_tree_nodeIS3_E
FNDA:6,_ZNSt8_Rb_treeISt4pairImiES0_IKS1_mESt10_Select1stIS3_ESt4lessIS1_ESaIS3_EE14_M_insert_nodeEPSt18_Rb_tree_node_baseSB_PSt13_Rb_tree_nodeIS3_E
FN:2428,_ZNSt8_Rb_treeISt4pairImiES0_IKS1_mESt10_Select1stIS3_ESt4lessIS1_ESaIS3_EE22_M_emplace_hint_uniqueIJRKSt21piecewise_construct_tSt5tupleIJRS2_EESE_IJEEEEESt17_Rb_tree_iteratorIS3_ESt23_Rb_tree_const_iteratorIS3_EDpOT_
FNDA:6,_ZNSt8_Rb_treeISt4pairImiES0_IKS1_mESt10_Select1stIS3_ESt4lessIS1_ESaIS3_EE22_M_emplace_hint_uniqueIJRKSt21piecewise_construct_tSt5tupleIJRS2_EESE_IJEEEEESt17_Rb_tree_iteratorIS3_ESt23_Rb_tree_const_iteratorIS3_EDpOT_
FN:2480,_ZNSt8_Rb_treeISt4pairImiES0_IKS1_mESt10_Select1stIS3_ESt4lessIS1_ESaIS3_EE12_M_erase_auxESt23_Rb_tree_const_iteratorIS3_E
FNDA:3,_ZNSt8_Rb_treeISt4pairImiES0_IKS1_mESt10_Select1stIS3_ESt4lessIS1_ESaIS3_EE12_M_erase_auxESt23_Rb_tree_const_iteratorIS3_E
FN:2494,_ZNSt8_Rb_treeISt4pairImiES0_IKS1_mESt10_Select1stIS3_ESt4lessIS1_ESaIS3_EE12_M_erase_auxESt23_Rb_tree_const_iteratorIS3_ESB_
FNDA:3,_ZNSt8_Rb_treeISt4pairImiES0_IKS1_mESt10_Select1stIS3_ESt4lessIS1_ESaIS3_EE12_M_erase_auxESt23_Rb_tree_const_iteratorIS3_ESB_
FN:2507,_ZNSt8_Rb_treeISt4pairImiES0_IKS1_mESt10_Select1stIS3_ESt4lessIS1_ESaIS3_EE5eraseERS2_
FNDA:3,_ZNSt8_Rb_treeISt4pairImiES0_IKS1_mESt10_Select1stIS3_ESt4lessIS1_ESaIS3_EE5eraseERS2_
FN:2533,_ZNKSt8_Rb_treeISt4pairImiES0_IKS1_mESt10_Select1stIS3_ESt4lessIS1_ESaIS3_EE4findERS2_
FNDA:3,_ZNKSt8_Rb_treeISt4pairImiES0_IKS1_mESt10_Select1stIS3_ESt4lessIS1_ESaIS3_EE4findERS2_
DA:112,0
DA:114,0
DA:115,0
DA:126,0
DA:128,0
DA:129,0
DA:146,1
DA:150,1
DA:152,0
DA:154,0
DA:173,0
DA:174,0
DA:175,0
DA:176,0
DA:177,0
DA:206,0
DA:208,0
DA:209,0
DA:210,0
DA:211,0
DA:212,0
DA:234,29
DA:235,29
DA:234,0
DA:235,0
DA:234,0
DA:235,0
DA:238,59
DA:239,59
DA:273,45
DA:274,45
DA:277,17
DA:278,17
DA:277,0
DA:278,0
DA:281,12
DA:282,12
DA:285,0
DA:287,0
DA:288,0
DA:285,0
DA:287,0
DA:288,0
DA:292,6
DA:294,6
DA:295,6
DA:296,6
DA:300,2
DA:302,2
DA:303,2
DA:315,11
DA:316,11
DA:320,9
DA:321,9
DA:320,0
DA:321,0
DA:347,9
DA:348,9
DA:350,17
DA:351,17
DA:354,6
DA:355,6
DA:362,3
DA:363,3
DA:373,3
DA:375,3
DA:376,3
DA:377,3
DA:396,11
DA:397,11
DA:401,6
DA:402,6
DA:523,0
DA:524,0
DA:528,0
DA:529,0
DA:547,0
DA:548,0
DA:547,24
DA:548,24
DA:560,0
DA:561,0
DA:560,6
DA:561,6
DA:564,0
DA:565,0
DA:564,6
DA:565,6
DA:590,0
DA:594,0
DA:595,0
DA:605,0
DA:590,6
DA:594,6
DA:595,6
DA:599,0
DA:601,0
DA:602,0
DA:603,0
DA:605,6
DA:609,0
DA:611,0
DA:612,0
DA:613,0
DA:609,6
DA:611,6
DA:612,6
DA:613,6
DA:618,0
DA:623,0
DA:624,0
DA:626,0
DA:618,6
DA:623,6
DA:624,6
DA:626,6
DA:629,0
DA:631,0
DA:632,0
DA:633,0
DA:629,6
DA:631,6
DA:632,6
DA:633,6
DA:637,0
DA:645,0
DA:646,0
DA:647,0
DA:648,0
DA:649,0
DA:667,1
DA:671,1
DA:672,1
DA:674,0
DA:676,0
DA:677,0
DA:678,0
DA:710,0
DA:711,0
DA:714,0
DA:715,0
DA:718,5
DA:719,5
DA:718,0
DA:719,0
DA:726,4
DA:727,4
DA:726,0
DA:727,0
DA:734,0
DA:735,0
DA:734,15
DA:735,15
DA:738,0
DA:739,0
DA:738,15
DA:739,15
DA:742,3
DA:745,3
DA:749,24
DA:750,24
DA:749,0
DA:750,0
DA:753,3
DA:754,3
DA:757,56
DA:775,56
DA:779,0
DA:780,0
DA:779,17
DA:780,17
DA:783,3
DA:784,3
DA:787,0
DA:788,0
DA:787,17
DA:788,17
DA:791,2
DA:792,2
DA:795,13
DA:796,13
DA:799,0
DA:800,0
DA:807,0
DA:808,0
DA:887,0
DA:890,0
DA:891,0
DA:892,0
DA:893,0
DA:894,0
DA:898,0
DA:900,0
DA:901,0
DA:928,1
DA:935,0
DA:936,0
DA:938,0
DA:939,0
DA:940,0
DA:983,0
DA:984,0
DA:983,1
DA:984,1
DA:991,7
DA:992,7
DA:995,4
DA:996,4
DA:1003,12
DA:1004,12
DA:1007,6
DA:1008,6
DA:1031,9
DA:1032,9
DA:1252,0
DA:1254,0
DA:1255,0
DA:1256,0
DA:1269,10
DA:1270,10
DA:1845,0
DA:1849,0
DA:1850,0
DA:1854,0
DA:1855,0
DA:1856,0
DA:1857,0
DA:1858,0
DA:1860,0
DA:1862,0
DA:1863,0
DA:1864,0
DA:1865,0
DA:1866,0
DA:1868,0
DA:1869,0
DA:1872,0
DA:1874,0
DA:1875,0
DA:1877,0
DA:1883,0
DA:1887,0
DA:1889,0
DA:1890,0
DA:1891,0
DA:1892,0
DA:1894,0
DA:1883,4
DA:1887,7
DA:1889,3
DA:1890,3
DA:1891,3
DA:1892,3
DA:1894,4
DA:1900,13
DA:1904,29
DA:1905,16
DA:1906,8
DA:1908,8
DA:1909,13
DA:1916,3
DA:1920,8
DA:1921,5
DA:1922,3
DA:1924,2
DA:1925,3
DA:1932,3
DA:1936,3
DA:1937,0
DA:1938,0
DA:1940,0
DA:1941,3
DA:1966,3
DA:1969,3
DA:1970,3
DA:1971,7
DA:1973,7
DA:1974,1
DA:1975,6
DA:1976,3
DA:1979,3
DA:1980,3
DA:1981,3
DA:1982,3
DA:1983,3
DA:1984,3
DA:1985,6
DA:1988,0
DA:1989,0
DA:2061,1
DA:2065,1
DA:2066,1
DA:2067,1
DA:2068,1
DA:2070,0
DA:2071,0
DA:2072,0
DA:2074,1
DA:2075,1
DA:2077,1
DA:2078,1
DA:2080,0
DA:2082,0
DA:2083,0
DA:2084,0
DA:2163,6
DA:2167,6
DA:2171,6
DA:2173,3
DA:2174,3
DA:2175,2
DA:2177,1
DA:2179,3
DA:2182,3
DA:2183,3
DA:2184,1
DA:2185,2
DA:2187,2
DA:2188,1
DA:2190,1
DA:2193,0
DA:2195,0
DA:2198,0
DA:2199,0
DA:2200,0
DA:2201,0
DA:2203,0
DA:2204,0
DA:2206,0
DA:2209,0
DA:2213,0
DA:2330,6
DA:2333,4
DA:2334,10
DA:2337,6
DA:2338,6
DA:2339,6
DA:2340,6
DA:2428,6
DA:2431,6
DA:2435,6
DA:2437,6
DA:2438,6
DA:2440,0
DA:2441,0
DA:2443,0
DA:2445,0
DA:2446,0
DA:2480,3
DA:2485,3
DA:2486,3
DA:2487,3
DA:2488,3
DA:2489,3
DA:2494,3
DA:2497,3
DA:2498,0
DA:2500,6
DA:2501,3
DA:2502,3
DA:2507,3
DA:2510,3
DA:2511,3
DA:2512,3
DA:2513,3
DA:2533,3
DA:2536,3
DA:2537,6
DA:2538,3
DA:2539,9
end_of_record
SF:/usr/include/c++/11/bits/cpp_type_traits.h
FN:560,_ZSt12__miter_baseIN9__gnu_cxx17__normal_iteratorIPKmSt6vectorImSaImEEEEET_S8_
FNDA:0,_ZSt12__miter_baseIN9__gnu_cxx17__normal_iteratorIPKmSt6vectorImSaImEEEEET_S8_
DA:560,0
DA:561,0
end_of_record
SF:/usr/include/c++/11/bits/allocator.h
FN:156,_ZNSaISt6vectorImSaImEEEC2Ev
FNDA:0,_ZNSaISt6vectorImSaImEEEC2Ev
FN:156,_ZNSaIiEC2Ev
FNDA:0,_ZNSaIiEC2Ev
FN:156,_ZNSaISt13_Rb_tree_nodeISt4pairIKS0_ImiEmEEEC2Ev
FNDA:1,_ZNSaISt13_Rb_tree_nodeISt4pairIKS0_ImiEmEEEC2Ev
FN:156,_ZNSaISt4pairImiEEC2Ev
FNDA:1,_ZNSaISt4pairImiEEC2Ev
FN:156,_ZNSaIbEC2Ev
FNDA:0,_ZNSaIbEC2Ev
FN:159,_ZNSaI4EdgeEC2ERKS0_
FNDA:0,_ZNSaI4EdgeEC2ERKS0_
FN:159,_ZNSaImEC2ERKS_
FNDA:0,_ZNSaImEC2ERKS_
FN:159,_ZNSaISt13_Rb_tree_nodeISt4pairIKmmEEEC2ERKS4_
FNDA:0,_ZNSaISt13_Rb_tree_nodeISt4pairIKmmEEEC2ERKS4_
FN:159,_ZNSaISt6vectorImSaImEEEC2ERKS2_
FNDA:0,_ZNSaISt6vectorImSaImEEEC2ERKS2_
FN:159,_ZNSaIiEC2ERKS_
FNDA:6,_ZNSaIiEC2ERKS_
FN:169,_ZNSaImEC2IbEERKSaIT_E
FNDA:0,_ZNSaImEC2IbEERKSaIT_E
FN:174,_ZNSaISt4pairImiEED2Ev
FNDA:1,_ZNSaISt4pairImiEED2Ev
FN:174,_ZNSaISt13_Rb_tree_nodeISt4pairIKS0_ImiEmEEED2Ev
FNDA:1,_ZNSaISt13_Rb_tree_nodeISt4pairIKS0_ImiEmEEED2Ev
FN:174,_ZNSaIiED2Ev
FNDA:0,_ZNSaIiED2Ev
FN:174,_ZNSaIbED2Ev
FNDA:0,_ZNSaIbED2Ev
FN:174,_ZNSaISt6vectorImSaImEEED2Ev
FNDA:0,_ZNSaISt6vectorImSaImEEED2Ev
FN:174,_ZNSaI4EdgeED2Ev
FNDA:0,_ZNSaI4EdgeED2Ev
FN:174,_ZNSaISt13_Rb_tree_nodeISt4pairIKmmEEED2Ev
FNDA:0,_ZNSaISt13_Rb_tree_nodeISt4pairIKmmEEED2Ev
FN:174,_ZNSaImED2Ev
FNDA:0,_ZNSaImED2Ev
DA:156,0
DA:156,1
DA:156,1
DA:156,0
DA:156,0
DA:159,0
DA:160,0
DA:159,0
DA:160,0
DA:159,0
DA:160,0
DA:159,0
DA:160,0
DA:159,6
DA:160,6
DA:169,0
DA:174,0
DA:174,0
DA:174,0
DA:174,0
DA:174,0
DA:174,0
DA:174,1
DA:174,1
end_of_record
SF:/home/imri/OS-FinalProject/MST/MST_Strategy.hpp
FN:8,_ZN12MST_StrategyD0Ev
FNDA:0,_ZN12MST_StrategyD0Ev
FN:8,_ZN12MST_StrategyD2Ev
FNDA:0,_ZN12MST_StrategyD2Ev
DA:8,0
DA:8,0
end_of_record
SF:/usr/include/c++/11/tuple
FN:192,_ZNSt10_Head_baseILm1ERSt6vectorIS0_ImSaImEESaIS2_EELb0EEC2ES5_
FNDA:0,_ZNSt10_Head_baseILm1ERSt6vectorIS0_ImSaImEESaIS2_EELb0EEC2ES5_
FN:192,_ZNSt10_Head_baseILm0ERKSt4pairImiELb0EEC2ES3_
FNDA:6,_ZNSt10_Head_baseILm0ERKSt4pairImiELb0EEC2ES3_
FN:192,_ZNSt10_Head_baseILm0ERSt6vectorIS0_ImSaImEESaIS2_EELb0EEC2ES5_
FNDA:0,_ZNSt10_Head_baseILm0ERSt6vectorIS0_ImSaImEESaIS2_EELb0EEC2ES5_
FN:233,_ZNSt10_Head_baseILm0ERSt6vectorIS0_ImSaImEESaIS2_EELb0EE7_M_headERS6_
FNDA:0,_ZNSt10_Head_baseILm0ERSt6vectorIS0_ImSaImEESaIS2_EELb0EE7_M_headERS6_
FN:233,_ZNSt10_Head_baseILm1ERSt6vectorIS0_ImSaImEESaIS2_EELb0EE7_M_headERS6_
FNDA:0,_ZNSt10_Head_baseILm1ERSt6vectorIS0_ImSaImEESaIS2_EELb0EE7_M_headERS6_
FN:233,_ZNSt10_Head_baseILm0ERKSt4pairImiELb0EE7_M_headERS4_
FNDA:6,_ZNSt10_Head_baseILm0ERKSt4pairImiELb0EE7_M_headERS4_
FN:268,_ZNSt11_Tuple_implILm0EJRSt6vectorIS0_ImSaImEESaIS2_EES5_EE7_M_headERS6_
FNDA:0,_ZNSt11_Tuple_implILm0EJRSt6vectorIS0_ImSaImEESaIS2_EES5_EE7_M_headERS6_
FN:274,_ZNSt11_Tuple_implILm0EJRSt6vectorIS0_ImSaImEESaIS2_EES5_EE7_M_tailERS6_
FNDA:0,_ZNSt11_Tuple_implILm0EJRSt6vectorIS0_ImSaImEESaIS2_EES5_EE7_M_tailERS6_
FN:283,_ZNSt11_Tuple_implILm0EJRSt6vectorIS0_ImSaImEESaIS2_EES5_EEC2ES5_S5_
FNDA:0,_ZNSt11_Tuple_implILm0EJRSt6vectorIS0_ImSaImEESaIS2_EES5_EEC2ES5_S5_
FN:424,_ZNSt11_Tuple_implILm0EJRKSt4pairImiEEE7_M_headERS4_
FNDA:6,_ZNSt11_Tuple_implILm0EJRKSt4pairImiEEE7_M_headERS4_
FN:424,_ZNSt11_Tuple_implILm1EJRSt6vectorIS0_ImSaImEESaIS2_EEEE7_M_headERS6_
FNDA:0,_ZNSt11_Tuple_implILm1EJRSt6vectorIS0_ImSaImEESaIS2_EEEE7_M_headERS6_
FN:434,_ZNSt11_Tuple_implILm1EJRSt6vectorIS0_ImSaImEESaIS2_EEEEC2ES5_
FNDA:0,_ZNSt11_Tuple_implILm1EJRSt6vectorIS0_ImSaImEESaIS2_EEEEC2ES5_
FN:434,_ZNSt11_Tuple_implILm0EJRKSt4pairImiEEEC2ES3_
FNDA:6,_ZNSt11_Tuple_implILm0EJRKSt4pairImiEEEC2ES3_
FN:454,_ZNSt11_Tuple_implILm0EJRKSt4pairImiEEEC2EOS4_
FNDA:6,_ZNSt11_Tuple_implILm0EJRKSt4pairImiEEEC2EOS4_
FN:727,_ZNSt5tupleIJRKSt4pairImiEEEC2ILb1ELb1EEES3_
FNDA:6,_ZNSt5tupleIJRKSt4pairImiEEEC2ILb1ELb1EEES3_
FN:756,_ZNSt5tupleIJRKSt4pairImiEEEC2EOS4_
FNDA:6,_ZNSt5tupleIJRKSt4pairImiEEEC2EOS4_
FN:1063,_ZNSt5tupleIJRSt6vectorIS0_ImSaImEESaIS2_EES5_EEC2ILb1ELb1EEES5_S5_
FNDA:0,_ZNSt5tupleIJRSt6vectorIS0_ImSaImEESaIS2_EES5_EEC2ILb1ELb1EEES5_S5_
FN:1321,_ZNSt5tupleIJRSt6vectorIS0_ImSaImEESaIS2_EES5_EEaSIS4_S4_EENSt9enable_ifIXcl12__assignableIT_T0_EEERS6_E4typeEOSt4pairIS9_SA_E
FNDA:0,_ZNSt5tupleIJRSt6vectorIS0_ImSaImEESaIS2_EES5_EEaSIS4_S4_EENSt9enable_ifIXcl12__assignableIT_T0_EEERS6_E4typeEOSt4pairIS9_SA_E
FN:1377,_ZSt12__get_helperILm0ERKSt4pairImiEJEERT0_RSt11_Tuple_implIXT_EJS4_DpT1_EE
FNDA:6,_ZSt12__get_helperILm0ERKSt4pairImiEJEERT0_RSt11_Tuple_implIXT_EJS4_DpT1_EE
FN:1393,_ZSt3getILm0EJRKSt4pairImiEEERNSt13tuple_elementIXT_ESt5tupleIJDpT0_EEE4typeERS8_
FNDA:6,_ZSt3getILm0EJRKSt4pairImiEEERNSt13tuple_elementIXT_ESt5tupleIJDpT0_EEE4typeERS8_
FN:1746,_ZSt3tieIJSt6vectorIS0_ImSaImEESaIS2_EES4_EESt5tupleIJDpRT_EES8_
FNDA:0,_ZSt3tieIJSt6vectorIS0_ImSaImEESaIS2_EES4_EESt5tupleIJDpRT_EES8_
FN:1804,_ZNSt4pairIKS_ImiEmEC2IJRS1_EJEEESt21piecewise_construct_tSt5tupleIJDpT_EES6_IJDpT0_EE
FNDA:6,_ZNSt4pairIKS_ImiEmEC2IJRS1_EJEEESt21piecewise_construct_tSt5tupleIJDpT_EES6_IJDpT0_EE
FN:1816,_ZNSt4pairIKS_ImiEmEC2IJRS1_EJLm0EEJEJEEERSt5tupleIJDpT_EERS5_IJDpT1_EESt12_Index_tupleIJXspT0_EEESE_IJXspT2_EEE
FNDA:6,_ZNSt4pairIKS_ImiEmEC2IJRS1_EJLm0EEJEJEEERSt5tupleIJDpT_EERS5_IJDpT1_EESt12_Index_tupleIJXspT0_EEESE_IJXspT2_EEE
DA:192,0
DA:193,0
DA:192,6
DA:193,6
DA:192,0
DA:193,0
DA:233,6
DA:233,0
DA:233,0
DA:268,0
DA:274,0
DA:283,0
DA:284,0
DA:285,0
DA:424,6
DA:424,0
DA:434,0
DA:435,0
DA:436,0
DA:434,6
DA:435,6
DA:436,6
DA:454,6
DA:456,6
DA:457,6
DA:727,6
DA:729,6
DA:756,6
DA:1063,0
DA:1065,0
DA:1321,0
DA:1324,0
DA:1325,0
DA:1326,0
DA:1377,6
DA:1378,6
DA:1393,6
DA:1394,6
DA:1746,0
DA:1747,0
DA:1804,6
DA:1809,6
DA:1810,6
DA:1816,6
DA:1819,6
DA:1820,6
DA:1821,6
end_of_record
SF:/usr/include/c++/11/bits/stl_construct.h
FN:109,_ZSt10_ConstructISt6vectorImSaImEEJRKS2_EEvPT_DpOT0_
FNDA:0,_ZSt10_ConstructISt6vectorImSaImEEJRKS2_EEvPT_DpOT0_
FN:109,_ZSt10_ConstructI4EdgeJRKS0_EEvPT_DpOT0_
FNDA:0,_ZSt10_ConstructI4EdgeJRKS0_EEvPT_DpOT0_
FN:146,_ZSt8_DestroyISt6vectorImSaImEEEvPT_
FNDA:0,_ZSt8_DestroyISt6vectorImSaImEEEvPT_
FN:146,_ZSt8_DestroyI4EdgeEvPT_
FNDA:0,_ZSt8_DestroyI4EdgeEvPT_
FN:160,_ZNSt12_Destroy_auxILb0EE9__destroyIPSt6vectorImSaImEEEEvT_S6_
FNDA:0,_ZNSt12_Destroy_auxILb0EE9__destroyIPSt6vectorImSaImEEEEvT_S6_
FN:160,_ZNSt12_Destroy_auxILb0EE9__destroyIP4EdgeEEvT_S4_
FNDA:0,_ZNSt12_Destroy_auxILb0EE9__destroyIP4EdgeEEvT_S4_
FN:172,_ZNSt12_Destroy_auxILb1EE9__destroyIPmEEvT_S3_
FNDA:0,_ZNSt12_Destroy_auxILb1EE9__destroyIPmEEvT_S3_
FN:172,_ZNSt12_Destroy_auxILb1EE9__destroyIPiEEvT_S3_
FNDA:0,_ZNSt12_Destroy_auxILb1EE9__destroyIPiEEvT_S3_
FN:172,_ZNSt12_Destroy_auxILb1EE9__destroyIPSt4pairImiEEEvT_S5_
FNDA:1,_ZNSt12_Destroy_auxILb1EE9__destroyIPSt4pairImiEEEvT_S5_
FN:182,_ZSt8_DestroyIPmEvT_S1_
FNDA:0,_ZSt8_DestroyIPmEvT_S1_
FN:182,_ZSt8_DestroyIPSt6vectorImSaImEEEvT_S4_
FNDA:0,_ZSt8_DestroyIPSt6vectorImSaImEEEvT_S4_
FN:182,_ZSt8_DestroyIP4EdgeEvT_S2_
FNDA:0,_ZSt8_DestroyIP4EdgeEvT_S2_
FN:182,_ZSt8_DestroyIPiEvT_S1_
FNDA:0,_ZSt8_DestroyIPiEvT_S1_
FN:182,_ZSt8_DestroyIPSt4pairImiEEvT_S3_
FNDA:1,_ZSt8_DestroyIPSt4pairImiEEvT_S3_
DA:109,0
DA:119,0
DA:120,0
DA:109,0
DA:119,0
DA:120,0
DA:146,0
DA:151,0
DA:153,0
DA:146,0
DA:151,0
DA:153,0
DA:160,0
DA:162,0
DA:163,0
DA:164,0
DA:160,0
DA:162,0
DA:163,0
DA:164,0
DA:172,0
DA:172,0
DA:172,1
DA:182,0
DA:196,0
DA:197,0
DA:182,0
DA:196,0
DA:197,0
DA:182,0
DA:196,0
DA:197,0
DA:182,0
DA:196,0
DA:197,0
DA:182,1
DA:196,1
DA:197,1
end_of_record
SF:/usr/include/c++/11/new
FN:174,_ZnwmPv
FNDA:0,_ZnwmPv
FN:180,_ZdlPvS_
FNDA:0,_ZdlPvS_
DA:174,0
DA:175,0
DA:180,0
end_of_record
SF:/usr/include/c++/11/bits/stl_bvector.h
FN:77,_ZNSt14_Bit_referenceC2EPmm
FNDA:0,_ZNSt14_Bit_referenceC2EPmm
FN:86,_ZNKSt14_Bit_referencecvbEv
FNDA:0,_ZNKSt14_Bit_referencecvbEv
FN:90,_ZNSt14_Bit_referenceaSEb
FNDA:0,_ZNSt14_Bit_referenceaSEb
FN:148,_ZNSt18_Bit_iterator_baseC2EPmj
FNDA:0,_ZNSt18_Bit_iterator_baseC2EPmj
FN:172,_ZNSt18_Bit_iterator_base7_M_incrEl
FNDA:0,_ZNSt18_Bit_iterator_base7_M_incrEl
FN:241,_ZNSt13_Bit_iteratorC2Ev
FNDA:0,_ZNSt13_Bit_iteratorC2Ev
FN:243,_ZNSt13_Bit_iteratorC2EPmj
FNDA:0,_ZNSt13_Bit_iteratorC2EPmj
FN:251,_ZNKSt13_Bit_iteratordeEv
FNDA:0,_ZNKSt13_Bit_iteratordeEv
FN:285,_ZNSt13_Bit_iteratorpLEl
FNDA:0,_ZNSt13_Bit_iteratorpLEl
FN:299,_ZNKSt13_Bit_iteratorixEl
FNDA:0,_ZNKSt13_Bit_iteratorixEl
FN:303,_ZStplRKSt13_Bit_iteratorl
FNDA:0,_ZStplRKSt13_Bit_iteratorl
FN:443,_ZNSt13_Bvector_baseISaIbEE18_Bvector_impl_dataC2Ev
FNDA:0,_ZNSt13_Bvector_baseISaIbEE18_Bvector_impl_dataC2Ev
FN:465,_ZNSt13_Bvector_baseISaIbEE18_Bvector_impl_data8_M_resetEv
FNDA:0,_ZNSt13_Bvector_baseISaIbEE18_Bvector_impl_data8_M_resetEv
FN:485,_ZNSt13_Bvector_baseISaIbEE13_Bvector_implC2ERKSaImE
FNDA:0,_ZNSt13_Bvector_baseISaIbEE13_Bvector_implC2ERKSaImE
FN:502,_ZNKSt13_Bvector_baseISaIbEE13_Bvector_impl11_M_end_addrEv
FNDA:0,_ZNKSt13_Bvector_baseISaIbEE13_Bvector_impl11_M_end_addrEv
FN:531,_ZNSt13_Bvector_baseISaIbEEC2ERKS0_
FNDA:0,_ZNSt13_Bvector_baseISaIbEEC2ERKS0_
FN:542,_ZNSt13_Bvector_baseISaIbEED2Ev
FNDA:0,_ZNSt13_Bvector_baseISaIbEED2Ev
FN:549,_ZNSt13_Bvector_baseISaIbEE11_M_allocateEm
FNDA:0,_ZNSt13_Bvector_baseISaIbEE11_M_allocateEm
FN:553,_ZNSt13_Bvector_baseISaIbEE13_M_deallocateEv
FNDA:0,_ZNSt13_Bvector_baseISaIbEE13_M_deallocateEv
FN:572,_ZNSt13_Bvector_baseISaIbEE8_S_nwordEm
FNDA:0,_ZNSt13_Bvector_baseISaIbEE8_S_nwordEm
FN:647,_ZNSt6vectorIbSaIbEEC2EmRKbRKS0_
FNDA:0,_ZNSt6vectorIbSaIbEEC2EmRKbRKS0_
FN:733,_ZNSt6vectorIbSaIbEED2Ev
FNDA:0,_ZNSt6vectorIbSaIbEED2Ev
FN:831,_ZNSt6vectorIbSaIbEE5beginEv
FNDA:0,_ZNSt6vectorIbSaIbEE5beginEv
FN:906,_ZNSt6vectorIbSaIbEEixEm
FNDA:0,_ZNSt6vectorIbSaIbEEixEm
FN:1137,_ZNSt6vectorIbSaIbEE13_M_initializeEm
FNDA:0,_ZNSt6vectorIbSaIbEE13_M_initializeEm
FN:1150,_ZNSt6vectorIbSaIbEE19_M_initialize_valueEb
FNDA:0,_ZNSt6vectorIbSaIbEE19_M_initialize_valueEb
DA:77,0
DA:78,0
DA:86,0
DA:87,0
DA:90,0
DA:92,0
DA:93,0
DA:95,0
DA:96,0
DA:148,0
DA:149,0
DA:172,0
DA:174,0
DA:175,0
DA:176,0
DA:177,0
DA:179,0
DA:180,0
DA:182,0
DA:183,0
DA:241,0
DA:243,0
DA:244,0
DA:251,0
DA:252,0
DA:285,0
DA:287,0
DA:288,0
DA:299,0
DA:300,0
DA:303,0
DA:305,0
DA:306,0
DA:307,0
DA:443,0
DA:444,0
DA:445,0
DA:465,0
DA:466,0
DA:485,0
DA:486,0
DA:487,0
DA:502,0
DA:504,0
DA:505,0
DA:506,0
DA:531,0
DA:532,0
DA:542,0
DA:543,0
DA:549,0
DA:550,0
DA:553,0
DA:555,0
DA:557,0
DA:558,0
DA:559,0
DA:561,0
DA:563,0
DA:572,0
DA:573,0
DA:647,0
DA:654,0
DA:656,0
DA:657,0
DA:658,0
DA:733,0
DA:831,0
DA:832,0
DA:906,0
DA:907,0
DA:1137,0
DA:1139,0
DA:1141,0
DA:1142,0
DA:1143,0
DA:1144,0
DA:1145,0
DA:1147,0
DA:1150,0
DA:1152,0
DA:1153,0
DA:1154,0
DA:1156,0
end_of_record
SF:/home/imri/OS-FinalProject/MST/Prim.hpp
end_of_record
SF:/usr/include/c++/11/ext/new_allocator.h
FN:79,_ZN9__gnu_cxx13new_allocatorImEC2Ev
FNDA:0,_ZN9__gnu_cxx13new_allocatorImEC2Ev
FN:79,_ZN9__gnu_cxx13new_allocatorIiEC2Ev
FNDA:0,_ZN9__gnu_cxx13new_allocatorIiEC2Ev
FN:79,_ZN9__gnu_cxx13new_allocatorISt6vectorImSaImEEEC2Ev
FNDA:0,_ZN9__gnu_cxx13new_allocatorISt6vectorImSaImEEEC2Ev
FN:79,_ZN9__gnu_cxx13new_allocatorIbEC2Ev
FNDA:0,_ZN9__gnu_cxx13new_allocatorIbEC2Ev
FN:79,_ZN9__gnu_cxx13new_allocatorISt13_Rb_tree_nodeISt4pairIKS2_ImiEmEEEC2Ev
FNDA:1,_ZN9__gnu_cxx13new_allocatorISt13_Rb_tree_nodeISt4pairIKS2_ImiEmEEEC2Ev
FN:79,_ZN9__gnu_cxx13new_allocatorISt4pairImiEEC2Ev
FNDA:1,_ZN9__gnu_cxx13new_allocatorISt4pairImiEEC2Ev
FN:82,_ZN9__gnu_cxx13new_allocatorIiEC2ERKS1_
FNDA:6,_ZN9__gnu_cxx13new_allocatorIiEC2ERKS1_
FN:82,_ZN9__gnu_cxx13new_allocatorISt13_Rb_tree_nodeISt4pairIKmmEEEC2ERKS6_
FNDA:0,_ZN9__gnu_cxx13new_allocatorISt13_Rb_tree_nodeISt4pairIKmmEEEC2ERKS6_
FN:82,_ZN9__gnu_cxx13new_allocatorImEC2ERKS1_
FNDA:0,_ZN9__gnu_cxx13new_allocatorImEC2ERKS1_
FN:82,_ZN9__gnu_cxx13new_allocatorI4EdgeEC2ERKS2_
FNDA:0,_ZN9__gnu_cxx13new_allocatorI4EdgeEC2ERKS2_
FN:82,_ZN9__gnu_cxx13new_allocatorISt6vectorImSaImEEEC2ERKS4_
FNDA:0,_ZN9__gnu_cxx13new_allocatorISt6vectorImSaImEEEC2ERKS4_
FN:89,_ZN9__gnu_cxx13new_allocatorISt4pairImiEED2Ev
FNDA:1,_ZN9__gnu_cxx13new_allocatorISt4pairImiEED2Ev
FN:89,_ZN9__gnu_cxx13new_allocatorImED2Ev
FNDA:0,_ZN9__gnu_cxx13new_allocatorImED2Ev
FN:89,_ZN9__gnu_cxx13new_allocatorISt13_Rb_tree_nodeISt4pairIKmmEEED2Ev
FNDA:0,_ZN9__gnu_cxx13new_allocatorISt13_Rb_tree_nodeISt4pairIKmmEEED2Ev
FN:89,_ZN9__gnu_cxx13new_allocatorI4EdgeED2Ev
FNDA:0,_ZN9__gnu_cxx13new_allocatorI4EdgeED2Ev
FN:89,_ZN9__gnu_cxx13new_allocatorISt6vectorImSaImEEED2Ev
FNDA:0,_ZN9__gnu_cxx13new_allocatorISt6vectorImSaImEEED2Ev
FN:89,_ZN9__gnu_cxx13new_allocatorISt13_Rb_tree_nodeISt4pairIKS2_ImiEmEEED2Ev
FNDA:1,_ZN9__gnu_cxx13new_allocatorISt13_Rb_tree_nodeISt4pairIKS2_ImiEmEEED2Ev
FN:89,_ZN9__gnu_cxx13new_allocatorIbED2Ev
FNDA:0,_ZN9__gnu_cxx13new_allocatorIbED2Ev
FN:89,_ZN9__gnu_cxx13new_allocatorIiED2Ev
FNDA:0,_ZN9__gnu_cxx13new_allocatorIiED2Ev
FN:103,_ZN9__gnu_cxx13new_allocatorIiE8allocateEmPKv
FNDA:0,_ZN9__gnu_cxx13new_allocatorIiE8allocateEmPKv
FN:103,_ZN9__gnu_cxx13new_allocatorISt13_Rb_tree_nodeISt4pairIKmmEEE8allocateEmPKv
FNDA:0,_ZN9__gnu_cxx13new_allocatorISt13_Rb_tree_nodeISt4pairIKmmEEE8allocateEmPKv
FN:103,_ZN9__gnu_cxx13new_allocatorISt4pairImiEE8allocateEmPKv
FNDA:3,_ZN9__gnu_cxx13new_allocatorISt4pairImiEE8allocateEmPKv
FN:103,_ZN9__gnu_cxx13new_allocatorImE8allocateEmPKv
FNDA:0,_ZN9__gnu_cxx13new_allocatorImE8allocateEmPKv
FN:103,_ZN9__gnu_cxx13new_allocatorISt6vectorImSaImEEE8allocateEmPKv
FNDA:0,_ZN9__gnu_cxx13new_allocatorISt6vectorImSaImEEE8allocateEmPKv
FN:103,_ZN9__gnu_cxx13new_allocatorI4EdgeE8allocateEmPKv
FNDA:0,_ZN9__gnu_cxx13new_allocatorI4EdgeE8allocateEmPKv
FN:103,_ZN9__gnu_cxx13new_allocatorISt13_Rb_tree_nodeISt4pairIKS2_ImiEmEEE8allocateEmPKv
FNDA:6,_ZN9__gnu_cxx13new_allocatorISt13_Rb_tree_nodeISt4pairIKS2_ImiEmEEE8allocateEmPKv
FN:132,_ZN9__gnu_cxx13new_allocatorImE10deallocateEPmm
FNDA:0,_ZN9__gnu_cxx13new_allocatorImE10deallocateEPmm
FN:132,_ZN9__gnu_cxx13new_allocatorISt4pairImiEE10deallocateEPS2_m
FNDA:3,_ZN9__gnu_cxx13new_allocatorISt4pairImiEE10deallocateEPS2_m
FN:132,_ZN9__gnu_cxx13new_allocatorISt6vectorImSaImEEE10deallocateEPS3_m
FNDA:0,_ZN9__gnu_cxx13new_allocatorISt6vectorImSaImEEE10deallocateEPS3_m
FN:132,_ZN9__gnu_cxx13new_allocatorIiE10deallocateEPim
FNDA:0,_ZN9__gnu_cxx13new_allocatorIiE10deallocateEPim
FN:132,_ZN9__gnu_cxx13new_allocatorI4EdgeE10deallocateEPS1_m
FNDA:0,_ZN9__gnu_cxx13new_allocatorI4EdgeE10deallocateEPS1_m
FN:132,_ZN9__gnu_cxx13new_allocatorISt13_Rb_tree_nodeISt4pairIKmmEEE10deallocateEPS5_m
FNDA:0,_ZN9__gnu_cxx13new_allocatorISt13_Rb_tree_nodeISt4pairIKmmEEE10deallocateEPS5_m
FN:132,_ZN9__gnu_cxx13new_allocatorISt13_Rb_tree_nodeISt4pairIKS2_ImiEmEEE10deallocateEPS6_m
FNDA:6,_ZN9__gnu_cxx13new_allocatorISt13_Rb_tree_nodeISt4pairIKS2_ImiEmEEE10deallocateEPS6_m
FN:154,_ZNK9__gnu_cxx13new_allocatorIiE8max_sizeEv
FNDA:0,_ZNK9__gnu_cxx13new_allocatorIiE8max_sizeEv
FN:154,_ZNK9__gnu_cxx13new_allocatorISt4pairImiEE8max_sizeEv
FNDA:6,_ZNK9__gnu_cxx13new_allocatorISt4pairImiEE8max_sizeEv
FN:160,_ZN9__gnu_cxx13new_allocatorISt13_Rb_tree_nodeISt4pairIKmmEEE9constructIS4_JRKS4_EEEvPT_DpOT0_
FNDA:0,_ZN9__gnu_cxx13new_allocatorISt13_Rb_tree_nodeISt4pairIKmmEEE9constructIS4_JRKS4_EEEvPT_DpOT0_
FN:160,_ZN9__gnu_cxx13new_allocatorISt4pairImiEE9constructIS2_JRKS2_EEEvPT_DpOT0_
FNDA:3,_ZN9__gnu_cxx13new_allocatorISt4pairImiEE9constructIS2_JRKS2_EEEvPT_DpOT0_
FN:160,_ZN9__gnu_cxx13new_allocatorISt13_Rb_tree_nodeISt4pairIKS2_ImiEmEEE9constructIS5_JRKSt21piecewise_construct_tSt5tupleIJRS4_EESC_IJEEEEEvPT_DpOT0_
FNDA:6,_ZN9__gnu_cxx13new_allocatorISt13_Rb_tree_nodeISt4pairIKS2_ImiEmEEE9constructIS5_JRKSt21piecewise_construct_tSt5tupleIJRS4_EESC_IJEEEEEvPT_DpOT0_
FN:160,_ZN9__gnu_cxx13new_allocatorISt4pairImiEE9constructIS2_JS2_EEEvPT_DpOT0_
FNDA:3,_ZN9__gnu_cxx13new_allocatorISt4pairImiEE9constructIS2_JS2_EEEvPT_DpOT0_
FN:166,_ZN9__gnu_cxx13new_allocatorISt4pairImiEE7destroyIS2_EEvPT_
FNDA:6,_ZN9__gnu_cxx13new_allocatorISt4pairImiEE7destroyIS2_EEvPT_
FN:166,_ZN9__gnu_cxx13new_allocatorISt13_Rb_tree_nodeISt4pairIKS2_ImiEmEEE7destroyIS5_EEvPT_
FNDA:6,_ZN9__gnu_cxx13new_allocatorISt13_Rb_tree_nodeISt4pairIKS2_ImiEmEEE7destroyIS5_EEvPT_
FN:166,_ZN9__gnu_cxx13new_allocatorISt13_Rb_tree_nodeISt4pairIKmmEEE7destroyIS4_EEvPT_
FNDA:0,_ZN9__gnu_cxx13new_allocatorISt13_Rb_tree_nodeISt4pairIKmmEEE7destroyIS4_EEvPT_
FN:197,_ZNK9__gnu_cxx13new_allocatorImE11_M_max_sizeEv
FNDA:0,_ZNK9__gnu_cxx13new_allocatorImE11_M_max_sizeEv
FN:197,_ZNK9__gnu_cxx13new_allocatorIiE11_M_max_sizeEv
FNDA:0,_ZNK9__gnu_cxx13new_allocatorIiE11_M_max_sizeEv
FN:197,_ZNK9__gnu_cxx13new_allocatorI4EdgeE11_M_max_sizeEv
FNDA:0,_ZNK9__gnu_cxx13new_allocatorI4EdgeE11_M_max_sizeEv
FN:197,_ZNK9__gnu_cxx13new_allocatorISt4pairImiEE11_M_max_sizeEv
FNDA:9,_ZNK9__gnu_cxx13new_allocatorISt4pairImiEE11_M_max_sizeEv
FN:197,_ZNK9__gnu_cxx13new_allocatorISt6vectorImSaImEEE11_M_max_sizeEv
FNDA:0,_ZNK9__gnu_cxx13new_allocatorISt6vectorImSaImEEE11_M_max_sizeEv
FN:197,_ZNK9__gnu_cxx13new_allocatorISt13_Rb_tree_nodeISt4pairIKS2_ImiEmEEE11_M_max_sizeEv
FNDA:6,_ZNK9__gnu_cxx13new_allocatorISt13_Rb_tree_nodeISt4pairIKS2_ImiEmEEE11_M_max_sizeEv
FN:197,_ZNK9__gnu_cxx13new_allocatorISt13_Rb_tree_nodeISt4pairIKmmEEE11_M_max_sizeEv
FNDA:0,_ZNK9__gnu_cxx13new_allocatorISt13_Rb_tree_nodeISt4pairIKmmEEE11_M_max_sizeEv
DA:79,0
DA:79,0
DA:79,1
DA:79,1
DA:79,0
DA:79,0
DA:82,0
DA:82,0
DA:82,0
DA:82,0
DA:82,6
DA:89,0
DA:89,0
DA:89,0
DA:89,0
DA:89,0
DA:89,0
DA:89,1
DA:89,1
DA:103,0
DA:111,0
DA:115,0
DA:116,0
DA:117,0
DA:127,0
DA:103,6
DA:111,6
DA:115,0
DA:116,0
DA:117,0
DA:127,6
DA:103,0
DA:111,0
DA:115,0
DA:116,0
DA:117,0
DA:127,0
DA:103,3
DA:111,3
DA:115,0
DA:116,0
DA:117,0
DA:127,3
DA:103,0
DA:111,0
DA:115,0
DA:116,0
DA:117,0
DA:127,0
DA:103,0
DA:111,0
DA:115,0
DA:116,0
DA:117,0
DA:127,0
DA:103,0
DA:111,0
DA:115,0
DA:116,0
DA:117,0
DA:127,0
DA:132,0
DA:145,0
DA:132,6
DA:145,6
DA:132,0
DA:145,0
DA:132,0
DA:145,0
DA:132,0
DA:145,0
DA:132,0
DA:145,0
DA:132,3
DA:145,3
DA:154,6
DA:155,6
DA:154,0
DA:155,0
DA:160,3
DA:162,3
DA:160,0
DA:162,0
DA:160,6
DA:162,6
DA:160,3
DA:162,3
DA:166,0
DA:168,0
DA:166,6
DA:168,6
DA:166,6
DA:168,6
DA:197,0
DA:200,0
DA:197,6
DA:200,6
DA:197,0
DA:200,0
DA:197,9
DA:200,9
DA:197,0
DA:200,0
DA:197,0
DA:200,0
DA:197,0
DA:200,0
end_of_record
SF:/usr/include/c++/11/bits/stl_vector.h
FN:97,_ZNSt12_Vector_baseImSaImEE17_Vector_impl_dataC2Ev
FNDA:0,_ZNSt12_Vector_baseImSaImEE17_Vector_impl_dataC2Ev
FN:97,_ZNSt12_Vector_baseI4EdgeSaIS0_EE17_Vector_impl_dataC2Ev
FNDA:0,_ZNSt12_Vector_baseI4EdgeSaIS0_EE17_Vector_impl_dataC2Ev
FN:97,_ZNSt12_Vector_baseIiSaIiEE17_Vector_impl_dataC2Ev
FNDA:0,_ZNSt12_Vector_baseIiSaIiEE17_Vector_impl_dataC2Ev
FN:97,_ZNSt12_Vector_baseISt6vectorImSaImEESaIS2_EE17_Vector_impl_dataC2Ev
FNDA:0,_ZNSt12_Vector_baseISt6vectorImSaImEESaIS2_EE17_Vector_impl_dataC2Ev
FN:97,_ZNSt12_Vector_baseISt4pairImiESaIS1_EE17_Vector_impl_dataC2Ev
FNDA:1,_ZNSt12_Vector_baseISt4pairImiESaIS1_EE17_Vector_impl_dataC2Ev
FN:109,_ZNSt12_Vector_baseISt6vectorImSaImEESaIS2_EE17_Vector_impl_data12_M_copy_dataERKS5_
FNDA:0,_ZNSt12_Vector_baseISt6vectorImSaImEESaIS2_EE17_Vector_impl_data12_M_copy_dataERKS5_
FN:117,_ZNSt12_Vector_baseISt6vectorImSaImEESaIS2_EE17_Vector_impl_data12_M_swap_dataERS5_
FNDA:0,_ZNSt12_Vector_baseISt6vectorImSaImEESaIS2_EE17_Vector_impl_data12_M_swap_dataERS5_
FN:131,_ZNSt12_Vector_baseISt4pairImiESaIS1_EE12_Vector_implC2Ev
FNDA:1,_ZNSt12_Vector_baseISt4pairImiESaIS1_EE12_Vector_implC2Ev
FN:131,_ZNSt12_Vector_baseISt6vectorImSaImEESaIS2_EE12_Vector_implC2Ev
FNDA:0,_ZNSt12_Vector_baseISt6vectorImSaImEESaIS2_EE12_Vector_implC2Ev
FN:136,_ZNSt12_Vector_baseISt6vectorImSaImEESaIS2_EE12_Vector_implC2ERKS3_
FNDA:0,_ZNSt12_Vector_baseISt6vectorImSaImEESaIS2_EE12_Vector_implC2ERKS3_
FN:136,_ZNSt12_Vector_baseI4EdgeSaIS0_EE12_Vector_implC2ERKS1_
FNDA:0,_ZNSt12_Vector_baseI4EdgeSaIS0_EE12_Vector_implC2ERKS1_
FN:136,_ZNSt12_Vector_baseIiSaIiEE12_Vector_implC2ERKS0_
FNDA:3,_ZNSt12_Vector_baseIiSaIiEE12_Vector_implC2ERKS0_
FN:136,_ZNSt12_Vector_baseImSaImEE12_Vector_implC2ERKS0_
FNDA:0,_ZNSt12_Vector_baseImSaImEE12_Vector_implC2ERKS0_
FN:276,_ZNSt12_Vector_baseISt6vectorImSaImEESaIS2_EE19_M_get_Tp_allocatorEv
FNDA:0,_ZNSt12_Vector_baseISt6vectorImSaImEESaIS2_EE19_M_get_Tp_allocatorEv
FN:276,_ZNSt12_Vector_baseI4EdgeSaIS0_EE19_M_get_Tp_allocatorEv
FNDA:0,_ZNSt12_Vector_baseI4EdgeSaIS0_EE19_M_get_Tp_allocatorEv
FN:276,_ZNSt12_Vector_baseImSaImEE19_M_get_Tp_allocatorEv
FNDA:0,_ZNSt12_Vector_baseImSaImEE19_M_get_Tp_allocatorEv
FN:276,_ZNSt12_Vector_baseIiSaIiEE19_M_get_Tp_allocatorEv
FNDA:0,_ZNSt12_Vector_baseIiSaIiEE19_M_get_Tp_allocatorEv
FN:276,_ZNSt12_Vector_baseISt4pairImiESaIS1_EE19_M_get_Tp_allocatorEv
FNDA:7,_ZNSt12_Vector_baseISt4pairImiESaIS1_EE19_M_get_Tp_allocatorEv
FN:280,_ZNKSt12_Vector_baseISt4pairImiESaIS1_EE19_M_get_Tp_allocatorEv
FNDA:6,_ZNKSt12_Vector_baseISt4pairImiESaIS1_EE19_M_get_Tp_allocatorEv
FN:280,_ZNKSt12_Vector_baseI4EdgeSaIS0_EE19_M_get_Tp_allocatorEv
FNDA:0,_ZNKSt12_Vector_baseI4EdgeSaIS0_EE19_M_get_Tp_allocatorEv
FN:280,_ZNKSt12_Vector_baseISt6vectorImSaImEESaIS2_EE19_M_get_Tp_allocatorEv
FNDA:0,_ZNKSt12_Vector_baseISt6vectorImSaImEESaIS2_EE19_M_get_Tp_allocatorEv
FN:280,_ZNKSt12_Vector_baseImSaImEE19_M_get_Tp_allocatorEv
FNDA:0,_ZNKSt12_Vector_baseImSaImEE19_M_get_Tp_allocatorEv
FN:284,_ZNKSt12_Vector_baseISt6vectorImSaImEESaIS2_EE13get_allocatorEv
FNDA:0,_ZNKSt12_Vector_baseISt6vectorImSaImEESaIS2_EE13get_allocatorEv
FN:288,_ZNSt12_Vector_baseISt6vectorImSaImEESaIS2_EEC2Ev
FNDA:0,_ZNSt12_Vector_baseISt6vectorImSaImEESaIS2_EEC2Ev
FN:288,_ZNSt12_Vector_baseISt4pairImiESaIS1_EEC2Ev
FNDA:1,_ZNSt12_Vector_baseISt4pairImiESaIS1_EEC2Ev
FN:293,_ZNSt12_Vector_baseISt6vectorImSaImEESaIS2_EEC2ERKS3_
FNDA:0,_ZNSt12_Vector_baseISt6vectorImSaImEESaIS2_EEC2ERKS3_
FN:303,_ZNSt12_Vector_baseImSaImEEC2EmRKS0_
FNDA:0,_ZNSt12_Vector_baseImSaImEEC2EmRKS0_
FN:303,_ZNSt12_Vector_baseIiSaIiEEC2EmRKS0_
FNDA:3,_ZNSt12_Vector_baseIiSaIiEEC2EmRKS0_
FN:303,_ZNSt12_Vector_baseI4EdgeSaIS0_EEC2EmRKS1_
FNDA:0,_ZNSt12_Vector_baseI4EdgeSaIS0_EEC2EmRKS1_
FN:303,_ZNSt12_Vector_baseISt6vectorImSaImEESaIS2_EEC2EmRKS3_
FNDA:0,_ZNSt12_Vector_baseISt6vectorImSaImEESaIS2_EEC2EmRKS3_
FN:333,_ZNSt12_Vector_baseISt6vectorImSaImEESaIS2_EED2Ev
FNDA:0,_ZNSt12_Vector_baseISt6vectorImSaImEESaIS2_EED2Ev
FN:333,_ZNSt12_Vector_baseIiSaIiEED2Ev
FNDA:0,_ZNSt12_Vector_baseIiSaIiEED2Ev
FN:333,_ZNSt12_Vector_baseImSaImEED2Ev
FNDA:0,_ZNSt12_Vector_baseImSaImEED2Ev
FN:333,_ZNSt12_Vector_baseI4EdgeSaIS0_EED2Ev
FNDA:0,_ZNSt12_Vector_baseI4EdgeSaIS0_EED2Ev
FN:333,_ZNSt12_Vector_baseISt4pairImiESaIS1_EED2Ev
FNDA:1,_ZNSt12_Vector_baseISt4pairImiESaIS1_EED2Ev
FN:343,_ZNSt12_Vector_baseImSaImEE11_M_allocateEm
FNDA:0,_ZNSt12_Vector_baseImSaImEE11_M_allocateEm
FN:343,_ZNSt12_Vector_baseISt4pairImiESaIS1_EE11_M_allocateEm
FNDA:3,_ZNSt12_Vector_baseISt4pairImiESaIS1_EE11_M_allocateEm
FN:343,_ZNSt12_Vector_baseISt6vectorImSaImEESaIS2_EE11_M_allocateEm
FNDA:0,_ZNSt12_Vector_baseISt6vectorImSaImEESaIS2_EE11_M_allocateEm
FN:343,_ZNSt12_Vector_baseIiSaIiEE11_M_allocateEm
FNDA:0,_ZNSt12_Vector_baseIiSaIiEE11_M_allocateEm
FN:343,_ZNSt12_Vector_baseI4EdgeSaIS0_EE11_M_allocateEm
FNDA:0,_ZNSt12_Vector_baseI4EdgeSaIS0_EE11_M_allocateEm
FN:350,_ZNSt12_Vector_baseI4EdgeSaIS0_EE13_M_deallocateEPS0_m
FNDA:0,_ZNSt12_Vector_baseI4EdgeSaIS0_EE13_M_deallocateEPS0_m
FN:350,_ZNSt12_Vector_baseImSaImEE13_M_deallocateEPmm
FNDA:0,_ZNSt12_Vector_baseImSaImEE13_M_deallocateEPmm
FN:350,_ZNSt12_Vector_baseISt6vectorImSaImEESaIS2_EE13_M_deallocateEPS2_m
FNDA:0,_ZNSt12_Vector_baseISt6vectorImSaImEESaIS2_EE13_M_deallocateEPS2_m
FN:350,_ZNSt12_Vector_baseISt4pairImiESaIS1_EE13_M_deallocateEPS1_m
FNDA:4,_ZNSt12_Vector_baseISt4pairImiESaIS1_EE13_M_deallocateEPS1_m
FN:350,_ZNSt12_Vector_baseIiSaIiEE13_M_deallocateEPim
FNDA:0,_ZNSt12_Vector_baseIiSaIiEE13_M_deallocateEPim
FN:359,_ZNSt12_Vector_baseImSaImEE17_M_create_storageEm
FNDA:0,_ZNSt12_Vector_baseImSaImEE17_M_create_storageEm
FN:359,_ZNSt12_Vector_baseIiSaIiEE17_M_create_storageEm
FNDA:3,_ZNSt12_Vector_baseIiSaIiEE17_M_create_storageEm
FN:359,_ZNSt12_Vector_baseI4EdgeSaIS0_EE17_M_create_storageEm
FNDA:0,_ZNSt12_Vector_baseI4EdgeSaIS0_EE17_M_create_storageEm
FN:359,_ZNSt12_Vector_baseISt6vectorImSaImEESaIS2_EE17_M_create_storageEm
FNDA:0,_ZNSt12_Vector_baseISt6vectorImSaImEESaIS2_EE17_M_create_storageEm
FN:453,_ZNSt6vectorISt4pairImiESaIS1_EE14_S_do_relocateEPS1_S4_S4_RS2_St17integral_constantIbLb1EE
FNDA:6,_ZNSt6vectorISt4pairImiESaIS1_EE14_S_do_relocateEPS1_S4_S4_RS2_St17integral_constantIbLb1EE
FN:465,_ZNSt6vectorISt4pairImiESaIS1_EE11_S_relocateEPS1_S4_S4_RS2_
FNDA:6,_ZNSt6vectorISt4pairImiESaIS1_EE11_S_relocateEPS1_S4_S4_RS2_
FN:487,_ZNSt6vectorIS_ImSaImEESaIS1_EEC2Ev
FNDA:0,_ZNSt6vectorIS_ImSaImEESaIS1_EEC2Ev
FN:487,_ZNSt6vectorISt4pairImiESaIS1_EEC2Ev
FNDA:1,_ZNSt6vectorISt4pairImiESaIS1_EEC2Ev
FN:497,_ZNSt6vectorIS_ImSaImEESaIS1_EEC2ERKS2_
FNDA:0,_ZNSt6vectorIS_ImSaImEESaIS1_EEC2ERKS2_
FN:522,_ZNSt6vectorIiSaIiEEC2EmRKiRKS0_
FNDA:2,_ZNSt6vectorIiSaIiEEC2EmRKiRKS0_
FN:553,_ZNSt6vectorIS_ImSaImEESaIS1_EEC2ERKS3_
FNDA:0,_ZNSt6vectorIS_ImSaImEESaIS1_EEC2ERKS3_
FN:553,_ZNSt6vectorI4EdgeSaIS0_EEC2ERKS2_
FNDA:0,_ZNSt6vectorI4EdgeSaIS0_EEC2ERKS2_
FN:553,_ZNSt6vectorImSaImEEC2ERKS1_
FNDA:0,_ZNSt6vectorImSaImEEC2ERKS1_
FN:678,_ZNSt6vectorIiSaIiEED2Ev
FNDA:0,_ZNSt6vectorIiSaIiEED2Ev
FN:678,_ZNSt6vectorIS_ImSaImEESaIS1_EED2Ev
FNDA:0,_ZNSt6vectorIS_ImSaImEESaIS1_EED2Ev
FN:678,_ZNSt6vectorI4EdgeSaIS0_EED2Ev
FNDA:0,_ZNSt6vectorI4EdgeSaIS0_EED2Ev
FN:678,_ZNSt6vectorISt4pairImiESaIS1_EED2Ev
FNDA:1,_ZNSt6vectorISt4pairImiESaIS1_EED2Ev
FN:678,_ZNSt6vectorImSaImEED2Ev
FNDA:0,_ZNSt6vectorImSaImEED2Ev
FN:709,_ZNSt6vectorIS_ImSaImEESaIS1_EEaSEOS3_
FNDA:0,_ZNSt6vectorIS_ImSaImEESaIS1_EEaSEOS3_
FN:811,_ZNSt6vectorISt4pairImiESaIS1_EE5beginEv
FNDA:11,_ZNSt6vectorISt4pairImiESaIS1_EE5beginEv
FN:820,_ZNKSt6vectorImSaImEE5beginEv
FNDA:0,_ZNKSt6vectorImSaImEE5beginEv
FN:820,_ZNKSt6vectorIS_ImSaImEESaIS1_EE5beginEv
FNDA:0,_ZNKSt6vectorIS_ImSaImEESaIS1_EE5beginEv
FN:820,_ZNKSt6vectorI4EdgeSaIS0_EE5beginEv
FNDA:0,_ZNKSt6vectorI4EdgeSaIS0_EE5beginEv
FN:820,_ZNKSt6vectorISt4pairImiESaIS1_EE5beginEv
FNDA:16,_ZNKSt6vectorISt4pairImiESaIS1_EE5beginEv
FN:829,_ZNSt6vectorISt4pairImiESaIS1_EE3endEv
FNDA:6,_ZNSt6vectorISt4pairImiESaIS1_EE3endEv
FN:838,_ZNKSt6vectorISt4pairImiESaIS1_EE3endEv
FNDA:13,_ZNKSt6vectorISt4pairImiESaIS1_EE3endEv
FN:838,_ZNKSt6vectorImSaImEE3endEv
FNDA:0,_ZNKSt6vectorImSaImEE3endEv
FN:838,_ZNKSt6vectorI4EdgeSaIS0_EE3endEv
FNDA:0,_ZNKSt6vectorI4EdgeSaIS0_EE3endEv
FN:838,_ZNKSt6vectorIS_ImSaImEESaIS1_EE3endEv
FNDA:0,_ZNKSt6vectorIS_ImSaImEESaIS1_EE3endEv
FN:918,_ZNKSt6vectorImSaImEE4sizeEv
FNDA:0,_ZNKSt6vectorImSaImEE4sizeEv
FN:918,_ZNKSt6vectorIS_ImSaImEESaIS1_EE4sizeEv
FNDA:0,_ZNKSt6vectorIS_ImSaImEESaIS1_EE4sizeEv
FN:918,_ZNKSt6vectorI4EdgeSaIS0_EE4sizeEv
FNDA:0,_ZNKSt6vectorI4EdgeSaIS0_EE4sizeEv
FN:918,_ZNKSt6vectorISt4pairImiESaIS1_EE4sizeEv
FNDA:25,_ZNKSt6vectorISt4pairImiESaIS1_EE4sizeEv
FN:923,_ZNKSt6vectorISt4pairImiESaIS1_EE8max_sizeEv
FNDA:6,_ZNKSt6vectorISt4pairImiESaIS1_EE8max_sizeEv
FN:1007,_ZNKSt6vectorISt4pairImiESaIS1_EE5emptyEv
FNDA:13,_ZNKSt6vectorISt4pairImiESaIS1_EE5emptyEv
FN:1043,_ZNSt6vectorIiSaIiEEixEm
FNDA:39,_ZNSt6vectorIiSaIiEEixEm
FN:1043,_ZNSt6vectorISt4pairImiESaIS1_EEixEm
FNDA:20,_ZNSt6vectorISt4pairImiESaIS1_EEixEm
FN:1121,_ZNSt6vectorISt4pairImiESaIS1_EE5frontEv
FNDA:8,_ZNSt6vectorISt4pairImiESaIS1_EE5frontEv
FN:1132,_ZNKSt6vectorISt4pairImiESaIS1_EE5frontEv
FNDA:3,_ZNKSt6vectorISt4pairImiESaIS1_EE5frontEv
FN:1143,_ZNSt6vectorISt4pairImiESaIS1_EE4backEv
FNDA:3,_ZNSt6vectorISt4pairImiESaIS1_EE4backEv
FN:1187,_ZNSt6vectorISt4pairImiESaIS1_EE9push_backERKS1_
FNDA:3,_ZNSt6vectorISt4pairImiESaIS1_EE9push_backERKS1_
FN:1225,_ZNSt6vectorISt4pairImiESaIS1_EE8pop_backEv
FNDA:3,_ZNSt6vectorISt4pairImiESaIS1_EE8pop_backEv
FN:1593,_ZNSt6vectorIiSaIiEE18_M_fill_initializeEmRKi
FNDA:2,_ZNSt6vectorIiSaIiEE18_M_fill_initializeEmRKi
FN:1756,_ZNKSt6vectorISt4pairImiESaIS1_EE12_M_check_lenEmPKc
FNDA:3,_ZNKSt6vectorISt4pairImiESaIS1_EE12_M_check_lenEmPKc
FN:1767,_ZNSt6vectorIiSaIiEE17_S_check_init_lenEmRKS0_
FNDA:3,_ZNSt6vectorIiSaIiEE17_S_check_init_lenEmRKS0_
FN:1776,_ZNSt6vectorISt4pairImiESaIS1_EE11_S_max_sizeERKS2_
FNDA:6,_ZNSt6vectorISt4pairImiESaIS1_EE11_S_max_sizeERKS2_
FN:1776,_ZNSt6vectorIiSaIiEE11_S_max_sizeERKS0_
FNDA:0,_ZNSt6vectorIiSaIiEE11_S_max_sizeERKS0_
FN:1815,_ZNSt6vectorIS_ImSaImEESaIS1_EE14_M_move_assignEOS3_St17integral_constantIbLb1EE
FNDA:0,_ZNSt6vectorIS_ImSaImEESaIS1_EE14_M_move_assignEOS3_St17integral_constantIbLb1EE
DA:97,0
DA:98,0
DA:99,0
DA:97,0
DA:98,0
DA:99,0
DA:97,0
DA:98,0
DA:99,0
DA:97,0
DA:98,0
DA:99,0
DA:97,1
DA:98,1
DA:99,1
DA:109,0
DA:111,0
DA:112,0
DA:113,0
DA:114,0
DA:117,0
DA:121,0
DA:122,0
DA:123,0
DA:124,0
DA:125,0
DA:131,0
DA:133,0
DA:134,0
DA:131,1
DA:133,1
DA:134,1
DA:136,0
DA:137,0
DA:138,0
DA:136,0
DA:137,0
DA:138,0
DA:136,0
DA:137,0
DA:138,0
DA:136,3
DA:137,3
DA:138,3
DA:276,0
DA:277,0
DA:276,0
DA:277,0
DA:276,0
DA:277,0
DA:276,0
DA:277,0
DA:276,7
DA:277,7
DA:280,0
DA:281,0
DA:280,6
DA:281,6
DA:280,0
DA:281,0
DA:280,0
DA:281,0
DA:284,0
DA:285,0
DA:288,0
DA:288,1
DA:293,0
DA:294,0
DA:303,0
DA:304,0
DA:305,0
DA:303,0
DA:304,0
DA:305,0
DA:303,0
DA:304,0
DA:305,0
DA:303,3
DA:304,3
DA:305,3
DA:333,0
DA:335,0
DA:336,0
DA:337,0
DA:333,0
DA:335,0
DA:336,0
DA:337,0
DA:333,0
DA:335,0
DA:336,0
DA:337,0
DA:333,0
DA:335,0
DA:336,0
DA:337,0
DA:333,1
DA:335,1
DA:336,1
DA:337,1
DA:343,0
DA:346,0
DA:343,0
DA:346,0
DA:343,3
DA:346,3
DA:343,0
DA:346,0
DA:343,0
DA:346,0
DA:350,0
DA:353,0
DA:354,0
DA:355,0
DA:350,0
DA:353,0
DA:354,0
DA:355,0
DA:350,0
DA:353,0
DA:354,0
DA:355,0
DA:350,0
DA:353,0
DA:354,0
DA:355,0
DA:350,4
DA:353,4
DA:354,3
DA:355,4
DA:359,0
DA:361,0
DA:362,0
DA:363,0
DA:364,0
DA:359,0
DA:361,0
DA:362,0
DA:363,0
DA:364,0
DA:359,0
DA:361,0
DA:362,0
DA:363,0
DA:364,0
DA:359,3
DA:361,3
DA:362,3
DA:363,3
DA:364,3
DA:453,6
DA:456,6
DA:465,6
DA:469,6
DA:487,0
DA:487,1
DA:497,0
DA:498,0
DA:522,2
DA:524,2
DA:525,2
DA:553,0
DA:555,0
DA:557,0
DA:558,0
DA:560,0
DA:561,0
DA:553,0
DA:555,0
DA:557,0
DA:558,0
DA:560,0
DA:561,0
DA:553,0
DA:555,0
DA:557,0
DA:558,0
DA:560,0
DA:561,0
DA:678,0
DA:680,0
DA:681,0
DA:683,0
DA:678,0
DA:680,0
DA:681,0
DA:683,0
DA:678,0
DA:680,0
DA:681,0
DA:683,0
DA:678,0
DA:680,0
DA:681,0
DA:683,0
DA:678,1
DA:680,1
DA:681,1
DA:683,1
DA:709,0
DA:711,0
DA:714,0
DA:715,0
DA:811,11
DA:812,11
DA:820,0
DA:821,0
DA:820,16
DA:821,16
DA:820,0
DA:821,0
DA:820,0
DA:821,0
DA:829,6
DA:830,6
DA:838,0
DA:839,0
DA:838,13
DA:839,13
DA:838,0
DA:839,0
DA:838,0
DA:839,0
DA:918,0
DA:919,0
DA:918,0
DA:919,0
DA:918,25
DA:919,25
DA:918,0
DA:919,0
DA:923,6
DA:924,6
DA:1007,13
DA:1008,13
DA:1043,20
DA:1046,20
DA:1043,39
DA:1046,39
DA:1121,8
DA:1124,8
DA:1132,3
DA:1135,3
DA:1143,3
DA:1146,3
DA:1187,3
DA:1189,3
DA:1192,0
DA:1194,0
DA:1198,3
DA:1199,3
DA:1225,3
DA:1228,3
DA:1229,3
DA:1231,3
DA:1593,2
DA:1595,2
DA:1596,2
DA:1597,2
DA:1598,2
DA:1756,3
DA:1758,3
DA:1759,0
DA:1761,3
DA:1762,3
DA:1767,3
DA:1769,3
DA:1770,0
DA:1772,3
DA:1776,6
DA:1781,6
DA:1783,6
DA:1784,6
DA:1776,0
DA:1781,0
DA:1783,0
DA:1784,0
DA:1815,0
DA:1817,0
DA:1818,0
DA:1819,0
DA:1820,0
DA:1821,0
end_of_record
SF:/usr/include/c++/11/bits/alloc_traits.h
FN:463,_ZNSt16allocator_traitsISaISt13_Rb_tree_nodeISt4pairIKmmEEEE8allocateERS5_m
FNDA:0,_ZNSt16allocator_traitsISaISt13_Rb_tree_nodeISt4pairIKmmEEEE8allocateERS5_m
FN:463,_ZNSt16allocator_traitsISaISt13_Rb_tree_nodeISt4pairIKS1_ImiEmEEEE8allocateERS6_m
FNDA:6,_ZNSt16allocator_traitsISaISt13_Rb_tree_nodeISt4pairIKS1_ImiEmEEEE8allocateERS6_m
FN:463,_ZNSt16allocator_traitsISaISt6vectorImSaImEEEE8allocateERS3_m
FNDA:0,_ZNSt16allocator_traitsISaISt6vectorImSaImEEEE8allocateERS3_m
FN:463,_ZNSt16allocator_traitsISaISt4pairImiEEE8allocateERS2_m
FNDA:3,_ZNSt16allocator_traitsISaISt4pairImiEEE8allocateERS2_m
FN:463,_ZNSt16allocator_traitsISaImEE8allocateERS0_m
FNDA:0,_ZNSt16allocator_traitsISaImEE8allocateERS0_m
FN:463,_ZNSt16allocator_traitsISaI4EdgeEE8allocateERS1_m
FNDA:0,_ZNSt16allocator_traitsISaI4EdgeEE8allocateERS1_m
FN:463,_ZNSt16allocator_traitsISaIiEE8allocateERS0_m
FNDA:0,_ZNSt16allocator_traitsISaIiEE8allocateERS0_m
FN:495,_ZNSt16allocator_traitsISaISt6vectorImSaImEEEE10deallocateERS3_PS2_m
FNDA:0,_ZNSt16allocator_traitsISaISt6vectorImSaImEEEE10deallocateERS3_PS2_m
FN:495,_ZNSt16allocator_traitsISaISt4pairImiEEE10deallocateERS2_PS1_m
FNDA:3,_ZNSt16allocator_traitsISaISt4pairImiEEE10deallocateERS2_PS1_m
FN:495,_ZNSt16allocator_traitsISaIiEE10deallocateERS0_Pim
FNDA:0,_ZNSt16allocator_traitsISaIiEE10deallocateERS0_Pim
FN:495,_ZNSt16allocator_traitsISaImEE10deallocateERS0_Pmm
FNDA:0,_ZNSt16allocator_traitsISaImEE10deallocateERS0_Pmm
FN:495,_ZNSt16allocator_traitsISaISt13_Rb_tree_nodeISt4pairIKmmEEEE10deallocateERS5_PS4_m
FNDA:0,_ZNSt16allocator_traitsISaISt13_Rb_tree_nodeISt4pairIKmmEEEE10deallocateERS5_PS4_m
FN:495,_ZNSt16allocator_traitsISaISt13_Rb_tree_nodeISt4pairIKS1_ImiEmEEEE10deallocateERS6_PS5_m
FNDA:6,_ZNSt16allocator_traitsISaISt13_Rb_tree_nodeISt4pairIKS1_ImiEmEEEE10deallocateERS6_PS5_m
FN:495,_ZNSt16allocator_traitsISaI4EdgeEE10deallocateERS1_PS0_m
FNDA:0,_ZNSt16allocator_traitsISaI4EdgeEE10deallocateERS1_PS0_m
FN:511,_ZNSt16allocator_traitsISaISt13_Rb_tree_nodeISt4pairIKmmEEEE9constructIS3_JRKS3_EEEvRS5_PT_DpOT0_
FNDA:0,_ZNSt16allocator_traitsISaISt13_Rb_tree_nodeISt4pairIKmmEEEE9constructIS3_JRKS3_EEEvRS5_PT_DpOT0_
FN:511,_ZNSt16allocator_traitsISaISt4pairImiEEE9constructIS1_JRKS1_EEEvRS2_PT_DpOT0_
FNDA:3,_ZNSt16allocator_traitsISaISt4pairImiEEE9constructIS1_JRKS1_EEEvRS2_PT_DpOT0_
FN:511,_ZNSt16allocator_traitsISaISt4pairImiEEE9constructIS1_JS1_EEEvRS2_PT_DpOT0_
FNDA:3,_ZNSt16allocator_traitsISaISt4pairImiEEE9constructIS1_JS1_EEEvRS2_PT_DpOT0_
FN:511,_ZNSt16allocator_traitsISaISt13_Rb_tree_nodeISt4pairIKS1_ImiEmEEEE9constructIS4_JRKSt21piecewise_construct_tSt5tupleIJRS3_EESC_IJEEEEEvRS6_PT_DpOT0_
FNDA:6,_ZNSt16allocator_traitsISaISt13_Rb_tree_nodeISt4pairIKS1_ImiEmEEEE9constructIS4_JRKSt21piecewise_construct_tSt5tupleIJRS3_EESC_IJEEEEEvRS6_PT_DpOT0_
FN:531,_ZNSt16allocator_traitsISaISt13_Rb_tree_nodeISt4pairIKS1_ImiEmEEEE7destroyIS4_EEvRS6_PT_
FNDA:6,_ZNSt16allocator_traitsISaISt13_Rb_tree_nodeISt4pairIKS1_ImiEmEEEE7destroyIS4_EEvRS6_PT_
FN:531,_ZNSt16allocator_traitsISaISt13_Rb_tree_nodeISt4pairIKmmEEEE7destroyIS3_EEvRS5_PT_
FNDA:0,_ZNSt16allocator_traitsISaISt13_Rb_tree_nodeISt4pairIKmmEEEE7destroyIS3_EEvRS5_PT_
FN:531,_ZNSt16allocator_traitsISaISt4pairImiEEE7destroyIS1_EEvRS2_PT_
FNDA:6,_ZNSt16allocator_traitsISaISt4pairImiEEE7destroyIS1_EEvRS2_PT_
FN:547,_ZNSt16allocator_traitsISaISt4pairImiEEE8max_sizeERKS2_
FNDA:6,_ZNSt16allocator_traitsISaISt4pairImiEEE8max_sizeERKS2_
FN:547,_ZNSt16allocator_traitsISaIiEE8max_sizeERKS0_
FNDA:0,_ZNSt16allocator_traitsISaIiEE8max_sizeERKS0_
FN:562,_ZNSt16allocator_traitsISaISt13_Rb_tree_nodeISt4pairIKmmEEEE37select_on_container_copy_constructionERKS5_
FNDA:0,_ZNSt16allocator_traitsISaISt13_Rb_tree_nodeISt4pairIKmmEEEE37select_on_container_copy_constructionERKS5_
FN:562,_ZNSt16allocator_traitsISaISt6vectorImSaImEEEE37select_on_container_copy_constructionERKS3_
FNDA:0,_ZNSt16allocator_traitsISaISt6vectorImSaImEEEE37select_on_container_copy_constructionERKS3_
FN:562,_ZNSt16allocator_traitsISaImEE37select_on_container_copy_constructionERKS0_
FNDA:0,_ZNSt16allocator_traitsISaImEE37select_on_container_copy_constructionERKS0_
FN:562,_ZNSt16allocator_traitsISaI4EdgeEE37select_on_container_copy_constructionERKS1_
FNDA:0,_ZNSt16allocator_traitsISaI4EdgeEE37select_on_container_copy_constructionERKS1_
FN:710,_ZSt15__alloc_on_moveISaISt6vectorImSaImEEEEvRT_S5_
FNDA:0,_ZSt15__alloc_on_moveISaISt6vectorImSaImEEEEvRT_S5_
FN:845,_ZSt8_DestroyIPmmEvT_S1_RSaIT0_E
FNDA:0,_ZSt8_DestroyIPmmEvT_S1_RSaIT0_E
FN:845,_ZSt8_DestroyIPSt6vectorImSaImEES2_EvT_S4_RSaIT0_E
FNDA:0,_ZSt8_DestroyIPSt6vectorImSaImEES2_EvT_S4_RSaIT0_E
FN:845,_ZSt8_DestroyIP4EdgeS0_EvT_S2_RSaIT0_E
FNDA:0,_ZSt8_DestroyIP4EdgeS0_EvT_S2_RSaIT0_E
FN:845,_ZSt8_DestroyIPiiEvT_S1_RSaIT0_E
FNDA:0,_ZSt8_DestroyIPiiEvT_S1_RSaIT0_E
FN:845,_ZSt8_DestroyIPSt4pairImiES1_EvT_S3_RSaIT0_E
FNDA:1,_ZSt8_DestroyIPSt4pairImiES1_EvT_S3_RSaIT0_E
DA:463,0
DA:464,0
DA:463,6
DA:464,6
DA:463,0
DA:464,0
DA:463,3
DA:464,3
DA:463,0
DA:464,0
DA:463,0
DA:464,0
DA:463,0
DA:464,0
DA:495,0
DA:496,0
DA:495,6
DA:496,6
DA:495,0
DA:496,0
DA:495,0
DA:496,0
DA:495,0
DA:496,0
DA:495,0
DA:496,0
DA:495,3
DA:496,3
DA:511,3
DA:516,3
DA:520,3
DA:511,0
DA:516,0
DA:520,0
DA:511,6
DA:516,6
DA:520,6
DA:511,3
DA:516,3
DA:520,3
DA:531,0
DA:535,0
DA:539,0
DA:531,6
DA:535,6
DA:539,6
DA:531,6
DA:535,6
DA:539,6
DA:547,6
DA:550,6
DA:547,0
DA:550,0
DA:562,0
DA:563,0
DA:562,0
DA:563,0
DA:562,0
DA:563,0
DA:562,0
DA:563,0
DA:710,0
DA:716,0
DA:720,0
DA:845,0
DA:848,0
DA:849,0
DA:845,0
DA:848,0
DA:849,0
DA:845,0
DA:848,0
DA:849,0
DA:845,0
DA:848,0
DA:849,0
DA:845,1
DA:848,1
DA:849,1
end_of_record
SF:/usr/include/c++/11/bits/stl_pair.h
FN:314,_ZNSt4pairIKi6VertexEC2ERKS2_
FNDA:3,_ZNSt4pairIKi6VertexEC2ERKS2_
FN:322,_ZNSt4pairIPSt18_Rb_tree_node_baseS1_EC2IRS1_Lb1EEEOT_RKS1_
FNDA:0,_ZNSt4pairIPSt18_Rb_tree_node_baseS1_EC2IRS1_Lb1EEEOT_RKS1_
FN:336,_ZNSt4pairIPSt18_Rb_tree_node_baseS1_EC2IRS1_Lb1EEERKS1_OT_
FNDA:0,_ZNSt4pairIPSt18_Rb_tree_node_baseS1_EC2IRS1_Lb1EEERKS1_OT_
FN:352,_ZNSt4pairIPSt18_Rb_tree_node_baseS1_EC2IRPSt13_Rb_tree_nodeIS_IKS_ImiEmEERS1_Lb1EEEOT_OT0_
FNDA:1,_ZNSt4pairIPSt18_Rb_tree_node_baseS1_EC2IRPSt13_Rb_tree_nodeIS_IKS_ImiEmEERS1_Lb1EEEOT_OT0_
FN:352,_ZNSt4pairISt17_Rb_tree_iteratorIS_IKS_ImiEmEES4_EC2IS4_S4_Lb1EEEOT_OT0_
FNDA:3,_ZNSt4pairISt17_Rb_tree_iteratorIS_IKS_ImiEmEES4_EC2IS4_S4_Lb1EEEOT_OT0_
FN:352,_ZNSt4pairIPSt18_Rb_tree_node_baseS1_EC2IRS1_S4_Lb1EEEOT_OT0_
FNDA:0,_ZNSt4pairIPSt18_Rb_tree_node_baseS1_EC2IRS1_S4_Lb1EEEOT_OT0_
FN:352,_ZNSt4pairImiEC2IRmRiLb1EEEOT_OT0_
FNDA:6,_ZNSt4pairImiEC2IRmRiLb1EEEOT_OT0_
FN:352,_ZNSt4pairImiEC2IRKiRiLb1EEEOT_OT0_
FNDA:3,_ZNSt4pairImiEC2IRKiRiLb1EEEOT_OT0_
FN:390,_ZNSt4pairImiEaSERKS0_
FNDA:3,_ZNSt4pairImiEaSERKS0_
FN:439,_ZNSt4pairImiE4swapERS0_
FNDA:4,_ZNSt4pairImiE4swapERS0_
FN:489,_ZStltImiEbRKSt4pairIT_T0_ES5_
FNDA:54,_ZStltImiEbRKSt4pairIT_T0_ES5_
FN:533,_ZSt4swapImiENSt9enable_ifIXsrSt6__and_IJSt14__is_swappableIT_ES2_IT0_EEE5valueEvE4typeERSt4pairIS3_S5_ESC_
FNDA:4,_ZSt4swapImiENSt9enable_ifIXsrSt6__and_IJSt14__is_swappableIT_ES2_IT0_EEE5valueEvE4typeERSt4pairIS3_S5_ESC_
DA:314,3
DA:322,0
DA:323,0
DA:336,0
DA:337,0
DA:352,1
DA:353,1
DA:352,3
DA:353,3
DA:352,0
DA:353,0
DA:352,6
DA:353,6
DA:352,3
DA:353,3
DA:390,3
DA:395,3
DA:396,3
DA:397,3
DA:439,4
DA:444,4
DA:445,4
DA:446,4
DA:489,54
DA:490,54
DA:491,54
DA:533,4
DA:535,4
end_of_record
SF:/usr/include/c++/11/bits/stl_map.h
FN:185,_ZNSt3mapISt4pairImiEmSt4lessIS1_ESaIS0_IKS1_mEEEC2Ev
FNDA:1,_ZNSt3mapISt4pairImiEmSt4lessIS1_ESaIS0_IKS1_mEEEC2Ev
FN:207,_ZNSt3mapImmSt4lessImESaISt4pairIKmmEEEC2ERKS6_
FNDA:0,_ZNSt3mapImmSt4lessImESaISt4pairIKmmEEEC2ERKS6_
FN:302,_ZNSt3mapImmSt4lessImESaISt4pairIKmmEEED2Ev
FNDA:0,_ZNSt3mapImmSt4lessImESaISt4pairIKmmEEED2Ev
FN:302,_ZNSt3mapISt4pairImiEmSt4lessIS1_ESaIS0_IKS1_mEEED2Ev
FNDA:1,_ZNSt3mapISt4pairImiEmSt4lessIS1_ESaIS0_IKS1_mEEED2Ev
FN:374,_ZNSt3mapISt4pairImiEmSt4lessIS1_ESaIS0_IKS1_mEEE3endEv
FNDA:10,_ZNSt3mapISt4pairImiEmSt4lessIS1_ESaIS0_IKS1_mEEE3endEv
FN:383,_ZNKSt3mapISt4pairImiEmSt4lessIS1_ESaIS0_IKS1_mEEE3endEv
FNDA:3,_ZNKSt3mapISt4pairImiEmSt4lessIS1_ESaIS0_IKS1_mEEE3endEv
FN:492,_ZNSt3mapISt4pairImiEmSt4lessIS1_ESaIS0_IKS1_mEEEixERS4_
FNDA:10,_ZNSt3mapISt4pairImiEmSt4lessIS1_ESaIS0_IKS1_mEEEixERS4_
FN:1068,_ZNSt3mapISt4pairImiEmSt4lessIS1_ESaIS0_IKS1_mEEE5eraseERS4_
FNDA:3,_ZNSt3mapISt4pairImiEmSt4lessIS1_ESaIS0_IKS1_mEEE5eraseERS4_
FN:1142,_ZNKSt3mapISt4pairImiEmSt4lessIS1_ESaIS0_IKS1_mEEE8key_compEv
FNDA:7,_ZNKSt3mapISt4pairImiEmSt4lessIS1_ESaIS0_IKS1_mEEE8key_compEv
FN:1194,_ZNKSt3mapISt4pairImiEmSt4lessIS1_ESaIS0_IKS1_mEEE4findERS4_
FNDA:3,_ZNKSt3mapISt4pairImiEmSt4lessIS1_ESaIS0_IKS1_mEEE4findERS4_
FN:1258,_ZNSt3mapISt4pairImiEmSt4lessIS1_ESaIS0_IKS1_mEEE11lower_boundERS4_
FNDA:10,_ZNSt3mapISt4pairImiEmSt4lessIS1_ESaIS0_IKS1_mEEE11lower_boundERS4_
DA:185,1
DA:207,0
DA:302,0
DA:302,1
DA:374,10
DA:375,10
DA:383,3
DA:384,3
DA:492,10
DA:497,10
DA:499,10
DA:501,6
DA:502,6
DA:503,6
DA:507,10
DA:1068,3
DA:1069,3
DA:1142,7
DA:1143,7
DA:1194,3
DA:1195,3
DA:1258,10
DA:1259,10
end_of_record
SF:/usr/include/c++/11/bits/stl_uninitialized.h
FN:85,_ZNSt20__uninitialized_copyILb0EE13__uninit_copyIN9__gnu_cxx17__normal_iteratorIPKSt6vectorImSaImEES4_IS6_SaIS6_EEEEPS6_EET0_T_SE_SD_
FNDA:0,_ZNSt20__uninitialized_copyILb0EE13__uninit_copyIN9__gnu_cxx17__normal_iteratorIPKSt6vectorImSaImEES4_IS6_SaIS6_EEEEPS6_EET0_T_SE_SD_
FN:85,_ZNSt20__uninitialized_copyILb0EE13__uninit_copyIN9__gnu_cxx17__normal_iteratorIPK4EdgeSt6vectorIS4_SaIS4_EEEEPS4_EET0_T_SD_SC_
FNDA:0,_ZNSt20__uninitialized_copyILb0EE13__uninit_copyIN9__gnu_cxx17__normal_iteratorIPK4EdgeSt6vectorIS4_SaIS4_EEEEPS4_EET0_T_SD_SC_
FN:108,_ZNSt20__uninitialized_copyILb1EE13__uninit_copyIN9__gnu_cxx17__normal_iteratorIPKmSt6vectorImSaImEEEEPmEET0_T_SC_SB_
FNDA:0,_ZNSt20__uninitialized_copyILb1EE13__uninit_copyIN9__gnu_cxx17__normal_iteratorIPKmSt6vectorImSaImEEEEPmEET0_T_SC_SB_
FN:126,_ZSt18uninitialized_copyIN9__gnu_cxx17__normal_iteratorIPKmSt6vectorImSaImEEEEPmET0_T_SA_S9_
FNDA:0,_ZSt18uninitialized_copyIN9__gnu_cxx17__normal_iteratorIPKmSt6vectorImSaImEEEEPmET0_T_SA_S9_
FN:126,_ZSt18uninitialized_copyIN9__gnu_cxx17__normal_iteratorIPKSt6vectorImSaImEES2_IS4_SaIS4_EEEEPS4_ET0_T_SC_SB_
FNDA:0,_ZSt18uninitialized_copyIN9__gnu_cxx17__normal_iteratorIPKSt6vectorImSaImEES2_IS4_SaIS4_EEEEPS4_ET0_T_SC_SB_
FN:126,_ZSt18uninitialized_copyIN9__gnu_cxx17__normal_iteratorIPK4EdgeSt6vectorIS2_SaIS2_EEEEPS2_ET0_T_SB_SA_
FNDA:0,_ZSt18uninitialized_copyIN9__gnu_cxx17__normal_iteratorIPK4EdgeSt6vectorIS2_SaIS2_EEEEPS2_ET0_T_SB_SA_
FN:253,_ZNSt22__uninitialized_fill_nILb1EE15__uninit_fill_nIPimiEET_S3_T0_RKT1_
FNDA:2,_ZNSt22__uninitialized_fill_nILb1EE15__uninit_fill_nIPimiEET_S3_T0_RKT1_
FN:273,_ZSt20uninitialized_fill_nIPimiET_S1_T0_RKT1_
FNDA:2,_ZSt20uninitialized_fill_nIPimiET_S1_T0_RKT1_
FN:331,_ZSt22__uninitialized_copy_aIN9__gnu_cxx17__normal_iteratorIPKmSt6vectorImSaImEEEEPmmET0_T_SA_S9_RSaIT1_E
FNDA:0,_ZSt22__uninitialized_copy_aIN9__gnu_cxx17__normal_iteratorIPKmSt6vectorImSaImEEEEPmmET0_T_SA_S9_RSaIT1_E
FN:331,_ZSt22__uninitialized_copy_aIN9__gnu_cxx17__normal_iteratorIPKSt6vectorImSaImEES2_IS4_SaIS4_EEEEPS4_S4_ET0_T_SC_SB_RSaIT1_E
FNDA:0,_ZSt22__uninitialized_copy_aIN9__gnu_cxx17__normal_iteratorIPKSt6vectorImSaImEES2_IS4_SaIS4_EEEEPS4_S4_ET0_T_SC_SB_RSaIT1_E
FN:331,_ZSt22__uninitialized_copy_aIN9__gnu_cxx17__normal_iteratorIPK4EdgeSt6vectorIS2_SaIS2_EEEEPS2_S2_ET0_T_SB_SA_RSaIT1_E
FNDA:0,_ZSt22__uninitialized_copy_aIN9__gnu_cxx17__normal_iteratorIPK4EdgeSt6vectorIS2_SaIS2_EEEEPS2_S2_ET0_T_SB_SA_RSaIT1_E
FN:408,_ZSt24__uninitialized_fill_n_aIPimiiET_S1_T0_RKT1_RSaIT2_E
FNDA:2,_ZSt24__uninitialized_fill_n_aIPimiiET_S1_T0_RKT1_RSaIT2_E
FN:986,_ZSt19__relocate_object_aISt4pairImiES1_SaIS1_EEvPT_PT0_RT1_
FNDA:3,_ZSt19__relocate_object_aISt4pairImiES1_SaIS1_EEvPT_PT0_RT1_
FN:1018,_ZSt14__relocate_a_1IPSt4pairImiES2_SaIS1_EET0_T_S5_S4_RT1_
FNDA:6,_ZSt14__relocate_a_1IPSt4pairImiES2_SaIS1_EET0_T_S5_S4_RT1_
FN:1040,_ZSt12__relocate_aIPSt4pairImiES2_SaIS1_EET0_T_S5_S4_RT1_
FNDA:6,_ZSt12__relocate_aIPSt4pairImiES2_SaIS1_EET0_T_S5_S4_RT1_
DA:85,0
DA:88,0
DA:91,0
DA:92,0
DA:93,0
DA:95,0
DA:97,0
DA:98,0
DA:85,0
DA:88,0
DA:91,0
DA:92,0
DA:93,0
DA:95,0
DA:97,0
DA:98,0
DA:108,0
DA:110,0
DA:126,0
DA:145,0
DA:151,0
DA:126,0
DA:145,0
DA:151,0
DA:126,0
DA:145,0
DA:151,0
DA:253,2
DA:255,2
DA:273,2
DA:293,2
DA:297,2
DA:331,0
DA:333,0
DA:331,0
DA:333,0
DA:331,0
DA:333,0
DA:408,2
DA:410,2
DA:986,3
DA:994,3
DA:995,3
DA:996,3
DA:1018,6
DA:1030,6
DA:1031,9
DA:1032,3
DA:1034,6
DA:1040,6
DA:1046,6
DA:1048,6
end_of_record
SF:/usr/include/c++/11/bits/stl_iterator.h
FN:1027,_ZN9__gnu_cxx17__normal_iteratorIPK4EdgeSt6vectorIS1_SaIS1_EEEC2ERKS3_
FNDA:0,_ZN9__gnu_cxx17__normal_iteratorIPK4EdgeSt6vectorIS1_SaIS1_EEEC2ERKS3_
FN:1027,_ZN9__gnu_cxx17__normal_iteratorIPKmSt6vectorImSaImEEEC2ERKS2_
FNDA:0,_ZN9__gnu_cxx17__normal_iteratorIPKmSt6vectorImSaImEEEC2ERKS2_
FN:1027,_ZN9__gnu_cxx17__normal_iteratorIPKSt6vectorImSaImEES1_IS3_SaIS3_EEEC2ERKS5_
FNDA:0,_ZN9__gnu_cxx17__normal_iteratorIPKSt6vectorImSaImEES1_IS3_SaIS3_EEEC2ERKS5_
FN:1027,_ZN9__gnu_cxx17__normal_iteratorIPSt4pairImiESt6vectorIS2_SaIS2_EEEC2ERKS3_
FNDA:20,_ZN9__gnu_cxx17__normal_iteratorIPSt4pairImiESt6vectorIS2_SaIS2_EEEC2ERKS3_
FN:1027,_ZN9__gnu_cxx17__normal_iteratorIPKSt4pairImiESt6vectorIS2_SaIS2_EEEC2ERKS4_
FNDA:29,_ZN9__gnu_cxx17__normal_iteratorIPKSt4pairImiESt6vectorIS2_SaIS2_EEEC2ERKS4_
FN:1042,_ZNK9__gnu_cxx17__normal_iteratorIPKSt4pairImiESt6vectorIS2_SaIS2_EEEdeEv
FNDA:3,_ZNK9__gnu_cxx17__normal_iteratorIPKSt4pairImiESt6vectorIS2_SaIS2_EEEdeEv
FN:1042,_ZNK9__gnu_cxx17__normal_iteratorIPSt4pairImiESt6vectorIS2_SaIS2_EEEdeEv
FNDA:11,_ZNK9__gnu_cxx17__normal_iteratorIPSt4pairImiESt6vectorIS2_SaIS2_EEEdeEv
FN:1042,_ZNK9__gnu_cxx17__normal_iteratorIPKSt6vectorImSaImEES1_IS3_SaIS3_EEEdeEv
FNDA:0,_ZNK9__gnu_cxx17__normal_iteratorIPKSt6vectorImSaImEES1_IS3_SaIS3_EEEdeEv
FN:1042,_ZNK9__gnu_cxx17__normal_iteratorIPK4EdgeSt6vectorIS1_SaIS1_EEEdeEv
FNDA:0,_ZNK9__gnu_cxx17__normal_iteratorIPK4EdgeSt6vectorIS1_SaIS1_EEEdeEv
FN:1052,_ZN9__gnu_cxx17__normal_iteratorIPKSt6vectorImSaImEES1_IS3_SaIS3_EEEppEv
FNDA:0,_ZN9__gnu_cxx17__normal_iteratorIPKSt6vectorImSaImEES1_IS3_SaIS3_EEEppEv
FN:1052,_ZN9__gnu_cxx17__normal_iteratorIPK4EdgeSt6vectorIS1_SaIS1_EEEppEv
FNDA:0,_ZN9__gnu_cxx17__normal_iteratorIPK4EdgeSt6vectorIS1_SaIS1_EEEppEv
FN:1100,_ZNK9__gnu_cxx17__normal_iteratorIPSt4pairImiESt6vectorIS2_SaIS2_EEEmiEl
FNDA:3,_ZNK9__gnu_cxx17__normal_iteratorIPSt4pairImiESt6vectorIS2_SaIS2_EEEmiEl
FN:1105,_ZNK9__gnu_cxx17__normal_iteratorIPKSt4pairImiESt6vectorIS2_SaIS2_EEE4baseEv
FNDA:26,_ZNK9__gnu_cxx17__normal_iteratorIPKSt4pairImiESt6vectorIS2_SaIS2_EEE4baseEv
FN:1105,_ZNK9__gnu_cxx17__normal_iteratorIPSt4pairImiESt6vectorIS2_SaIS2_EEE4baseEv
FNDA:12,_ZNK9__gnu_cxx17__normal_iteratorIPSt4pairImiESt6vectorIS2_SaIS2_EEE4baseEv
FN:1105,_ZNK9__gnu_cxx17__normal_iteratorIPKmSt6vectorImSaImEEE4baseEv
FNDA:0,_ZNK9__gnu_cxx17__normal_iteratorIPKmSt6vectorImSaImEEE4baseEv
FN:1105,_ZNK9__gnu_cxx17__normal_iteratorIPK4EdgeSt6vectorIS1_SaIS1_EEE4baseEv
FNDA:0,_ZNK9__gnu_cxx17__normal_iteratorIPK4EdgeSt6vectorIS1_SaIS1_EEE4baseEv
FN:1105,_ZNK9__gnu_cxx17__normal_iteratorIPKSt6vectorImSaImEES1_IS3_SaIS3_EEE4baseEv
FNDA:0,_ZNK9__gnu_cxx17__normal_iteratorIPKSt6vectorImSaImEES1_IS3_SaIS3_EEE4baseEv
FN:1163,_ZN9__gnu_cxxeqIPKSt4pairImiESt6vectorIS2_SaIS2_EEEEbRKNS_17__normal_iteratorIT_T0_EESD_
FNDA:13,_ZN9__gnu_cxxeqIPKSt4pairImiESt6vectorIS2_SaIS2_EEEEbRKNS_17__normal_iteratorIT_T0_EESD_
FN:1179,_ZN9__gnu_cxxneIPK4EdgeSt6vectorIS1_SaIS1_EEEEbRKNS_17__normal_iteratorIT_T0_EESC_
FNDA:0,_ZN9__gnu_cxxneIPK4EdgeSt6vectorIS1_SaIS1_EEEEbRKNS_17__normal_iteratorIT_T0_EESC_
FN:1179,_ZN9__gnu_cxxneIPKSt6vectorImSaImEES1_IS3_SaIS3_EEEEbRKNS_17__normal_iteratorIT_T0_EESD_
FNDA:0,_ZN9__gnu_cxxneIPKSt6vectorImSaImEES1_IS3_SaIS3_EEEEbRKNS_17__normal_iteratorIT_T0_EESD_
FN:1268,_ZN9__gnu_cxxmiIPSt4pairImiESt6vectorIS2_SaIS2_EEEENS_17__normal_iteratorIT_T0_E15difference_typeERKSA_SD_
FNDA:3,_ZN9__gnu_cxxmiIPSt4pairImiESt6vectorIS2_SaIS2_EEEENS_17__normal_iteratorIT_T0_E15difference_typeERKSA_SD_
FN:1291,_ZSt12__niter_baseIPKmSt6vectorImSaImEEET_N9__gnu_cxx17__normal_iteratorIS5_T0_EE
FNDA:0,_ZSt12__niter_baseIPKmSt6vectorImSaImEEET_N9__gnu_cxx17__normal_iteratorIS5_T0_EE
DA:1027,0
DA:1028,0
DA:1027,29
DA:1028,29
DA:1027,20
DA:1028,20
DA:1027,0
DA:1028,0
DA:1027,0
DA:1028,0
DA:1042,0
DA:1043,0
DA:1042,0
DA:1043,0
DA:1042,11
DA:1043,11
DA:1042,3
DA:1043,3
DA:1052,0
DA:1054,0
DA:1055,0
DA:1052,0
DA:1054,0
DA:1055,0
DA:1100,3
DA:1101,3
DA:1105,0
DA:1106,0
DA:1105,0
DA:1106,0
DA:1105,0
DA:1106,0
DA:1105,26
DA:1106,26
DA:1105,12
DA:1106,12
DA:1163,13
DA:1166,13
DA:1179,0
DA:1182,0
DA:1179,0
DA:1182,0
DA:1268,3
DA:1271,3
DA:1291,0
DA:1293,0
end_of_record
SF:/home/imri/OS-FinalProject/MST/Prim.cpp
FN:8,_ZN13CompareVertexclERKSt4pairImiES3_
FNDA:8,_ZN13CompareVertexclERKSt4pairImiES3_
FN:15,_ZN4PrimclEP5Graph
FNDA:1,_ZN4PrimclEP5Graph
DA:8,8
DA:10,8
DA:15,1
DA:17,1
DA:20,1
DA:22,1
DA:25,1
DA:28,1
DA:31,1
DA:34,1
DA:37,1
DA:38,1
DA:39,4
DA:41,3
DA:43,3
DA:45,4
DA:48,3
DA:49,3
DA:52,3
DA:55,9
DA:57,6
DA:58,6
DA:61,6
DA:63,3
DA:64,3
DA:65,3
DA:66,3
DA:71,3
DA:75,4
DA:77,3
DA:79,2
DA:83,1
DA:84,1
DA:86,1
DA:87,1
DA:89,1
DA:90,1
end_of_record
SF:/usr/include/c++/11/ext/alloc_traits.h
FN:97,_ZN9__gnu_cxx14__alloc_traitsISaImEmE17_S_select_on_copyERKS1_
FNDA:0,_ZN9__gnu_cxx14__alloc_traitsISaImEmE17_S_select_on_copyERKS1_
FN:97,_ZN9__gnu_cxx14__alloc_traitsISaISt13_Rb_tree_nodeISt4pairIKmmEEES5_E17_S_select_on_copyERKS6_
FNDA:0,_ZN9__gnu_cxx14__alloc_traitsISaISt13_Rb_tree_nodeISt4pairIKmmEEES5_E17_S_select_on_copyERKS6_
FN:97,_ZN9__gnu_cxx14__alloc_traitsISaISt6vectorImSaImEEES3_E17_S_select_on_copyERKS4_
FNDA:0,_ZN9__gnu_cxx14__alloc_traitsISaISt6vectorImSaImEEES3_E17_S_select_on_copyERKS4_
FN:97,_ZN9__gnu_cxx14__alloc_traitsISaI4EdgeES1_E17_S_select_on_copyERKS2_
FNDA:0,_ZN9__gnu_cxx14__alloc_traitsISaI4EdgeES1_E17_S_select_on_copyERKS2_
DA:97,0
DA:98,0
DA:97,0
DA:98,0
DA:97,0
DA:98,0
DA:97,0
DA:98,0
end_of_record
TN:
SF:/usr/include/c++/11/iostream
end_of_record
SF:/usr/include/c++/11/bits/move.h
FN:49,_ZSt11__addressofI4EdgeEPT_RS1_
FNDA:0,_ZSt11__addressofI4EdgeEPT_RS1_
FN:49,_ZSt11__addressofINSt7__cxx1112basic_stringIcSt11char_traitsIcESaIcEEEEPT_RS6_
FNDA:0,_ZSt11__addressofINSt7__cxx1112basic_stringIcSt11char_traitsIcESaIcEEEEPT_RS6_
FN:49,_ZSt11__addressofISt6vectorImSaImEEEPT_RS3_
FNDA:0,_ZSt11__addressofISt6vectorImSaImEEEPT_RS3_
FN:49,_ZSt11__addressofIPNSt8__detail15_Hash_node_baseEEPT_RS3_
FNDA:0,_ZSt11__addressofIPNSt8__detail15_Hash_node_baseEEPT_RS3_
FN:49,_ZSt11__addressofINSt8__detail10_Hash_nodeI4EdgeLb1EEEEPT_RS4_
FNDA:0,_ZSt11__addressofINSt8__detail10_Hash_nodeI4EdgeLb1EEEEPT_RS4_
FN:49,_ZSt11__addressofINSt8__detail10_Hash_nodeI6VertexLb1EEEEPT_RS4_
FNDA:14,_ZSt11__addressofINSt8__detail10_Hash_nodeI6VertexLb1EEEEPT_RS4_
FN:77,_ZSt7forwardI6VertexEOT_RNSt16remove_referenceIS1_E4typeE
FNDA:35,_ZSt7forwardI6VertexEOT_RNSt16remove_referenceIS1_E4typeE
FN:77,_ZSt7forwardIDnEOT_RNSt16remove_referenceIS0_E4typeE
FNDA:0,_ZSt7forwardIDnEOT_RNSt16remove_referenceIS0_E4typeE
FN:77,_ZSt7forwardIbEOT_RNSt16remove_referenceIS0_E4typeE
FNDA:0,_ZSt7forwardIbEOT_RNSt16remove_referenceIS0_E4typeE
FN:77,_ZSt7forwardIRNSt7__cxx1112basic_stringIcSt11char_traitsIcESaIcEEEEOT_RNSt16remove_referenceIS7_E4typeE
FNDA:18,_ZSt7forwardIRNSt7__cxx1112basic_stringIcSt11char_traitsIcESaIcEEEEOT_RNSt16remove_referenceIS7_E4typeE
FN:77,_ZSt7forwardIRP5GraphEOT_RNSt16remove_referenceIS3_E4typeE
FNDA:6,_ZSt7forwardIRP5GraphEOT_RNSt16remove_referenceIS3_E4typeE
FN:77,_ZSt7forwardIRKNSt7__cxx1112basic_stringIcSt11char_traitsIcESaIcEEEEOT_RNSt16remove_referenceIS8_E4typeE
FNDA:0,_ZSt7forwardIRKNSt7__cxx1112basic_stringIcSt11char_traitsIcESaIcEEEEOT_RNSt16remove_referenceIS8_E4typeE
FN:77,_ZSt7forwardISaINSt8__detail10_Hash_nodeI6VertexLb1EEEEEOT_RNSt16remove_referenceIS5_E4typeE
FNDA:6,_ZSt7forwardISaINSt8__detail10_Hash_nodeI6VertexLb1EEEEEOT_RNSt16remove_referenceIS5_E4typeE
FN:77,_ZSt7forwardIRK6VertexEOT_RNSt16remove_referenceIS3_E4typeE
FNDA:0,_ZSt7forwardIRK6VertexEOT_RNSt16remove_referenceIS3_E4typeE
FN:77,_ZSt7forwardINSt7__cxx1112basic_stringIcSt11char_traitsIcESaIcEEEEOT_RNSt16remove_referenceIS6_E4typeE
FNDA:0,_ZSt7forwardINSt7__cxx1112basic_stringIcSt11char_traitsIcESaIcEEEEOT_RNSt16remove_referenceIS6_E4typeE
FN:77,_ZSt7forwardIR6VertexEOT_RNSt16remove_referenceIS2_E4typeE
FNDA:7,_ZSt7forwardIR6VertexEOT_RNSt16remove_referenceIS2_E4typeE
FN:77,_ZSt7forwardINSt8__detail14_Node_iteratorI6VertexLb1ELb1EEEEOT_RNSt16remove_referenceIS4_E4typeE
FNDA:0,_ZSt7forwardINSt8__detail14_Node_iteratorI6VertexLb1ELb1EEEEOT_RNSt16remove_referenceIS4_E4typeE
FN:77,_ZSt7forwardIRNSt8__detail14_Node_iteratorI6VertexLb1ELb1EEEEOT_RNSt16remove_referenceIS5_E4typeE
FNDA:7,_ZSt7forwardIRNSt8__detail14_Node_iteratorI6VertexLb1ELb1EEEEOT_RNSt16remove_referenceIS5_E4typeE
FN:77,_ZSt7forwardIRK4EdgeEOT_RNSt16remove_referenceIS3_E4typeE
FNDA:0,_ZSt7forwardIRK4EdgeEOT_RNSt16remove_referenceIS3_E4typeE
FN:77,_ZSt7forwardIRKSt4pairIKmmEEOT_RNSt16remove_referenceIS5_E4typeE
FNDA:0,_ZSt7forwardIRKSt4pairIKmmEEOT_RNSt16remove_referenceIS5_E4typeE
FN:104,_ZSt4moveIRPDoFiiEEONSt16remove_referenceIT_E4typeEOS4_
FNDA:84,_ZSt4moveIRPDoFiiEEONSt16remove_referenceIT_E4typeEOS4_
FN:104,_ZSt4moveIR6VertexEONSt16remove_referenceIT_E4typeEOS3_
FNDA:21,_ZSt4moveIR6VertexEONSt16remove_referenceIT_E4typeEOS3_
FN:104,_ZSt4moveIRNSt7__cxx1112basic_stringIcSt11char_traitsIcESaIcEEEEONSt16remove_referenceIT_E4typeEOS8_
FNDA:0,_ZSt4moveIRNSt7__cxx1112basic_stringIcSt11char_traitsIcESaIcEEEEONSt16remove_referenceIT_E4typeEOS8_
FN:104,_ZSt4moveIRSaIcEEONSt16remove_referenceIT_E4typeEOS3_
FNDA:0,_ZSt4moveIRSaIcEEONSt16remove_referenceIT_E4typeEOS3_
FN:145,_ZSt9addressofINSt8__detail10_Hash_nodeI4EdgeLb1EEEEPT_RS4_
FNDA:0,_ZSt9addressofINSt8__detail10_Hash_nodeI4EdgeLb1EEEEPT_RS4_
FN:145,_ZSt9addressofIPNSt8__detail15_Hash_node_baseEEPT_RS3_
FNDA:0,_ZSt9addressofIPNSt8__detail15_Hash_node_baseEEPT_RS3_
FN:145,_ZSt9addressofINSt8__detail10_Hash_nodeI6VertexLb1EEEEPT_RS4_
FNDA:14,_ZSt9addressofINSt8__detail10_Hash_nodeI6VertexLb1EEEEPT_RS4_
DA:49,0
DA:50,0
DA:49,14
DA:50,14
DA:49,0
DA:50,0
DA:49,0
DA:50,0
DA:49,0
DA:50,0
DA:49,0
DA:50,0
DA:77,0
DA:78,0
DA:77,0
DA:78,0
DA:77,0
DA:78,0
DA:77,7
DA:78,7
DA:77,0
DA:78,0
DA:77,7
DA:78,7
DA:77,0
DA:78,0
DA:77,35
DA:78,35
DA:77,6
DA:78,6
DA:77,0
DA:78,0
DA:77,6
DA:78,6
DA:77,18
DA:78,18
DA:77,0
DA:78,0
DA:77,0
DA:78,0
DA:104,84
DA:105,84
DA:104,21
DA:105,21
DA:104,0
DA:105,0
DA:104,0
DA:105,0
DA:145,0
DA:146,0
DA:145,14
DA:146,14
DA:145,0
DA:146,0
end_of_record
SF:/home/imri/OS-FinalProject/GraphObj/vertex.hpp
FN:78,_ZNKSt4hashI6VertexEclERKS0_
FNDA:0,_ZNKSt4hashI6VertexEclERKS0_
DA:78,0
DA:80,0
end_of_record
SF:/usr/include/c++/11/bits/predefined_ops.h
FN:262,_ZN9__gnu_cxx5__ops16_Iter_equals_valIKNSt7__cxx1112basic_stringIcSt11char_traitsIcESaIcEEEEC2ERS8_
FNDA:0,_ZN9__gnu_cxx5__ops16_Iter_equals_valIKNSt7__cxx1112basic_stringIcSt11char_traitsIcESaIcEEEEC2ERS8_
FN:269,_ZN9__gnu_cxx5__ops16_Iter_equals_valIKNSt7__cxx1112basic_stringIcSt11char_traitsIcESaIcEEEEclINS_17__normal_iteratorIPS8_St6vectorIS7_SaIS7_EEEEEEbT_
FNDA:0,_ZN9__gnu_cxx5__ops16_Iter_equals_valIKNSt7__cxx1112basic_stringIcSt11char_traitsIcESaIcEEEEclINS_17__normal_iteratorIPS8_St6vectorIS7_SaIS7_EEEEEEbT_
FN:276,_ZN9__gnu_cxx5__ops17__iter_equals_valIKNSt7__cxx1112basic_stringIcSt11char_traitsIcESaIcEEEEENS0_16_Iter_equals_valIT_EERSA_
FNDA:0,_ZN9__gnu_cxx5__ops17__iter_equals_valIKNSt7__cxx1112basic_stringIcSt11char_traitsIcESaIcEEEEENS0_16_Iter_equals_valIT_EERSA_
FN:310,_ZN9__gnu_cxx5__ops10_Iter_predIPDoFiiEEC2ES3_
FNDA:21,_ZN9__gnu_cxx5__ops10_Iter_predIPDoFiiEEC2ES3_
FN:324,_ZN9__gnu_cxx5__ops11__pred_iterIPDoFiiEEENS0_10_Iter_predIT_EES5_
FNDA:21,_ZN9__gnu_cxx5__ops11__pred_iterIPDoFiiEEENS0_10_Iter_predIT_EES5_
FN:387,_ZN9__gnu_cxx5__ops12_Iter_negateIPDoFiiEEC2ES3_
FNDA:21,_ZN9__gnu_cxx5__ops12_Iter_negateIPDoFiiEEC2ES3_
FN:394,_ZN9__gnu_cxx5__ops12_Iter_negateIPDoFiiEEclINS_17__normal_iteratorIPcNSt7__cxx1112basic_stringIcSt11char_traitsIcESaIcEEEEEEEbT_
FNDA:21,_ZN9__gnu_cxx5__ops12_Iter_negateIPDoFiiEEclINS_17__normal_iteratorIPcNSt7__cxx1112basic_stringIcSt11char_traitsIcESaIcEEEEEEEbT_
FN:401,_ZN9__gnu_cxx5__ops8__negateIPDoFiiEEENS0_12_Iter_negateIT_EENS0_10_Iter_predIS5_EE
FNDA:21,_ZN9__gnu_cxx5__ops8__negateIPDoFiiEEENS0_12_Iter_negateIT_EENS0_10_Iter_predIS5_EE
DA:262,0
DA:263,0
DA:264,0
DA:269,0
DA:270,0
DA:276,0
DA:277,0
DA:310,21
DA:311,21
DA:312,21
DA:324,21
DA:325,21
DA:387,21
DA:388,21
DA:389,21
DA:394,21
DA:395,21
DA:401,21
DA:402,21
end_of_record
SF:/usr/include/c++/11/bits/stl_iterator_base_funcs.h
FN:98,_ZSt10__distanceIPcENSt15iterator_traitsIT_E15difference_typeES2_S2_St26random_access_iterator_tag
FNDA:0,_ZSt10__distanceIPcENSt15iterator_traitsIT_E15difference_typeES2_S2_St26random_access_iterator_tag
FN:98,_ZSt10__distanceIPKcENSt15iterator_traitsIT_E15difference_typeES3_S3_St26random_access_iterator_tag
FNDA:0,_ZSt10__distanceIPKcENSt15iterator_traitsIT_E15difference_typeES3_S3_St26random_access_iterator_tag
FN:138,_ZSt8distanceIPcENSt15iterator_traitsIT_E15difference_typeES2_S2_
FNDA:0,_ZSt8distanceIPcENSt15iterator_traitsIT_E15difference_typeES2_S2_
FN:138,_ZSt8distanceIPKcENSt15iterator_traitsIT_E15difference_typeES3_S3_
FNDA:0,_ZSt8distanceIPKcENSt15iterator_traitsIT_E15difference_typeES3_S3_
DA:98,0
DA:104,0
DA:98,0
DA:104,0
DA:138,0
DA:141,0
DA:142,0
DA:138,0
DA:141,0
DA:142,0
end_of_record
SF:/usr/include/c++/11/bits/stl_iterator_base_types.h
FN:238,_ZSt19__iterator_categoryIPcENSt15iterator_traitsIT_E17iterator_categoryERKS2_
FNDA:0,_ZSt19__iterator_categoryIPcENSt15iterator_traitsIT_E17iterator_categoryERKS2_
FN:238,_ZSt19__iterator_categoryIN9__gnu_cxx17__normal_iteratorIPcNSt7__cxx1112basic_stringIcSt11char_traitsIcESaIcEEEEEENSt15iterator_traitsIT_E17iterator_categoryERKSB_
FNDA:21,_ZSt19__iterator_categoryIN9__gnu_cxx17__normal_iteratorIPcNSt7__cxx1112basic_stringIcSt11char_traitsIcESaIcEEEEEENSt15iterator_traitsIT_E17iterator_categoryERKSB_
FN:238,_ZSt19__iterator_categoryIN9__gnu_cxx17__normal_iteratorIPKNSt7__cxx1112basic_stringIcSt11char_traitsIcESaIcEEESt6vectorIS7_SaIS7_EEEEENSt15iterator_traitsIT_E17iterator_categoryERKSF_
FNDA:0,_ZSt19__iterator_categoryIN9__gnu_cxx17__normal_iteratorIPKNSt7__cxx1112basic_stringIcSt11char_traitsIcESaIcEEESt6vectorIS7_SaIS7_EEEEENSt15iterator_traitsIT_E17iterator_categoryERKSF_
FN:238,_ZSt19__iterator_categoryIPKcENSt15iterator_traitsIT_E17iterator_categoryERKS3_
FNDA:0,_ZSt19__iterator_categoryIPKcENSt15iterator_traitsIT_E17iterator_categoryERKS3_
DA:238,0
DA:239,0
DA:238,21
DA:239,21
DA:238,0
DA:239,0
DA:238,0
DA:239,0
end_of_record
SF:/usr/include/c++/11/ext/aligned_buffer.h
FN:64,_ZN9__gnu_cxx16__aligned_membufISt4pairIKi6VertexEE7_M_addrEv
FNDA:0,_ZN9__gnu_cxx16__aligned_membufISt4pairIKi6VertexEE7_M_addrEv
FN:64,_ZN9__gnu_cxx16__aligned_membufISt4pairIKmmEE7_M_addrEv
FNDA:0,_ZN9__gnu_cxx16__aligned_membufISt4pairIKmmEE7_M_addrEv
FN:72,_ZN9__gnu_cxx16__aligned_membufISt4pairIKi6VertexEE6_M_ptrEv
FNDA:0,_ZN9__gnu_cxx16__aligned_membufISt4pairIKi6VertexEE6_M_ptrEv
FN:72,_ZN9__gnu_cxx16__aligned_membufISt4pairIKmmEE6_M_ptrEv
FNDA:0,_ZN9__gnu_cxx16__aligned_membufISt4pairIKmmEE6_M_ptrEv
FN:102,_ZN9__gnu_cxx16__aligned_bufferI4EdgeE7_M_addrEv
FNDA:0,_ZN9__gnu_cxx16__aligned_bufferI4EdgeE7_M_addrEv
FN:102,_ZN9__gnu_cxx16__aligned_bufferI6VertexE7_M_addrEv
FNDA:0,_ZN9__gnu_cxx16__aligned_bufferI6VertexE7_M_addrEv
FN:108,_ZNK9__gnu_cxx16__aligned_bufferI6VertexE7_M_addrEv
FNDA:0,_ZNK9__gnu_cxx16__aligned_bufferI6VertexE7_M_addrEv
FN:114,_ZN9__gnu_cxx16__aligned_bufferI4EdgeE6_M_ptrEv
FNDA:0,_ZN9__gnu_cxx16__aligned_bufferI4EdgeE6_M_ptrEv
FN:114,_ZN9__gnu_cxx16__aligned_bufferI6VertexE6_M_ptrEv
FNDA:0,_ZN9__gnu_cxx16__aligned_bufferI6VertexE6_M_ptrEv
FN:118,_ZNK9__gnu_cxx16__aligned_bufferI6VertexE6_M_ptrEv
FNDA:0,_ZNK9__gnu_cxx16__aligned_bufferI6VertexE6_M_ptrEv
DA:64,0
DA:65,0
DA:64,0
DA:65,0
DA:72,0
DA:73,0
DA:72,0
DA:73,0
DA:102,0
DA:104,0
DA:102,0
DA:104,0
DA:108,0
DA:110,0
DA:114,0
DA:115,0
DA:114,0
DA:115,0
DA:118,0
DA:119,0
end_of_record
SF:/home/imri/OS-FinalProject/GraphObj/edge.hpp
end_of_record
SF:/home/imri/OS-FinalProject/GraphObj/graph.hpp
end_of_record
SF:/home/imri/OS-FinalProject/ServerUtils/serverUtils.cpp
FN:6,_Z11toLowerCaseNSt7__cxx1112basic_stringIcSt11char_traitsIcESaIcEEE
FNDA:22,_Z11toLowerCaseNSt7__cxx1112basic_stringIcSt11char_traitsIcESaIcEEE
FN:12,_Z8isNumberRKSt6vectorINSt7__cxx1112basic_stringIcSt11char_traitsIcESaIcEEESaIS5_EE
FNDA:13,_Z8isNumberRKSt6vectorINSt7__cxx1112basic_stringIcSt11char_traitsIcESaIcEEESaIS5_EE
FN:29,_Z9initGraphP5Graphii
FNDA:3,_Z9initGraphP5Graphii
FN:48,_Z19splitStringBySpacesRKNSt7__cxx1112basic_stringIcSt11char_traitsIcESaIcEEE
FNDA:44,_Z19splitStringBySpacesRKNSt7__cxx1112basic_stringIcSt11char_traitsIcESaIcEEE
FN:62,_Z10parseInputPciRiS0_S0_RNSt7__cxx1112basic_stringIcSt11char_traitsIcESaIcEEES7_S7_RKSt6vectorIS6_SaIS6_EESC_
FNDA:22,_Z10parseInputPciRiS0_S0_RNSt7__cxx1112basic_stringIcSt11char_traitsIcESaIcEEES7_S7_RKSt6vectorIS6_SaIS6_EESC_
FN:149,_Z12initVerticesi
FNDA:3,_Z12initVerticesi
FN:159,_Z8newGraphB5cxx11iiiP5Graph
FNDA:3,_Z8newGraphB5cxx11iiiP5Graph
FN:175,_Z7newEdgeB5cxx11mmmiP5Graph
FNDA:1,_Z7newEdgeB5cxx11mmmiP5Graph
FN:184,_Z10removeedgeB5cxx11iiiP5Graph
FNDA:2,_Z10removeedgeB5cxx11iiiP5Graph
FN:193,_Z11handleInputP5GraphNSt7__cxx1112basic_stringIcSt11char_traitsIcESaIcEEEiS6_iiiS6_
FNDA:22,_Z11handleInputP5GraphNSt7__cxx1112basic_stringIcSt11char_traitsIcESaIcEEEiS6_iiiS6_
FN:256,_Z9getInAddrP8sockaddr
FNDA:2,_Z9getInAddrP8sockaddr
FN:267,_Z17getListenerSocketv
FNDA:1,_Z17getListenerSocketv
FN:324,_Z11add_to_pfdsPP6pollfdiPiS2_
FNDA:2,_Z11add_to_pfdsPP6pollfdiPiS2_
FN:341,_Z13del_from_pfdsP6pollfdiPi
FNDA:1,_Z13del_from_pfdsP6pollfdiPi
DA:6,22
DA:8,22
DA:9,22
DA:12,13
DA:14,33
DA:16,21
DA:17,21
DA:19,0
DA:21,21
DA:23,1
DA:25,21
DA:26,12
DA:29,3
DA:31,3
DA:32,3
DA:34,0
DA:36,3
DA:37,3
DA:38,8
DA:41,5
DA:42,10
DA:43,5
DA:44,5
DA:45,3
DA:46,3
DA:48,44
DA:50,44
DA:51,44
DA:52,44
DA:54,136
DA:56,92
DA:59,88
DA:60,44
DA:62,22
DA:65,22
DA:66,22
DA:67,22
DA:68,22
DA:70,21
DA:71,21
DA:75,1
DA:77,22
DA:79,1
DA:81,21
DA:83,8
DA:85,7
DA:87,1
DA:91,6
DA:92,6
DA:93,6
DA:94,6
DA:95,6
DA:96,6
DA:100,1
DA:103,13
DA:105,1
DA:106,1
DA:108,12
DA:110,4
DA:112,1
DA:116,3
DA:117,3
DA:118,3
DA:121,8
DA:123,4
DA:125,2
DA:129,2
DA:130,2
DA:131,2
DA:134,4
DA:136,4
DA:138,1
DA:142,3
DA:143,3
DA:144,3
DA:147,22
DA:149,3
DA:151,3
DA:152,10
DA:154,7
DA:156,3
DA:157,0
DA:159,3
DA:161,3
DA:163,3
DA:164,1
DA:165,3
DA:167,3
DA:168,3
DA:170,6
DA:171,3
DA:172,6
DA:173,3
DA:175,1
DA:177,1
DA:178,1
DA:179,2
DA:181,2
DA:182,1
DA:184,2
DA:186,2
DA:187,2
DA:188,4
DA:190,4
DA:191,2
DA:193,22
DA:195,22
DA:196,22
DA:197,22
DA:199,1
DA:200,1
DA:203,21
DA:205,3
DA:207,18
DA:209,2
DA:211,1
DA:215,1
DA:216,1
DA:219,16
DA:221,3
DA:223,2
DA:227,1
DA:228,1
DA:231,13
DA:233,6
DA:235,1
DA:236,1
DA:238,5
DA:240,1
DA:241,1
DA:245,4
DA:250,7
DA:251,7
DA:253,22
DA:256,2
DA:258,2
DA:260,2
DA:263,0
DA:267,1
DA:270,1
DA:276,1
DA:277,1
DA:278,1
DA:279,1
DA:280,1
DA:282,0
DA:283,0
DA:286,1
DA:288,1
DA:289,1
DA:291,0
DA:295,1
DA:297,1
DA:299,0
DA:300,0
DA:303,1
DA:306,1
DA:309,1
DA:311,0
DA:315,1
DA:317,0
DA:320,1
DA:324,2
DA:327,2
DA:329,0
DA:331,0
DA:334,2
DA:335,2
DA:337,2
DA:338,2
DA:341,1
DA:344,1
DA:346,1
DA:347,1
end_of_record
SF:/usr/include/c++/11/bits/stl_function.h
FN:369,_ZNKSt8equal_toI6VertexEclERKS0_S3_
FNDA:0,_ZNKSt8equal_toI6VertexEclERKS0_S3_
DA:369,0
DA:370,0
end_of_record
SF:/usr/include/c++/11/bits/allocator.h
FN:156,_ZNSaINSt8__detail10_Hash_nodeI6VertexLb1EEEEC2Ev
FNDA:3,_ZNSaINSt8__detail10_Hash_nodeI6VertexLb1EEEEC2Ev
FN:156,_ZNSaINSt7__cxx1112basic_stringIcSt11char_traitsIcESaIcEEEEC2Ev
FNDA:0,_ZNSaINSt7__cxx1112basic_stringIcSt11char_traitsIcESaIcEEEEC2Ev
FN:159,_ZNSaINSt8__detail10_Hash_nodeI6VertexLb1EEEEC2ERKS3_
FNDA:6,_ZNSaINSt8__detail10_Hash_nodeI6VertexLb1EEEEC2ERKS3_
FN:159,_ZNSaI4EdgeEC2ERKS0_
FNDA:0,_ZNSaI4EdgeEC2ERKS0_
FN:159,_ZNSaISt13_Rb_tree_nodeISt4pairIKmmEEEC2ERKS4_
FNDA:0,_ZNSaISt13_Rb_tree_nodeISt4pairIKmmEEEC2ERKS4_
FN:169,_ZNSaIPNSt8__detail15_Hash_node_baseEEC2INS_10_Hash_nodeI4EdgeLb1EEEEERKSaIT_E
FNDA:0,_ZNSaIPNSt8__detail15_Hash_node_baseEEC2INS_10_Hash_nodeI4EdgeLb1EEEEERKSaIT_E
FN:169,_ZNSaIPNSt8__detail15_Hash_node_baseEEC2INS_10_Hash_nodeI6VertexLb1EEEEERKSaIT_E
FNDA:12,_ZNSaIPNSt8__detail15_Hash_node_baseEEC2INS_10_Hash_nodeI6VertexLb1EEEEERKSaIT_E
FN:174,_ZNSaImED2Ev
FNDA:0,_ZNSaImED2Ev
FN:174,_ZNSaIPNSt8__detail15_Hash_node_baseEED2Ev
FNDA:0,_ZNSaIPNSt8__detail15_Hash_node_baseEED2Ev
FN:174,_ZNSaISt6vectorImSaImEEED2Ev
FNDA:0,_ZNSaISt6vectorImSaImEEED2Ev
FN:174,_ZNSaINSt8__detail10_Hash_nodeI4EdgeLb1EEEED2Ev
FNDA:0,_ZNSaINSt8__detail10_Hash_nodeI4EdgeLb1EEEED2Ev
FN:174,_ZNSaISt13_Rb_tree_nodeISt4pairIKi6VertexEEED2Ev
FNDA:0,_ZNSaISt13_Rb_tree_nodeISt4pairIKi6VertexEEED2Ev
FN:174,_ZNSaISt13_Rb_tree_nodeISt4pairIKmmEEED2Ev
FNDA:0,_ZNSaISt13_Rb_tree_nodeISt4pairIKmmEEED2Ev
FN:174,_ZNSaI4EdgeED2Ev
FNDA:0,_ZNSaI4EdgeED2Ev
FN:174,_ZNSaINSt8__detail10_Hash_nodeI6VertexLb1EEEED2Ev
FNDA:9,_ZNSaINSt8__detail10_Hash_nodeI6VertexLb1EEEED2Ev
FN:174,_ZNSaINSt7__cxx1112basic_stringIcSt11char_traitsIcESaIcEEEED2Ev
FNDA:0,_ZNSaINSt7__cxx1112basic_stringIcSt11char_traitsIcESaIcEEEED2Ev
DA:156,3
DA:156,0
DA:159,6
DA:160,6
DA:159,0
DA:160,0
DA:159,0
DA:160,0
DA:169,0
DA:169,12
DA:174,0
DA:174,0
DA:174,0
DA:174,0
DA:174,0
DA:174,0
DA:174,0
DA:174,9
DA:174,0
end_of_record
SF:/usr/include/c++/11/ext/string_conversions.h
FN:54,_ZN9__gnu_cxx6__stoaIlicJiEEET0_PFT_PKT1_PPS3_DpT2_EPKcS5_PmS9_
FNDA:18,_ZN9__gnu_cxx6__stoaIlicJiEEET0_PFT_PKT1_PPS3_DpT2_EPKcS5_PmS9_
FN:63,_ZZN9__gnu_cxx6__stoaIlicJiEEET0_PFT_PKT1_PPS3_DpT2_EPKcS5_PmS9_EN11_Save_errnoC2Ev
FNDA:18,_ZZN9__gnu_cxx6__stoaIlicJiEEET0_PFT_PKT1_PPS3_DpT2_EPKcS5_PmS9_EN11_Save_errnoC2Ev
FN:64,_ZZN9__gnu_cxx6__stoaIlicJiEEET0_PFT_PKT1_PPS3_DpT2_EPKcS5_PmS9_EN11_Save_errnoD2Ev
FNDA:18,_ZZN9__gnu_cxx6__stoaIlicJiEEET0_PFT_PKT1_PPS3_DpT2_EPKcS5_PmS9_EN11_Save_errnoD2Ev
FN:73,_ZZN9__gnu_cxx6__stoaIlicJiEEET0_PFT_PKT1_PPS3_DpT2_EPKcS5_PmS9_EN10_Range_chk6_S_chkElSt17integral_constantIbLb1EE
FNDA:18,_ZZN9__gnu_cxx6__stoaIlicJiEEET0_PFT_PKT1_PPS3_DpT2_EPKcS5_PmS9_EN10_Range_chk6_S_chkElSt17integral_constantIbLb1EE
DA:54,18
DA:63,18
DA:64,18
DA:66,18
DA:73,18
DA:76,18
DA:80,18
DA:82,18
DA:83,0
DA:84,36
DA:85,18
DA:86,0
DA:88,18
DA:90,18
DA:91,0
DA:93,18
DA:94,18
end_of_record
SF:/usr/include/c++/11/bits/basic_string.h
FN:251,_ZNSt7__cxx1112basic_stringIcSt11char_traitsIcESaIcEE16_M_construct_auxIPcEEvT_S7_St12__false_type
FNDA:0,_ZNSt7__cxx1112basic_stringIcSt11char_traitsIcESaIcEE16_M_construct_auxIPcEEvT_S7_St12__false_type
FN:271,_ZNSt7__cxx1112basic_stringIcSt11char_traitsIcESaIcEE12_M_constructIPcEEvT_S7_
FNDA:0,_ZNSt7__cxx1112basic_stringIcSt11char_traitsIcESaIcEE12_M_constructIPcEEvT_S7_
FN:533,_ZNSt7__cxx1112basic_stringIcSt11char_traitsIcESaIcEEC2IS3_EEPKcRKS3_
FNDA:0,_ZNSt7__cxx1112basic_stringIcSt11char_traitsIcESaIcEEC2IS3_EEPKcRKS3_
FN:553,_ZNSt7__cxx1112basic_stringIcSt11char_traitsIcESaIcEEC2IS3_EEmcRKS3_
FNDA:0,_ZNSt7__cxx1112basic_stringIcSt11char_traitsIcESaIcEEC2IS3_EEmcRKS3_
FN:6160,_ZStplIcSt11char_traitsIcESaIcEENSt7__cxx1112basic_stringIT_T0_T1_EEOS8_RKS8_
FNDA:7,_ZStplIcSt11char_traitsIcESaIcEENSt7__cxx1112basic_stringIT_T0_T1_EEOS8_RKS8_
FN:6172,_ZStplIcSt11char_traitsIcESaIcEENSt7__cxx1112basic_stringIT_T0_T1_EEOS8_S9_
FNDA:0,_ZStplIcSt11char_traitsIcESaIcEENSt7__cxx1112basic_stringIT_T0_T1_EEOS8_S9_
FN:6194,_ZStplIcSt11char_traitsIcESaIcEENSt7__cxx1112basic_stringIT_T0_T1_EEPKS5_OS8_
FNDA:0,_ZStplIcSt11char_traitsIcESaIcEENSt7__cxx1112basic_stringIT_T0_T1_EEPKS5_OS8_
FN:6206,_ZStplIcSt11char_traitsIcESaIcEENSt7__cxx1112basic_stringIT_T0_T1_EEOS8_PKS5_
FNDA:0,_ZStplIcSt11char_traitsIcESaIcEENSt7__cxx1112basic_stringIT_T0_T1_EEOS8_PKS5_
FN:6234,_ZSteqIcEN9__gnu_cxx11__enable_ifIXsrSt9__is_charIT_E7__valueEbE6__typeERKNSt7__cxx1112basic_stringIS3_St11char_traitsIS3_ESaIS3_EEESE_
FNDA:0,_ZSteqIcEN9__gnu_cxx11__enable_ifIXsrSt9__is_charIT_E7__valueEbE6__typeERKNSt7__cxx1112basic_stringIS3_St11char_traitsIS3_ESaIS3_EEESE_
