TN:
SF:/usr/include/c++/11/bits/stl_function.h
FN:399,_ZNKSt4lessImEclERKmS2_
FNDA:0,_ZNKSt4lessImEclERKmS2_
FN:1174,_ZNKSt10_Select1stISt4pairIKmmEEclERKS2_
FNDA:0,_ZNKSt10_Select1stISt4pairIKmmEEclERKS2_
DA:399,0
DA:400,0
DA:1174,0
DA:1175,0
end_of_record
SF:/usr/include/c++/11/bits/stl_iterator.h
FN:1027,_ZN9__gnu_cxx17__normal_iteratorIPK4EdgeSt6vectorIS1_SaIS1_EEEC2ERKS3_
FNDA:0,_ZN9__gnu_cxx17__normal_iteratorIPK4EdgeSt6vectorIS1_SaIS1_EEEC2ERKS3_
FN:1027,_ZN9__gnu_cxx17__normal_iteratorIP4EdgeSt6vectorIS1_SaIS1_EEEC2ERKS2_
FNDA:48,_ZN9__gnu_cxx17__normal_iteratorIP4EdgeSt6vectorIS1_SaIS1_EEEC2ERKS2_
FN:1033,_ZN9__gnu_cxx17__normal_iteratorIPK4EdgeSt6vectorIS1_SaIS1_EEEC2IPS1_EERKNS0_IT_NS_11__enable_ifIXsrSt10__are_sameISA_S9_E7__valueES6_E6__typeEEE
FNDA:0,_ZN9__gnu_cxx17__normal_iteratorIPK4EdgeSt6vectorIS1_SaIS1_EEEC2IPS1_EERKNS0_IT_NS_11__enable_ifIXsrSt10__are_sameISA_S9_E7__valueES6_E6__typeEEE
FN:1042,_ZNK9__gnu_cxx17__normal_iteratorIP4EdgeSt6vectorIS1_SaIS1_EEEdeEv
FNDA:0,_ZNK9__gnu_cxx17__normal_iteratorIP4EdgeSt6vectorIS1_SaIS1_EEEdeEv
FN:1042,_ZNK9__gnu_cxx17__normal_iteratorIPK4EdgeSt6vectorIS1_SaIS1_EEEdeEv
FNDA:0,_ZNK9__gnu_cxx17__normal_iteratorIPK4EdgeSt6vectorIS1_SaIS1_EEEdeEv
FN:1052,_ZN9__gnu_cxx17__normal_iteratorIPK4EdgeSt6vectorIS1_SaIS1_EEEppEv
FNDA:0,_ZN9__gnu_cxx17__normal_iteratorIPK4EdgeSt6vectorIS1_SaIS1_EEEppEv
FN:1052,_ZN9__gnu_cxx17__normal_iteratorIP4EdgeSt6vectorIS1_SaIS1_EEEppEv
FNDA:0,_ZN9__gnu_cxx17__normal_iteratorIP4EdgeSt6vectorIS1_SaIS1_EEEppEv
FN:1090,_ZNK9__gnu_cxx17__normal_iteratorIP4EdgeSt6vectorIS1_SaIS1_EEEplEl
FNDA:0,_ZNK9__gnu_cxx17__normal_iteratorIP4EdgeSt6vectorIS1_SaIS1_EEEplEl
FN:1105,_ZNK9__gnu_cxx17__normal_iteratorIPK4EdgeSt6vectorIS1_SaIS1_EEE4baseEv
FNDA:0,_ZNK9__gnu_cxx17__normal_iteratorIPK4EdgeSt6vectorIS1_SaIS1_EEE4baseEv
FN:1105,_ZNK9__gnu_cxx17__normal_iteratorIP4EdgeSt6vectorIS1_SaIS1_EEE4baseEv
FNDA:0,_ZNK9__gnu_cxx17__normal_iteratorIP4EdgeSt6vectorIS1_SaIS1_EEE4baseEv
FN:1163,_ZN9__gnu_cxxeqIP4EdgeSt6vectorIS1_SaIS1_EEEEbRKNS_17__normal_iteratorIT_T0_EESB_
FNDA:8,_ZN9__gnu_cxxeqIP4EdgeSt6vectorIS1_SaIS1_EEEEbRKNS_17__normal_iteratorIT_T0_EESB_
FN:1179,_ZN9__gnu_cxxneIP4EdgeSt6vectorIS1_SaIS1_EEEEbRKNS_17__normal_iteratorIT_T0_EESB_
FNDA:0,_ZN9__gnu_cxxneIP4EdgeSt6vectorIS1_SaIS1_EEEEbRKNS_17__normal_iteratorIT_T0_EESB_
FN:1179,_ZN9__gnu_cxxneIPK4EdgeSt6vectorIS1_SaIS1_EEEEbRKNS_17__normal_iteratorIT_T0_EESC_
FNDA:0,_ZN9__gnu_cxxneIPK4EdgeSt6vectorIS1_SaIS1_EEEEbRKNS_17__normal_iteratorIT_T0_EESC_
FN:1268,_ZN9__gnu_cxxmiIPK4EdgeSt6vectorIS1_SaIS1_EEEENS_17__normal_iteratorIT_T0_E15difference_typeERKSA_SD_
FNDA:0,_ZN9__gnu_cxxmiIPK4EdgeSt6vectorIS1_SaIS1_EEEENS_17__normal_iteratorIT_T0_E15difference_typeERKSA_SD_
FN:1268,_ZN9__gnu_cxxmiIP4EdgeSt6vectorIS1_SaIS1_EEEENS_17__normal_iteratorIT_T0_E15difference_typeERKS9_SC_
FNDA:24,_ZN9__gnu_cxxmiIP4EdgeSt6vectorIS1_SaIS1_EEEENS_17__normal_iteratorIT_T0_E15difference_typeERKS9_SC_
FN:1291,_ZSt12__niter_baseIP4EdgeSt6vectorIS0_SaIS0_EEET_N9__gnu_cxx17__normal_iteratorIS5_T0_EE
FNDA:0,_ZSt12__niter_baseIP4EdgeSt6vectorIS0_SaIS0_EEET_N9__gnu_cxx17__normal_iteratorIS5_T0_EE
FN:1723,_ZSt32__make_move_if_noexcept_iteratorI4EdgePKS0_ET0_PT_
FNDA:32,_ZSt32__make_move_if_noexcept_iteratorI4EdgePKS0_ET0_PT_
DA:1027,0
DA:1028,0
DA:1027,48
DA:1028,48
DA:1033,0
DA:1037,0
DA:1042,0
DA:1043,0
DA:1042,0
DA:1043,0
DA:1052,0
DA:1054,0
DA:1055,0
DA:1052,0
DA:1054,0
DA:1055,0
DA:1090,0
DA:1091,0
DA:1105,0
DA:1106,0
DA:1105,0
DA:1106,0
DA:1163,8
DA:1166,8
DA:1179,0
DA:1182,0
DA:1179,0
DA:1182,0
DA:1268,24
DA:1271,24
DA:1268,0
DA:1271,0
DA:1291,0
DA:1293,0
DA:1723,32
DA:1724,32
end_of_record
SF:/home/imri/OS-FinalProject/GraphObj/edge.hpp
end_of_record
SF:/usr/include/c++/11/ext/new_allocator.h
FN:79,_ZN9__gnu_cxx13new_allocatorI4EdgeEC2Ev
FNDA:0,_ZN9__gnu_cxx13new_allocatorI4EdgeEC2Ev
FN:79,_ZN9__gnu_cxx13new_allocatorISt13_Rb_tree_nodeISt4pairIKmmEEEC2Ev
FNDA:0,_ZN9__gnu_cxx13new_allocatorISt13_Rb_tree_nodeISt4pairIKmmEEEC2Ev
FN:82,_ZN9__gnu_cxx13new_allocatorISt13_Rb_tree_nodeISt4pairIKmmEEEC2ERKS6_
FNDA:0,_ZN9__gnu_cxx13new_allocatorISt13_Rb_tree_nodeISt4pairIKmmEEEC2ERKS6_
FN:82,_ZN9__gnu_cxx13new_allocatorI4EdgeEC2ERKS2_
FNDA:0,_ZN9__gnu_cxx13new_allocatorI4EdgeEC2ERKS2_
FN:89,_ZN9__gnu_cxx13new_allocatorI4EdgeED2Ev
FNDA:0,_ZN9__gnu_cxx13new_allocatorI4EdgeED2Ev
FN:89,_ZN9__gnu_cxx13new_allocatorISt13_Rb_tree_nodeISt4pairIKmmEEED2Ev
FNDA:0,_ZN9__gnu_cxx13new_allocatorISt13_Rb_tree_nodeISt4pairIKmmEEED2Ev
FN:103,_ZN9__gnu_cxx13new_allocatorISt13_Rb_tree_nodeISt4pairIKmmEEE8allocateEmPKv
FNDA:0,_ZN9__gnu_cxx13new_allocatorISt13_Rb_tree_nodeISt4pairIKmmEEE8allocateEmPKv
FN:103,_ZN9__gnu_cxx13new_allocatorI4EdgeE8allocateEmPKv
FNDA:0,_ZN9__gnu_cxx13new_allocatorI4EdgeE8allocateEmPKv
FN:132,_ZN9__gnu_cxx13new_allocatorI4EdgeE10deallocateEPS1_m
FNDA:0,_ZN9__gnu_cxx13new_allocatorI4EdgeE10deallocateEPS1_m
FN:132,_ZN9__gnu_cxx13new_allocatorISt13_Rb_tree_nodeISt4pairIKmmEEE10deallocateEPS5_m
FNDA:0,_ZN9__gnu_cxx13new_allocatorISt13_Rb_tree_nodeISt4pairIKmmEEE10deallocateEPS5_m
FN:154,_ZNK9__gnu_cxx13new_allocatorI4EdgeE8max_sizeEv
FNDA:16,_ZNK9__gnu_cxx13new_allocatorI4EdgeE8max_sizeEv
FN:160,_ZN9__gnu_cxx13new_allocatorI4EdgeE9constructIS1_JRKS1_EEEvPT_DpOT0_
FNDA:12,_ZN9__gnu_cxx13new_allocatorI4EdgeE9constructIS1_JRKS1_EEEvPT_DpOT0_
FN:160,_ZN9__gnu_cxx13new_allocatorISt13_Rb_tree_nodeISt4pairIKmmEEE9constructIS4_JRKS4_EEEvPT_DpOT0_
FNDA:0,_ZN9__gnu_cxx13new_allocatorISt13_Rb_tree_nodeISt4pairIKmmEEE9constructIS4_JRKS4_EEEvPT_DpOT0_
FN:166,_ZN9__gnu_cxx13new_allocatorISt13_Rb_tree_nodeISt4pairIKmmEEE7destroyIS4_EEvPT_
FNDA:0,_ZN9__gnu_cxx13new_allocatorISt13_Rb_tree_nodeISt4pairIKmmEEE7destroyIS4_EEvPT_
FN:166,_ZN9__gnu_cxx13new_allocatorI4EdgeE7destroyIS1_EEvPT_
FNDA:0,_ZN9__gnu_cxx13new_allocatorI4EdgeE7destroyIS1_EEvPT_
FN:197,_ZNK9__gnu_cxx13new_allocatorI4EdgeE11_M_max_sizeEv
FNDA:0,_ZNK9__gnu_cxx13new_allocatorI4EdgeE11_M_max_sizeEv
FN:197,_ZNK9__gnu_cxx13new_allocatorISt13_Rb_tree_nodeISt4pairIKmmEEE11_M_max_sizeEv
FNDA:0,_ZNK9__gnu_cxx13new_allocatorISt13_Rb_tree_nodeISt4pairIKmmEEE11_M_max_sizeEv
DA:79,0
DA:79,0
DA:82,0
DA:82,0
DA:89,0
DA:89,0
DA:103,0
DA:111,0
DA:115,0
DA:116,0
DA:117,0
DA:127,0
DA:103,0
DA:111,0
DA:115,0
DA:116,0
DA:117,0
DA:127,0
DA:132,0
DA:145,0
DA:132,0
DA:145,0
DA:154,16
DA:155,16
DA:160,0
DA:162,0
DA:160,12
DA:162,12
DA:166,0
DA:168,0
DA:166,0
DA:168,0
DA:197,0
DA:200,0
DA:197,0
DA:200,0
end_of_record
SF:/usr/include/c++/11/bits/stl_iterator_base_types.h
FN:238,_ZSt19__iterator_categoryIN9__gnu_cxx17__normal_iteratorIP4EdgeSt6vectorIS2_SaIS2_EEEEENSt15iterator_traitsIT_E17iterator_categoryERKS9_
FNDA:8,_ZSt19__iterator_categoryIN9__gnu_cxx17__normal_iteratorIP4EdgeSt6vectorIS2_SaIS2_EEEEENSt15iterator_traitsIT_E17iterator_categoryERKS9_
DA:238,8
DA:239,8
end_of_record
SF:/usr/include/c++/11/bits/stl_map.h
FN:185,_ZNSt3mapImmSt4lessImESaISt4pairIKmmEEEC2Ev
FNDA:0,_ZNSt3mapImmSt4lessImESaISt4pairIKmmEEEC2Ev
FN:207,_ZNSt3mapImmSt4lessImESaISt4pairIKmmEEEC2ERKS6_
FNDA:0,_ZNSt3mapImmSt4lessImESaISt4pairIKmmEEEC2ERKS6_
FN:302,_ZNSt3mapImmSt4lessImESaISt4pairIKmmEEED2Ev
FNDA:0,_ZNSt3mapImmSt4lessImESaISt4pairIKmmEEED2Ev
FN:356,_ZNSt3mapImmSt4lessImESaISt4pairIKmmEEE5beginEv
FNDA:3,_ZNSt3mapImmSt4lessImESaISt4pairIKmmEEE5beginEv
FN:374,_ZNSt3mapImmSt4lessImESaISt4pairIKmmEEE3endEv
FNDA:0,_ZNSt3mapImmSt4lessImESaISt4pairIKmmEEE3endEv
FN:1068,_ZNSt3mapImmSt4lessImESaISt4pairIKmmEEE5eraseERS3_
FNDA:0,_ZNSt3mapImmSt4lessImESaISt4pairIKmmEEE5eraseERS3_
FN:1133,_ZNSt3mapImmSt4lessImESaISt4pairIKmmEEE5clearEv
FNDA:0,_ZNSt3mapImmSt4lessImESaISt4pairIKmmEEE5clearEv
DA:185,0
DA:207,0
DA:302,0
DA:356,3
DA:357,3
DA:374,0
DA:375,0
DA:1068,0
DA:1069,0
DA:1133,0
DA:1134,0
end_of_record
SF:/usr/include/c++/11/new
FN:174,_ZnwmPv
FNDA:0,_ZnwmPv
FN:180,_ZdlPvS_
FNDA:0,_ZdlPvS_
DA:174,0
DA:175,0
DA:180,0
end_of_record
SF:/usr/include/c++/11/bits/cpp_type_traits.h
FN:560,_ZSt12__miter_baseIN9__gnu_cxx17__normal_iteratorIP4EdgeSt6vectorIS2_SaIS2_EEEEET_S8_
FNDA:0,_ZSt12__miter_baseIN9__gnu_cxx17__normal_iteratorIP4EdgeSt6vectorIS2_SaIS2_EEEEET_S8_
DA:560,0
DA:561,0
end_of_record
SF:/usr/include/c++/11/bits/predefined_ops.h
FN:262,_ZN9__gnu_cxx5__ops16_Iter_equals_valIK4EdgeEC2ERS3_
FNDA:8,_ZN9__gnu_cxx5__ops16_Iter_equals_valIK4EdgeEC2ERS3_
FN:269,_ZN9__gnu_cxx5__ops16_Iter_equals_valIK4EdgeEclINS_17__normal_iteratorIPS2_St6vectorIS2_SaIS2_EEEEEEbT_
FNDA:2,_ZN9__gnu_cxx5__ops16_Iter_equals_valIK4EdgeEclINS_17__normal_iteratorIPS2_St6vectorIS2_SaIS2_EEEEEEbT_
FN:276,_ZN9__gnu_cxx5__ops17__iter_equals_valIK4EdgeEENS0_16_Iter_equals_valIT_EERS5_
FNDA:8,_ZN9__gnu_cxx5__ops17__iter_equals_valIK4EdgeEENS0_16_Iter_equals_valIT_EERS5_
DA:262,8
DA:263,8
DA:264,8
DA:269,2
DA:270,2
DA:276,8
DA:277,8
end_of_record
SF:/usr/include/c++/11/bits/stl_vector.h
FN:97,_ZNSt12_Vector_baseI4EdgeSaIS0_EE17_Vector_impl_dataC2Ev
FNDA:0,_ZNSt12_Vector_baseI4EdgeSaIS0_EE17_Vector_impl_dataC2Ev
FN:131,_ZNSt12_Vector_baseI4EdgeSaIS0_EE12_Vector_implC2Ev
FNDA:0,_ZNSt12_Vector_baseI4EdgeSaIS0_EE12_Vector_implC2Ev
FN:136,_ZNSt12_Vector_baseI4EdgeSaIS0_EE12_Vector_implC2ERKS1_
FNDA:0,_ZNSt12_Vector_baseI4EdgeSaIS0_EE12_Vector_implC2ERKS1_
FN:276,_ZNSt12_Vector_baseI4EdgeSaIS0_EE19_M_get_Tp_allocatorEv
FNDA:0,_ZNSt12_Vector_baseI4EdgeSaIS0_EE19_M_get_Tp_allocatorEv
FN:280,_ZNKSt12_Vector_baseI4EdgeSaIS0_EE19_M_get_Tp_allocatorEv
FNDA:0,_ZNKSt12_Vector_baseI4EdgeSaIS0_EE19_M_get_Tp_allocatorEv
FN:288,_ZNSt12_Vector_baseI4EdgeSaIS0_EEC2Ev
FNDA:0,_ZNSt12_Vector_baseI4EdgeSaIS0_EEC2Ev
FN:303,_ZNSt12_Vector_baseI4EdgeSaIS0_EEC2EmRKS1_
FNDA:0,_ZNSt12_Vector_baseI4EdgeSaIS0_EEC2EmRKS1_
FN:333,_ZNSt12_Vector_baseI4EdgeSaIS0_EED2Ev
FNDA:0,_ZNSt12_Vector_baseI4EdgeSaIS0_EED2Ev
FN:343,_ZNSt12_Vector_baseI4EdgeSaIS0_EE11_M_allocateEm
FNDA:0,_ZNSt12_Vector_baseI4EdgeSaIS0_EE11_M_allocateEm
FN:350,_ZNSt12_Vector_baseI4EdgeSaIS0_EE13_M_deallocateEPS0_m
FNDA:0,_ZNSt12_Vector_baseI4EdgeSaIS0_EE13_M_deallocateEPS0_m
FN:359,_ZNSt12_Vector_baseI4EdgeSaIS0_EE17_M_create_storageEm
FNDA:0,_ZNSt12_Vector_baseI4EdgeSaIS0_EE17_M_create_storageEm
FN:487,_ZNSt6vectorI4EdgeSaIS0_EEC2Ev
FNDA:0,_ZNSt6vectorI4EdgeSaIS0_EEC2Ev
FN:553,_ZNSt6vectorI4EdgeSaIS0_EEC2ERKS2_
FNDA:0,_ZNSt6vectorI4EdgeSaIS0_EEC2ERKS2_
FN:678,_ZNSt6vectorI4EdgeSaIS0_EED2Ev
FNDA:0,_ZNSt6vectorI4EdgeSaIS0_EED2Ev
FN:811,_ZNSt6vectorI4EdgeSaIS0_EE5beginEv
FNDA:20,_ZNSt6vectorI4EdgeSaIS0_EE5beginEv
FN:820,_ZNKSt6vectorI4EdgeSaIS0_EE5beginEv
FNDA:0,_ZNKSt6vectorI4EdgeSaIS0_EE5beginEv
FN:829,_ZNSt6vectorI4EdgeSaIS0_EE3endEv
FNDA:28,_ZNSt6vectorI4EdgeSaIS0_EE3endEv
FN:838,_ZNKSt6vectorI4EdgeSaIS0_EE3endEv
FNDA:0,_ZNKSt6vectorI4EdgeSaIS0_EE3endEv
FN:884,_ZNKSt6vectorI4EdgeSaIS0_EE6cbeginEv
FNDA:0,_ZNKSt6vectorI4EdgeSaIS0_EE6cbeginEv
FN:918,_ZNKSt6vectorI4EdgeSaIS0_EE4sizeEv
FNDA:0,_ZNKSt6vectorI4EdgeSaIS0_EE4sizeEv
FN:923,_ZNKSt6vectorI4EdgeSaIS0_EE8max_sizeEv
FNDA:16,_ZNKSt6vectorI4EdgeSaIS0_EE8max_sizeEv
FN:1187,_ZNSt6vectorI4EdgeSaIS0_EE9push_backERKS0_
FNDA:12,_ZNSt6vectorI4EdgeSaIS0_EE9push_backERKS0_
FN:1457,_ZNSt6vectorI4EdgeSaIS0_EE5eraseEN9__gnu_cxx17__normal_iteratorIPKS0_S2_EES7_
FNDA:0,_ZNSt6vectorI4EdgeSaIS0_EE5eraseEN9__gnu_cxx17__normal_iteratorIPKS0_S2_EES7_
FN:1498,_ZNSt6vectorI4EdgeSaIS0_EE5clearEv
FNDA:3,_ZNSt6vectorI4EdgeSaIS0_EE5clearEv
FN:1756,_ZNKSt6vectorI4EdgeSaIS0_EE12_M_check_lenEmPKc
FNDA:8,_ZNKSt6vectorI4EdgeSaIS0_EE12_M_check_lenEmPKc
FN:1776,_ZNSt6vectorI4EdgeSaIS0_EE11_S_max_sizeERKS1_
FNDA:16,_ZNSt6vectorI4EdgeSaIS0_EE11_S_max_sizeERKS1_
FN:1792,_ZNSt6vectorI4EdgeSaIS0_EE15_M_erase_at_endEPS0_
FNDA:3,_ZNSt6vectorI4EdgeSaIS0_EE15_M_erase_at_endEPS0_
DA:97,0
DA:98,0
DA:99,0
DA:131,0
DA:133,0
DA:134,0
DA:136,0
DA:137,0
DA:138,0
DA:276,0
DA:277,0
DA:280,0
DA:281,0
DA:288,0
DA:303,0
DA:304,0
DA:305,0
DA:333,0
DA:335,0
DA:336,0
DA:337,0
DA:343,0
DA:346,0
DA:350,0
DA:353,0
DA:354,0
DA:355,0
DA:359,0
DA:361,0
DA:362,0
DA:363,0
DA:364,0
DA:487,0
DA:553,0
DA:555,0
DA:557,0
DA:558,0
DA:560,0
DA:561,0
DA:678,0
DA:680,0
DA:681,0
DA:683,0
DA:811,20
DA:812,20
DA:820,0
DA:821,0
DA:829,28
DA:830,28
DA:838,0
DA:839,0
DA:884,0
DA:885,0
DA:918,0
DA:919,0
DA:923,16
DA:924,16
DA:1187,12
DA:1189,12
DA:1192,4
DA:1194,4
DA:1198,8
DA:1199,12
DA:1457,0
DA:1459,0
DA:1460,0
DA:1461,0
DA:1498,3
DA:1499,3
DA:1756,8
DA:1758,8
DA:1759,0
DA:1761,8
DA:1762,8
DA:1776,16
DA:1781,16
DA:1783,16
DA:1784,16
DA:1792,3
DA:1794,3
DA:1796,3
DA:1797,3
DA:1798,3
DA:1801,3
end_of_record
SF:/usr/include/c++/11/bits/stl_construct.h
FN:109,_ZSt10_ConstructI4EdgeJRKS0_EEvPT_DpOT0_
FNDA:0,_ZSt10_ConstructI4EdgeJRKS0_EEvPT_DpOT0_
FN:146,_ZSt8_DestroyI4EdgeEvPT_
FNDA:0,_ZSt8_DestroyI4EdgeEvPT_
FN:160,_ZNSt12_Destroy_auxILb0EE9__destroyIP4EdgeEEvT_S4_
FNDA:0,_ZNSt12_Destroy_auxILb0EE9__destroyIP4EdgeEEvT_S4_
FN:182,_ZSt8_DestroyIP4EdgeEvT_S2_
FNDA:0,_ZSt8_DestroyIP4EdgeEvT_S2_
DA:109,0
DA:119,0
DA:120,0
DA:146,0
DA:151,0
DA:153,0
DA:160,0
DA:162,0
DA:163,0
DA:164,0
DA:182,0
DA:196,0
DA:197,0
end_of_record
SF:/usr/include/c++/11/bits/stl_uninitialized.h
FN:85,_ZNSt20__uninitialized_copyILb0EE13__uninit_copyIPK4EdgePS2_EET0_T_S7_S6_
FNDA:16,_ZNSt20__uninitialized_copyILb0EE13__uninit_copyIPK4EdgePS2_EET0_T_S7_S6_
FN:85,_ZNSt20__uninitialized_copyILb0EE13__uninit_copyIN9__gnu_cxx17__normal_iteratorIPK4EdgeSt6vectorIS4_SaIS4_EEEEPS4_EET0_T_SD_SC_
FNDA:0,_ZNSt20__uninitialized_copyILb0EE13__uninit_copyIN9__gnu_cxx17__normal_iteratorIPK4EdgeSt6vectorIS4_SaIS4_EEEEPS4_EET0_T_SD_SC_
FN:126,_ZSt18uninitialized_copyIPK4EdgePS0_ET0_T_S5_S4_
FNDA:16,_ZSt18uninitialized_copyIPK4EdgePS0_ET0_T_S5_S4_
FN:126,_ZSt18uninitialized_copyIN9__gnu_cxx17__normal_iteratorIPK4EdgeSt6vectorIS2_SaIS2_EEEEPS2_ET0_T_SB_SA_
FNDA:0,_ZSt18uninitialized_copyIN9__gnu_cxx17__normal_iteratorIPK4EdgeSt6vectorIS2_SaIS2_EEEEPS2_ET0_T_SB_SA_
FN:331,_ZSt22__uninitialized_copy_aIPK4EdgePS0_S0_ET0_T_S5_S4_RSaIT1_E
FNDA:16,_ZSt22__uninitialized_copy_aIPK4EdgePS0_S0_ET0_T_S5_S4_RSaIT1_E
FN:331,_ZSt22__uninitialized_copy_aIN9__gnu_cxx17__normal_iteratorIPK4EdgeSt6vectorIS2_SaIS2_EEEEPS2_S2_ET0_T_SB_SA_RSaIT1_E
FNDA:0,_ZSt22__uninitialized_copy_aIN9__gnu_cxx17__normal_iteratorIPK4EdgeSt6vectorIS2_SaIS2_EEEEPS2_S2_ET0_T_SB_SA_RSaIT1_E
FN:349,_ZSt34__uninitialized_move_if_noexcept_aIP4EdgeS1_SaIS0_EET0_T_S4_S3_RT1_
FNDA:16,_ZSt34__uninitialized_move_if_noexcept_aIP4EdgeS1_SaIS0_EET0_T_S4_S3_RT1_
DA:85,16
DA:88,16
DA:91,18
DA:92,2
DA:93,16
DA:95,0
DA:97,0
DA:98,0
DA:85,0
DA:88,0
DA:91,0
DA:92,0
DA:93,0
DA:95,0
DA:97,0
DA:98,0
DA:126,16
DA:145,16
DA:151,16
DA:126,0
DA:145,0
DA:151,0
DA:331,16
DA:333,16
DA:331,0
DA:333,0
DA:349,16
DA:355,16
DA:356,16
end_of_record
SF:/usr/include/c++/11/bits/alloc_traits.h
FN:463,_ZNSt16allocator_traitsISaISt13_Rb_tree_nodeISt4pairIKmmEEEE8allocateERS5_m
FNDA:0,_ZNSt16allocator_traitsISaISt13_Rb_tree_nodeISt4pairIKmmEEEE8allocateERS5_m
FN:463,_ZNSt16allocator_traitsISaI4EdgeEE8allocateERS1_m
FNDA:0,_ZNSt16allocator_traitsISaI4EdgeEE8allocateERS1_m
FN:495,_ZNSt16allocator_traitsISaISt13_Rb_tree_nodeISt4pairIKmmEEEE10deallocateERS5_PS4_m
FNDA:0,_ZNSt16allocator_traitsISaISt13_Rb_tree_nodeISt4pairIKmmEEEE10deallocateERS5_PS4_m
FN:495,_ZNSt16allocator_traitsISaI4EdgeEE10deallocateERS1_PS0_m
FNDA:0,_ZNSt16allocator_traitsISaI4EdgeEE10deallocateERS1_PS0_m
FN:511,_ZNSt16allocator_traitsISaISt13_Rb_tree_nodeISt4pairIKmmEEEE9constructIS3_JRKS3_EEEvRS5_PT_DpOT0_
FNDA:0,_ZNSt16allocator_traitsISaISt13_Rb_tree_nodeISt4pairIKmmEEEE9constructIS3_JRKS3_EEEvRS5_PT_DpOT0_
FN:511,_ZNSt16allocator_traitsISaI4EdgeEE9constructIS0_JRKS0_EEEvRS1_PT_DpOT0_
FNDA:12,_ZNSt16allocator_traitsISaI4EdgeEE9constructIS0_JRKS0_EEEvRS1_PT_DpOT0_
FN:531,_ZNSt16allocator_traitsISaISt13_Rb_tree_nodeISt4pairIKmmEEEE7destroyIS3_EEvRS5_PT_
FNDA:0,_ZNSt16allocator_traitsISaISt13_Rb_tree_nodeISt4pairIKmmEEEE7destroyIS3_EEvRS5_PT_
FN:531,_ZNSt16allocator_traitsISaI4EdgeEE7destroyIS0_EEvRS1_PT_
FNDA:0,_ZNSt16allocator_traitsISaI4EdgeEE7destroyIS0_EEvRS1_PT_
FN:547,_ZNSt16allocator_traitsISaI4EdgeEE8max_sizeERKS1_
FNDA:16,_ZNSt16allocator_traitsISaI4EdgeEE8max_sizeERKS1_
FN:562,_ZNSt16allocator_traitsISaISt13_Rb_tree_nodeISt4pairIKmmEEEE37select_on_container_copy_constructionERKS5_
FNDA:0,_ZNSt16allocator_traitsISaISt13_Rb_tree_nodeISt4pairIKmmEEEE37select_on_container_copy_constructionERKS5_
FN:562,_ZNSt16allocator_traitsISaI4EdgeEE37select_on_container_copy_constructionERKS1_
FNDA:0,_ZNSt16allocator_traitsISaI4EdgeEE37select_on_container_copy_constructionERKS1_
FN:845,_ZSt8_DestroyIP4EdgeS0_EvT_S2_RSaIT0_E
FNDA:0,_ZSt8_DestroyIP4EdgeS0_EvT_S2_RSaIT0_E
DA:463,0
DA:464,0
DA:463,0
DA:464,0
DA:495,0
DA:496,0
DA:495,0
DA:496,0
DA:511,0
DA:516,0
DA:520,0
DA:511,12
DA:516,12
DA:520,12
DA:531,0
DA:535,0
DA:539,0
DA:531,0
DA:535,0
DA:539,0
DA:547,16
DA:550,16
DA:562,0
DA:563,0
DA:562,0
DA:563,0
DA:845,0
DA:848,0
DA:849,0
end_of_record
SF:/usr/include/c++/11/bits/stl_pair.h
FN:352,_ZNSt4pairISt17_Rb_tree_iteratorIS_IKmmEES3_EC2IS3_S3_Lb1EEEOT_OT0_
FNDA:0,_ZNSt4pairISt17_Rb_tree_iteratorIS_IKmmEES3_EC2IS3_S3_Lb1EEEOT_OT0_
DA:352,0
DA:353,0
end_of_record
SF:/usr/include/c++/11/ext/aligned_buffer.h
FN:64,_ZN9__gnu_cxx16__aligned_membufISt4pairIKmmEE7_M_addrEv
FNDA:0,_ZN9__gnu_cxx16__aligned_membufISt4pairIKmmEE7_M_addrEv
FN:68,_ZNK9__gnu_cxx16__aligned_membufISt4pairIKmmEE7_M_addrEv
FNDA:0,_ZNK9__gnu_cxx16__aligned_membufISt4pairIKmmEE7_M_addrEv
FN:72,_ZN9__gnu_cxx16__aligned_membufISt4pairIKmmEE6_M_ptrEv
FNDA:0,_ZN9__gnu_cxx16__aligned_membufISt4pairIKmmEE6_M_ptrEv
FN:76,_ZNK9__gnu_cxx16__aligned_membufISt4pairIKmmEE6_M_ptrEv
FNDA:0,_ZNK9__gnu_cxx16__aligned_membufISt4pairIKmmEE6_M_ptrEv
DA:64,0
DA:65,0
DA:68,0
DA:69,0
DA:72,0
DA:73,0
DA:76,0
DA:77,0
end_of_record
SF:/usr/include/c++/11/bits/vector.tcc
FN:184,_ZNSt6vectorI4EdgeSaIS0_EE8_M_eraseEN9__gnu_cxx17__normal_iteratorIPS0_S2_EES6_
FNDA:0,_ZNSt6vectorI4EdgeSaIS0_EE8_M_eraseEN9__gnu_cxx17__normal_iteratorIPS0_S2_EES6_
FN:426,_ZNSt6vectorI4EdgeSaIS0_EE17_M_realloc_insertIJRKS0_EEEvN9__gnu_cxx17__normal_iteratorIPS0_S2_EEDpOT_
FNDA:8,_ZNSt6vectorI4EdgeSaIS0_EE17_M_realloc_insertIJRKS0_EEEvN9__gnu_cxx17__normal_iteratorIPS0_S2_EEDpOT_
DA:184,0
DA:187,0
DA:189,0
DA:190,0
DA:191,0
DA:193,0
DA:426,8
DA:436,8
DA:437,8
DA:438,8
DA:439,8
DA:440,8
DA:441,8
DA:449,8
DA:450,8
DA:456,8
DA:474,8
DA:475,8
DA:477,8
DA:481,8
DA:482,8
DA:485,0
DA:487,0
DA:488,0
DA:489,0
DA:491,0
DA:492,0
DA:493,0
DA:498,8
DA:500,8
DA:501,8
DA:502,8
DA:503,8
DA:504,8
DA:505,8
end_of_record
SF:/usr/include/c++/11/ext/alloc_traits.h
FN:97,_ZN9__gnu_cxx14__alloc_traitsISaISt13_Rb_tree_nodeISt4pairIKmmEEES5_E17_S_select_on_copyERKS6_
FNDA:0,_ZN9__gnu_cxx14__alloc_traitsISaISt13_Rb_tree_nodeISt4pairIKmmEEES5_E17_S_select_on_copyERKS6_
FN:97,_ZN9__gnu_cxx14__alloc_traitsISaI4EdgeES1_E17_S_select_on_copyERKS2_
FNDA:0,_ZN9__gnu_cxx14__alloc_traitsISaI4EdgeES1_E17_S_select_on_copyERKS2_
DA:97,0
DA:98,0
DA:97,0
DA:98,0
end_of_record
SF:/home/imri/OS-FinalProject/GraphObj/vertex.cpp
FN:6,_ZN6VertexC2Em
FNDA:4,_ZN6VertexC2Em
FN:10,_ZN6Vertex5getIdEv
FNDA:52,_ZN6Vertex5getIdEv
FN:11,_ZNK6Vertex5getIdEv
FNDA:12,_ZNK6Vertex5getIdEv
FN:14,_ZN6Vertex7addEdgeE4Edge
FNDA:8,_ZN6Vertex7addEdgeE4Edge
FN:21,_ZN6Vertex10removeEdgeE4Edge
FNDA:0,_ZN6Vertex10removeEdgeE4Edge
FN:28,_ZN6Vertex14removeAllEdgesEv
FNDA:3,_ZN6Vertex14removeAllEdgesEv
FN:35,_ZN6Vertex5beginEv
FNDA:4,_ZN6Vertex5beginEv
FN:39,_ZN6Vertex3endEv
FNDA:4,_ZN6Vertex3endEv
FN:44,_ZNK6Vertex6getAdjEv
FNDA:0,_ZNK6Vertex6getAdjEv
FN:49,_ZN6Vertex6getAdjEv
FNDA:11,_ZN6Vertex6getAdjEv
FN:55,_ZN6Vertex8adjBeginEv
FNDA:3,_ZN6Vertex8adjBeginEv
FN:60,_ZN6Vertex6adjEndEv
FNDA:7,_ZN6Vertex6adjEndEv
FN:66,_ZNK6Vertex7hasEdgeES_
FNDA:0,_ZNK6Vertex7hasEdgeES_
FN:76,_ZNK6VertexeqERKS_
FNDA:12,_ZNK6VertexeqERKS_
FN:81,_ZN6VertexaSERKS_
FNDA:7,_ZN6VertexaSERKS_
FN:91,_ZlsRSoRK6Vertex
FNDA:0,_ZlsRSoRK6Vertex
DA:6,4
DA:10,52
DA:11,12
DA:14,8
DA:16,8
DA:17,8
DA:18,8
DA:21,0
DA:23,0
DA:24,0
DA:25,0
DA:28,3
DA:30,3
DA:31,3
DA:32,3
DA:35,4
DA:37,4
DA:39,4
DA:41,4
DA:44,0
DA:46,0
DA:49,11
DA:51,11
DA:55,3
DA:57,3
DA:60,7
DA:62,7
DA:66,0
DA:68,0
DA:70,0
DA:71,0
DA:72,0
DA:73,0
DA:76,12
DA:78,12
DA:81,7
DA:83,7
DA:84,11
DA:86,4
DA:87,4
DA:88,7
DA:91,0
DA:93,0
DA:94,0
end_of_record
SF:/usr/include/c++/11/bits/stl_algo.h
FN:813,_ZSt11__remove_ifIN9__gnu_cxx17__normal_iteratorIP4EdgeSt6vectorIS2_SaIS2_EEEENS0_5__ops16_Iter_equals_valIKS2_EEET_SC_SC_T0_
FNDA:0,_ZSt11__remove_ifIN9__gnu_cxx17__normal_iteratorIP4EdgeSt6vectorIS2_SaIS2_EEEENS0_5__ops16_Iter_equals_valIKS2_EEET_SC_SC_T0_
FN:850,_ZSt6removeIN9__gnu_cxx17__normal_iteratorIP4EdgeSt6vectorIS2_SaIS2_EEEES2_ET_S8_S8_RKT0_
FNDA:0,_ZSt6removeIN9__gnu_cxx17__normal_iteratorIP4EdgeSt6vectorIS2_SaIS2_EEEES2_ET_S8_S8_RKT0_
FN:3876,_ZSt4findIN9__gnu_cxx17__normal_iteratorIP4EdgeSt6vectorIS2_SaIS2_EEEES2_ET_S8_S8_RKT0_
FNDA:8,_ZSt4findIN9__gnu_cxx17__normal_iteratorIP4EdgeSt6vectorIS2_SaIS2_EEEES2_ET_S8_S8_RKT0_
DA:813,0
DA:816,0
DA:817,0
DA:818,0
DA:819,0
DA:820,0
DA:821,0
DA:822,0
DA:824,0
DA:825,0
DA:827,0
DA:850,0
DA:860,0
DA:861,0
DA:3876,8
DA:3884,8
DA:3885,8
end_of_record
SF:/home/imri/OS-FinalProject/GraphObj/vertex.hpp
end_of_record
SF:/usr/include/c++/11/bits/stl_algobase.h
FN:230,_ZSt3minImERKT_S2_S2_
FNDA:0,_ZSt3minImERKT_S2_S2_
FN:254,_ZSt3maxImERKT_S2_S2_
FNDA:0,_ZSt3maxImERKT_S2_S2_
FN:328,_ZSt12__niter_wrapIN9__gnu_cxx17__normal_iteratorIP4EdgeSt6vectorIS2_SaIS2_EEEES3_ET_S8_T0_
FNDA:0,_ZSt12__niter_wrapIN9__gnu_cxx17__normal_iteratorIP4EdgeSt6vectorIS2_SaIS2_EEEES3_ET_S8_T0_
FN:400,_ZNSt11__copy_moveILb1ELb0ESt26random_access_iterator_tagE8__copy_mIP4EdgeS4_EET0_T_S6_S5_
FNDA:0,_ZNSt11__copy_moveILb1ELb0ESt26random_access_iterator_tagE8__copy_mIP4EdgeS4_EET0_T_S6_S5_
FN:486,_ZSt14__copy_move_a2ILb1EP4EdgeS1_ET1_T0_S3_S2_
FNDA:0,_ZSt14__copy_move_a2ILb1EP4EdgeS1_ET1_T0_S3_S2_
FN:521,_ZSt14__copy_move_a1ILb1EP4EdgeS1_ET1_T0_S3_S2_
FNDA:0,_ZSt14__copy_move_a1ILb1EP4EdgeS1_ET1_T0_S3_S2_
FN:527,_ZSt13__copy_move_aILb1EN9__gnu_cxx17__normal_iteratorIP4EdgeSt6vectorIS2_SaIS2_EEEES7_ET1_T0_S9_S8_
FNDA:0,_ZSt13__copy_move_aILb1EN9__gnu_cxx17__normal_iteratorIP4EdgeSt6vectorIS2_SaIS2_EEEES7_ET1_T0_S9_S8_
FN:644,_ZSt4moveIN9__gnu_cxx17__normal_iteratorIP4EdgeSt6vectorIS2_SaIS2_EEEES7_ET0_T_S9_S8_
FNDA:0,_ZSt4moveIN9__gnu_cxx17__normal_iteratorIP4EdgeSt6vectorIS2_SaIS2_EEEES7_ET0_T_S9_S8_
FN:2061,_ZSt9__find_ifIN9__gnu_cxx17__normal_iteratorIP4EdgeSt6vectorIS2_SaIS2_EEEENS0_5__ops16_Iter_equals_valIKS2_EEET_SC_SC_T0_St26random_access_iterator_tag
FNDA:8,_ZSt9__find_ifIN9__gnu_cxx17__normal_iteratorIP4EdgeSt6vectorIS2_SaIS2_EEEENS0_5__ops16_Iter_equals_valIKS2_EEET_SC_SC_T0_St26random_access_iterator_tag
FN:2112,_ZSt9__find_ifIN9__gnu_cxx17__normal_iteratorIP4EdgeSt6vectorIS2_SaIS2_EEEENS0_5__ops16_Iter_equals_valIKS2_EEET_SC_SC_T0_
FNDA:8,_ZSt9__find_ifIN9__gnu_cxx17__normal_iteratorIP4EdgeSt6vectorIS2_SaIS2_EEEENS0_5__ops16_Iter_equals_valIKS2_EEET_SC_SC_T0_
DA:230,0
DA:235,0
DA:236,0
DA:237,0
DA:254,0
DA:259,0
DA:260,0
DA:261,0
DA:328,0
DA:329,0
DA:400,0
DA:403,0
DA:405,0
DA:406,0
DA:407,0
DA:409,0
DA:486,0
DA:495,0
DA:521,0
DA:522,0
DA:527,0
DA:529,0
DA:532,0
DA:644,0
DA:652,0
DA:653,0
DA:2061,8
DA:2065,8
DA:2067,8
DA:2069,0
DA:2070,0
DA:2071,0
DA:2073,0
DA:2074,0
DA:2075,0
DA:2077,0
DA:2078,0
DA:2079,0
DA:2081,0
DA:2082,0
DA:2083,0
DA:2086,8
DA:2088,0
DA:2089,0
DA:2090,0
DA:2091,0
DA:2093,0
DA:2094,0
DA:2095,0
DA:2096,0
DA:2098,2
DA:2099,2
DA:2100,0
DA:2101,2
DA:2103,8
DA:2105,8
DA:2112,8
DA:2114,8
DA:2115,16
end_of_record
SF:/usr/include/c++/11/bits/move.h
FN:49,_ZSt11__addressofI4EdgeEPT_RS1_
FNDA:0,_ZSt11__addressofI4EdgeEPT_RS1_
FN:77,_ZSt7forwardIRKSt4pairIKmmEEOT_RNSt16remove_referenceIS5_E4typeE
FNDA:0,_ZSt7forwardIRKSt4pairIKmmEEOT_RNSt16remove_referenceIS5_E4typeE
FN:77,_ZSt7forwardISt17_Rb_tree_iteratorISt4pairIKmmEEEOT_RNSt16remove_referenceIS5_E4typeE
FNDA:0,_ZSt7forwardISt17_Rb_tree_iteratorISt4pairIKmmEEEOT_RNSt16remove_referenceIS5_E4typeE
FN:77,_ZSt7forwardIRK4EdgeEOT_RNSt16remove_referenceIS3_E4typeE
FNDA:0,_ZSt7forwardIRK4EdgeEOT_RNSt16remove_referenceIS3_E4typeE
FN:104,_ZSt4moveIR4EdgeEONSt16remove_referenceIT_E4typeEOS3_
FNDA:0,_ZSt4moveIR4EdgeEONSt16remove_referenceIT_E4typeEOS3_
DA:49,0
DA:50,0
DA:77,0
DA:78,0
DA:77,0
DA:78,0
DA:77,0
DA:78,0
DA:104,0
DA:105,0
end_of_record
SF:/usr/include/c++/11/bits/allocator.h
FN:156,_ZNSaISt13_Rb_tree_nodeISt4pairIKmmEEEC2Ev
FNDA:0,_ZNSaISt13_Rb_tree_nodeISt4pairIKmmEEEC2Ev
FN:156,_ZNSaI4EdgeEC2Ev
FNDA:0,_ZNSaI4EdgeEC2Ev
FN:159,_ZNSaI4EdgeEC2ERKS0_
FNDA:0,_ZNSaI4EdgeEC2ERKS0_
FN:159,_ZNSaISt13_Rb_tree_nodeISt4pairIKmmEEEC2ERKS4_
FNDA:0,_ZNSaISt13_Rb_tree_nodeISt4pairIKmmEEEC2ERKS4_
FN:174,_ZNSaISt13_Rb_tree_nodeISt4pairIKmmEEED2Ev
FNDA:0,_ZNSaISt13_Rb_tree_nodeISt4pairIKmmEEED2Ev
FN:174,_ZNSaI4EdgeED2Ev
FNDA:0,_ZNSaI4EdgeED2Ev
DA:156,0
DA:156,0
DA:159,0
DA:160,0
DA:159,0
DA:160,0
DA:174,0
DA:174,0
end_of_record
SF:/usr/include/c++/11/bits/stl_tree.h
FN:112,_ZNSt18_Rb_tree_node_base10_S_minimumEPS_
FNDA:0,_ZNSt18_Rb_tree_node_base10_S_minimumEPS_
FN:126,_ZNSt18_Rb_tree_node_base10_S_maximumEPS_
FNDA:0,_ZNSt18_Rb_tree_node_base10_S_maximumEPS_
FN:146,_ZNSt20_Rb_tree_key_compareISt4lessImEEC2Ev
FNDA:0,_ZNSt20_Rb_tree_key_compareISt4lessImEEC2Ev
FN:152,_ZNSt20_Rb_tree_key_compareISt4lessImEEC2ERKS1_
FNDA:0,_ZNSt20_Rb_tree_key_compareISt4lessImEEC2ERKS1_
FN:173,_ZNSt15_Rb_tree_headerC2Ev
FNDA:0,_ZNSt15_Rb_tree_headerC2Ev
FN:206,_ZNSt15_Rb_tree_header8_M_resetEv
FNDA:0,_ZNSt15_Rb_tree_header8_M_resetEv
FN:234,_ZNSt13_Rb_tree_nodeISt4pairIKmmEE9_M_valptrEv
FNDA:0,_ZNSt13_Rb_tree_nodeISt4pairIKmmEE9_M_valptrEv
FN:238,_ZNKSt13_Rb_tree_nodeISt4pairIKmmEE9_M_valptrEv
FNDA:0,_ZNKSt13_Rb_tree_nodeISt4pairIKmmEE9_M_valptrEv
FN:273,_ZNSt17_Rb_tree_iteratorISt4pairIKmmEEC2EPSt18_Rb_tree_node_base
FNDA:0,_ZNSt17_Rb_tree_iteratorISt4pairIKmmEEC2EPSt18_Rb_tree_node_base
FN:350,_ZNSt23_Rb_tree_const_iteratorISt4pairIKmmEEC2ERKSt17_Rb_tree_iteratorIS2_E
FNDA:0,_ZNSt23_Rb_tree_const_iteratorISt4pairIKmmEEC2ERKSt17_Rb_tree_iteratorIS2_E
FN:373,_ZNSt23_Rb_tree_const_iteratorISt4pairIKmmEEppEi
FNDA:0,_ZNSt23_Rb_tree_const_iteratorISt4pairIKmmEEppEi
FN:396,_ZSteqRKSt23_Rb_tree_const_iteratorISt4pairIKmmEES5_
FNDA:0,_ZSteqRKSt23_Rb_tree_const_iteratorISt4pairIKmmEES5_
FN:401,_ZStneRKSt23_Rb_tree_const_iteratorISt4pairIKmmEES5_
FNDA:0,_ZStneRKSt23_Rb_tree_const_iteratorISt4pairIKmmEES5_
FN:523,_ZNSt8_Rb_treeImSt4pairIKmmESt10_Select1stIS2_ESt4lessImESaIS2_EE11_Alloc_nodeC2ERS8_
FNDA:0,_ZNSt8_Rb_treeImSt4pairIKmmESt10_Select1stIS2_ESt4lessImESaIS2_EE11_Alloc_nodeC2ERS8_
FN:528,_ZNKSt8_Rb_treeImSt4pairIKmmESt10_Select1stIS2_ESt4lessImESaIS2_EE11_Alloc_nodeclIRKS2_EEPSt13_Rb_tree_nodeIS2_EOT_
FNDA:0,_ZNKSt8_Rb_treeImSt4pairIKmmESt10_Select1stIS2_ESt4lessImESaIS2_EE11_Alloc_nodeclIRKS2_EEPSt13_Rb_tree_nodeIS2_EOT_
FN:547,_ZNSt8_Rb_treeImSt4pairIKmmESt10_Select1stIS2_ESt4lessImESaIS2_EE21_M_get_Node_allocatorEv
FNDA:0,_ZNSt8_Rb_treeImSt4pairIKmmESt10_Select1stIS2_ESt4lessImESaIS2_EE21_M_get_Node_allocatorEv
FN:560,_ZNSt8_Rb_treeImSt4pairIKmmESt10_Select1stIS2_ESt4lessImESaIS2_EE11_M_get_nodeEv
FNDA:0,_ZNSt8_Rb_treeImSt4pairIKmmESt10_Select1stIS2_ESt4lessImESaIS2_EE11_M_get_nodeEv
FN:564,_ZNSt8_Rb_treeImSt4pairIKmmESt10_Select1stIS2_ESt4lessImESaIS2_EE11_M_put_nodeEPSt13_Rb_tree_nodeIS2_E
FNDA:0,_ZNSt8_Rb_treeImSt4pairIKmmESt10_Select1stIS2_ESt4lessImESaIS2_EE11_M_put_nodeEPSt13_Rb_tree_nodeIS2_E
FN:590,_ZNSt8_Rb_treeImSt4pairIKmmESt10_Select1stIS2_ESt4lessImESaIS2_EE17_M_construct_nodeIJRKS2_EEEvPSt13_Rb_tree_nodeIS2_EDpOT_
FNDA:0,_ZNSt8_Rb_treeImSt4pairIKmmESt10_Select1stIS2_ESt4lessImESaIS2_EE17_M_construct_nodeIJRKS2_EEEvPSt13_Rb_tree_nodeIS2_EDpOT_
FN:609,_ZNSt8_Rb_treeImSt4pairIKmmESt10_Select1stIS2_ESt4lessImESaIS2_EE14_M_create_nodeIJRKS2_EEEPSt13_Rb_tree_nodeIS2_EDpOT_
FNDA:0,_ZNSt8_Rb_treeImSt4pairIKmmESt10_Select1stIS2_ESt4lessImESaIS2_EE14_M_create_nodeIJRKS2_EEEPSt13_Rb_tree_nodeIS2_EDpOT_
FN:618,_ZNSt8_Rb_treeImSt4pairIKmmESt10_Select1stIS2_ESt4lessImESaIS2_EE15_M_destroy_nodeEPSt13_Rb_tree_nodeIS2_E
FNDA:0,_ZNSt8_Rb_treeImSt4pairIKmmESt10_Select1stIS2_ESt4lessImESaIS2_EE15_M_destroy_nodeEPSt13_Rb_tree_nodeIS2_E
FN:629,_ZNSt8_Rb_treeImSt4pairIKmmESt10_Select1stIS2_ESt4lessImESaIS2_EE12_M_drop_nodeEPSt13_Rb_tree_nodeIS2_E
FNDA:0,_ZNSt8_Rb_treeImSt4pairIKmmESt10_Select1stIS2_ESt4lessImESaIS2_EE12_M_drop_nodeEPSt13_Rb_tree_nodeIS2_E
FN:637,_ZNSt8_Rb_treeImSt4pairIKmmESt10_Select1stIS2_ESt4lessImESaIS2_EE13_M_clone_nodeILb0ENS8_11_Alloc_nodeEEEPSt13_Rb_tree_nodeIS2_ESD_RT0_
FNDA:0,_ZNSt8_Rb_treeImSt4pairIKmmESt10_Select1stIS2_ESt4lessImESaIS2_EE13_M_clone_nodeILb0ENS8_11_Alloc_nodeEEEPSt13_Rb_tree_nodeIS2_ESD_RT0_
FN:667,_ZNSt8_Rb_treeImSt4pairIKmmESt10_Select1stIS2_ESt4lessImESaIS2_EE13_Rb_tree_implIS6_Lb1EEC2Ev
FNDA:0,_ZNSt8_Rb_treeImSt4pairIKmmESt10_Select1stIS2_ESt4lessImESaIS2_EE13_Rb_tree_implIS6_Lb1EEC2Ev
FN:674,_ZNSt8_Rb_treeImSt4pairIKmmESt10_Select1stIS2_ESt4lessImESaIS2_EE13_Rb_tree_implIS6_Lb1EEC2ERKSA_
FNDA:0,_ZNSt8_Rb_treeImSt4pairIKmmESt10_Select1stIS2_ESt4lessImESaIS2_EE13_Rb_tree_implIS6_Lb1EEC2ERKSA_
FN:710,_ZNSt8_Rb_treeImSt4pairIKmmESt10_Select1stIS2_ESt4lessImESaIS2_EE7_M_rootEv
FNDA:0,_ZNSt8_Rb_treeImSt4pairIKmmESt10_Select1stIS2_ESt4lessImESaIS2_EE7_M_rootEv
FN:714,_ZNKSt8_Rb_treeImSt4pairIKmmESt10_Select1stIS2_ESt4lessImESaIS2_EE7_M_rootEv
FNDA:0,_ZNKSt8_Rb_treeImSt4pairIKmmESt10_Select1stIS2_ESt4lessImESaIS2_EE7_M_rootEv
FN:718,_ZNSt8_Rb_treeImSt4pairIKmmESt10_Select1stIS2_ESt4lessImESaIS2_EE11_M_leftmostEv
FNDA:0,_ZNSt8_Rb_treeImSt4pairIKmmESt10_Select1stIS2_ESt4lessImESaIS2_EE11_M_leftmostEv
FN:726,_ZNSt8_Rb_treeImSt4pairIKmmESt10_Select1stIS2_ESt4lessImESaIS2_EE12_M_rightmostEv
FNDA:0,_ZNSt8_Rb_treeImSt4pairIKmmESt10_Select1stIS2_ESt4lessImESaIS2_EE12_M_rightmostEv
FN:734,_ZNKSt8_Rb_treeImSt4pairIKmmESt10_Select1stIS2_ESt4lessImESaIS2_EE9_M_mbeginEv
FNDA:0,_ZNKSt8_Rb_treeImSt4pairIKmmESt10_Select1stIS2_ESt4lessImESaIS2_EE9_M_mbeginEv
FN:738,_ZNSt8_Rb_treeImSt4pairIKmmESt10_Select1stIS2_ESt4lessImESaIS2_EE8_M_beginEv
FNDA:0,_ZNSt8_Rb_treeImSt4pairIKmmESt10_Select1stIS2_ESt4lessImESaIS2_EE8_M_beginEv
FN:749,_ZNSt8_Rb_treeImSt4pairIKmmESt10_Select1stIS2_ESt4lessImESaIS2_EE6_M_endEv
FNDA:0,_ZNSt8_Rb_treeImSt4pairIKmmESt10_Select1stIS2_ESt4lessImESaIS2_EE6_M_endEv
FN:757,_ZNSt8_Rb_treeImSt4pairIKmmESt10_Select1stIS2_ESt4lessImESaIS2_EE6_S_keyEPKSt13_Rb_tree_nodeIS2_E
FNDA:0,_ZNSt8_Rb_treeImSt4pairIKmmESt10_Select1stIS2_ESt4lessImESaIS2_EE6_S_keyEPKSt13_Rb_tree_nodeIS2_E
FN:779,_ZNSt8_Rb_treeImSt4pairIKmmESt10_Select1stIS2_ESt4lessImESaIS2_EE7_S_leftEPSt18_Rb_tree_node_base
FNDA:0,_ZNSt8_Rb_treeImSt4pairIKmmESt10_Select1stIS2_ESt4lessImESaIS2_EE7_S_leftEPSt18_Rb_tree_node_base
FN:787,_ZNSt8_Rb_treeImSt4pairIKmmESt10_Select1stIS2_ESt4lessImESaIS2_EE8_S_rightEPSt18_Rb_tree_node_base
FNDA:0,_ZNSt8_Rb_treeImSt4pairIKmmESt10_Select1stIS2_ESt4lessImESaIS2_EE8_S_rightEPSt18_Rb_tree_node_base
FN:799,_ZNSt8_Rb_treeImSt4pairIKmmESt10_Select1stIS2_ESt4lessImESaIS2_EE10_S_minimumEPSt18_Rb_tree_node_base
FNDA:0,_ZNSt8_Rb_treeImSt4pairIKmmESt10_Select1stIS2_ESt4lessImESaIS2_EE10_S_minimumEPSt18_Rb_tree_node_base
FN:807,_ZNSt8_Rb_treeImSt4pairIKmmESt10_Select1stIS2_ESt4lessImESaIS2_EE10_S_maximumEPSt18_Rb_tree_node_base
FNDA:0,_ZNSt8_Rb_treeImSt4pairIKmmESt10_Select1stIS2_ESt4lessImESaIS2_EE10_S_maximumEPSt18_Rb_tree_node_base
FN:887,_ZNSt8_Rb_treeImSt4pairIKmmESt10_Select1stIS2_ESt4lessImESaIS2_EE7_M_copyILb0ENS8_11_Alloc_nodeEEEPSt13_Rb_tree_nodeIS2_ERKS8_RT0_
FNDA:0,_ZNSt8_Rb_treeImSt4pairIKmmESt10_Select1stIS2_ESt4lessImESaIS2_EE7_M_copyILb0ENS8_11_Alloc_nodeEEEPSt13_Rb_tree_nodeIS2_ERKS8_RT0_
FN:898,_ZNSt8_Rb_treeImSt4pairIKmmESt10_Select1stIS2_ESt4lessImESaIS2_EE7_M_copyERKS8_
FNDA:0,_ZNSt8_Rb_treeImSt4pairIKmmESt10_Select1stIS2_ESt4lessImESaIS2_EE7_M_copyERKS8_
FN:928,_ZNSt8_Rb_treeImSt4pairIKmmESt10_Select1stIS2_ESt4lessImESaIS2_EEC2Ev
FNDA:0,_ZNSt8_Rb_treeImSt4pairIKmmESt10_Select1stIS2_ESt4lessImESaIS2_EEC2Ev
FN:935,_ZNSt8_Rb_treeImSt4pairIKmmESt10_Select1stIS2_ESt4lessImESaIS2_EEC2ERKS8_
FNDA:0,_ZNSt8_Rb_treeImSt4pairIKmmESt10_Select1stIS2_ESt4lessImESaIS2_EEC2ERKS8_
FN:983,_ZNSt8_Rb_treeImSt4pairIKmmESt10_Select1stIS2_ESt4lessImESaIS2_EED2Ev
FNDA:0,_ZNSt8_Rb_treeImSt4pairIKmmESt10_Select1stIS2_ESt4lessImESaIS2_EED2Ev
FN:995,_ZNSt8_Rb_treeImSt4pairIKmmESt10_Select1stIS2_ESt4lessImESaIS2_EE5beginEv
FNDA:0,_ZNSt8_Rb_treeImSt4pairIKmmESt10_Select1stIS2_ESt4lessImESaIS2_EE5beginEv
FN:1003,_ZNSt8_Rb_treeImSt4pairIKmmESt10_Select1stIS2_ESt4lessImESaIS2_EE3endEv
FNDA:0,_ZNSt8_Rb_treeImSt4pairIKmmESt10_Select1stIS2_ESt4lessImESaIS2_EE3endEv
FN:1031,_ZNKSt8_Rb_treeImSt4pairIKmmESt10_Select1stIS2_ESt4lessImESaIS2_EE4sizeEv
FNDA:0,_ZNKSt8_Rb_treeImSt4pairIKmmESt10_Select1stIS2_ESt4lessImESaIS2_EE4sizeEv
FN:1252,_ZNSt8_Rb_treeImSt4pairIKmmESt10_Select1stIS2_ESt4lessImESaIS2_EE5clearEv
FNDA:0,_ZNSt8_Rb_treeImSt4pairIKmmESt10_Select1stIS2_ESt4lessImESaIS2_EE5clearEv
FN:1845,_ZNSt8_Rb_treeImSt4pairIKmmESt10_Select1stIS2_ESt4lessImESaIS2_EE7_M_copyILb0ENS8_11_Alloc_nodeEEEPSt13_Rb_tree_nodeIS2_ESD_PSt18_Rb_tree_node_baseRT0_
FNDA:0,_ZNSt8_Rb_treeImSt4pairIKmmESt10_Select1stIS2_ESt4lessImESaIS2_EE7_M_copyILb0ENS8_11_Alloc_nodeEEEPSt13_Rb_tree_nodeIS2_ESD_PSt18_Rb_tree_node_baseRT0_
FN:1883,_ZNSt8_Rb_treeImSt4pairIKmmESt10_Select1stIS2_ESt4lessImESaIS2_EE8_M_eraseEPSt13_Rb_tree_nodeIS2_E
FNDA:0,_ZNSt8_Rb_treeImSt4pairIKmmESt10_Select1stIS2_ESt4lessImESaIS2_EE8_M_eraseEPSt13_Rb_tree_nodeIS2_E
FN:1900,_ZNSt8_Rb_treeImSt4pairIKmmESt10_Select1stIS2_ESt4lessImESaIS2_EE14_M_lower_boundEPSt13_Rb_tree_nodeIS2_EPSt18_Rb_tree_node_baseRS1_
FNDA:0,_ZNSt8_Rb_treeImSt4pairIKmmESt10_Select1stIS2_ESt4lessImESaIS2_EE14_M_lower_boundEPSt13_Rb_tree_nodeIS2_EPSt18_Rb_tree_node_baseRS1_
FN:1932,_ZNSt8_Rb_treeImSt4pairIKmmESt10_Select1stIS2_ESt4lessImESaIS2_EE14_M_upper_boundEPSt13_Rb_tree_nodeIS2_EPSt18_Rb_tree_node_baseRS1_
FNDA:0,_ZNSt8_Rb_treeImSt4pairIKmmESt10_Select1stIS2_ESt4lessImESaIS2_EE14_M_upper_boundEPSt13_Rb_tree_nodeIS2_EPSt18_Rb_tree_node_baseRS1_
FN:1966,_ZNSt8_Rb_treeImSt4pairIKmmESt10_Select1stIS2_ESt4lessImESaIS2_EE11equal_rangeERS1_
FNDA:0,_ZNSt8_Rb_treeImSt4pairIKmmESt10_Select1stIS2_ESt4lessImESaIS2_EE11equal_rangeERS1_
FN:2480,_ZNSt8_Rb_treeImSt4pairIKmmESt10_Select1stIS2_ESt4lessImESaIS2_EE12_M_erase_auxESt23_Rb_tree_const_iteratorIS2_E
FNDA:0,_ZNSt8_Rb_treeImSt4pairIKmmESt10_Select1stIS2_ESt4lessImESaIS2_EE12_M_erase_auxESt23_Rb_tree_const_iteratorIS2_E
FN:2494,_ZNSt8_Rb_treeImSt4pairIKmmESt10_Select1stIS2_ESt4lessImESaIS2_EE12_M_erase_auxESt23_Rb_tree_const_iteratorIS2_ESA_
FNDA:0,_ZNSt8_Rb_treeImSt4pairIKmmESt10_Select1stIS2_ESt4lessImESaIS2_EE12_M_erase_auxESt23_Rb_tree_const_iteratorIS2_ESA_
FN:2507,_ZNSt8_Rb_treeImSt4pairIKmmESt10_Select1stIS2_ESt4lessImESaIS2_EE5eraseERS1_
FNDA:0,_ZNSt8_Rb_treeImSt4pairIKmmESt10_Select1stIS2_ESt4lessImESaIS2_EE5eraseERS1_
DA:112,0
DA:114,0
DA:115,0
DA:126,0
DA:128,0
DA:129,0
DA:146,0
DA:150,0
DA:152,0
DA:154,0
DA:173,0
DA:174,0
DA:175,0
DA:176,0
DA:177,0
DA:206,0
DA:208,0
DA:209,0
DA:210,0
DA:211,0
DA:212,0
DA:234,0
DA:235,0
DA:238,0
DA:239,0
DA:273,0
DA:274,0
DA:350,0
DA:351,0
DA:373,0
DA:375,0
DA:376,0
DA:377,0
DA:396,0
DA:397,0
DA:401,0
DA:402,0
DA:523,0
DA:524,0
DA:528,0
DA:529,0
DA:547,0
DA:548,0
DA:560,0
DA:561,0
DA:564,0
DA:565,0
DA:590,0
DA:594,0
DA:595,0
DA:605,0
DA:609,0
DA:611,0
DA:612,0
DA:613,0
DA:618,0
DA:623,0
DA:624,0
DA:626,0
DA:629,0
DA:631,0
DA:632,0
DA:633,0
DA:637,0
DA:645,0
DA:646,0
DA:647,0
DA:648,0
DA:649,0
DA:667,0
DA:671,0
DA:672,0
DA:674,0
DA:676,0
DA:677,0
DA:678,0
DA:710,0
DA:711,0
DA:714,0
DA:715,0
DA:718,0
DA:719,0
DA:726,0
DA:727,0
DA:734,0
DA:735,0
DA:738,0
DA:739,0
DA:749,0
DA:750,0
DA:757,0
DA:775,0
DA:779,0
DA:780,0
DA:787,0
DA:788,0
DA:799,0
DA:800,0
DA:807,0
DA:808,0
DA:887,0
DA:890,0
DA:891,0
DA:892,0
DA:893,0
DA:894,0
DA:898,0
DA:900,0
DA:901,0
DA:928,0
DA:935,0
DA:936,0
DA:938,0
DA:939,0
DA:940,0
DA:983,0
DA:984,0
DA:995,0
DA:996,0
DA:1003,0
DA:1004,0
DA:1031,0
DA:1032,0
DA:1252,0
DA:1254,0
DA:1255,0
DA:1256,0
DA:1845,0
DA:1849,0
DA:1850,0
DA:1854,0
DA:1855,0
DA:1856,0
DA:1857,0
DA:1858,0
DA:1860,0
DA:1862,0
DA:1863,0
DA:1864,0
DA:1865,0
DA:1866,0
DA:1868,0
DA:1869,0
DA:1872,0
DA:1874,0
DA:1875,0
DA:1877,0
DA:1883,0
DA:1887,0
DA:1889,0
DA:1890,0
DA:1891,0
DA:1892,0
DA:1894,0
DA:1900,0
DA:1904,0
DA:1905,0
DA:1906,0
DA:1908,0
DA:1909,0
DA:1932,0
DA:1936,0
DA:1937,0
DA:1938,0
DA:1940,0
DA:1941,0
DA:1966,0
DA:1969,0
DA:1970,0
DA:1971,0
DA:1973,0
DA:1974,0
DA:1975,0
DA:1976,0
DA:1979,0
DA:1980,0
DA:1981,0
DA:1982,0
DA:1983,0
DA:1984,0
DA:1985,0
DA:1988,0
DA:1989,0
DA:2480,0
DA:2485,0
DA:2486,0
DA:2487,0
DA:2488,0
DA:2489,0
DA:2494,0
DA:2497,0
DA:2498,0
DA:2500,0
DA:2501,0
DA:2502,0
DA:2507,0
DA:2510,0
DA:2511,0
DA:2512,0
DA:2513,0
end_of_record
SF:/usr/include/c++/11/iostream
end_of_record
TN:
SF:/usr/include/c++/11/bits/char_traits.h
FN:106,_ZN9__gnu_cxx11char_traitsIcE2eqERKcS3_
FNDA:0,_ZN9__gnu_cxx11char_traitsIcE2eqERKcS3_
FN:167,_ZN9__gnu_cxx11char_traitsIcE6lengthEPKc
FNDA:0,_ZN9__gnu_cxx11char_traitsIcE6lengthEPKc
FN:393,_ZNSt11char_traitsIcE6lengthEPKc
FNDA:42,_ZNSt11char_traitsIcE6lengthEPKc
FN:429,_ZNSt11char_traitsIcE4copyEPcPKcm
FNDA:0,_ZNSt11char_traitsIcE4copyEPcPKcm
DA:106,0
DA:107,0
DA:167,0
DA:170,0
DA:171,0
DA:172,0
DA:173,0
DA:290,42
DA:393,42
DA:396,42
DA:397,0
DA:399,42
DA:429,0
DA:431,0
DA:432,0
DA:437,0
end_of_record
SF:/usr/include/c++/11/new
FN:174,_ZnwmPv
FNDA:0,_ZnwmPv
FN:180,_ZdlPvS_
FNDA:0,_ZdlPvS_
DA:174,0
DA:175,0
DA:180,0
end_of_record
SF:/usr/include/c++/11/bits/cpp_type_traits.h
FN:560,_ZSt12__miter_baseIN9__gnu_cxx17__normal_iteratorIPKmSt6vectorImSaImEEEEET_S8_
FNDA:42,_ZSt12__miter_baseIN9__gnu_cxx17__normal_iteratorIPKmSt6vectorImSaImEEEEET_S8_
FN:560,_ZSt12__miter_baseIPPmET_S2_
FNDA:0,_ZSt12__miter_baseIPPmET_S2_
DA:560,42
DA:561,42
DA:560,0
DA:561,0
end_of_record
SF:/usr/include/c++/11/bits/stl_vector.h
FN:97,_ZNSt12_Vector_baseISt6vectorImSaImEESaIS2_EE17_Vector_impl_dataC2Ev
FNDA:27,_ZNSt12_Vector_baseISt6vectorImSaImEESaIS2_EE17_Vector_impl_dataC2Ev
FN:97,_ZNSt12_Vector_baseIiSaIiEE17_Vector_impl_dataC2Ev
FNDA:5,_ZNSt12_Vector_baseIiSaIiEE17_Vector_impl_dataC2Ev
FN:97,_ZNSt12_Vector_baseI4EdgeSaIS0_EE17_Vector_impl_dataC2Ev
FNDA:0,_ZNSt12_Vector_baseI4EdgeSaIS0_EE17_Vector_impl_dataC2Ev
FN:97,_ZNSt12_Vector_baseImSaImEE17_Vector_impl_dataC2Ev
FNDA:24,_ZNSt12_Vector_baseImSaImEE17_Vector_impl_dataC2Ev
FN:102,_ZNSt12_Vector_baseISt6vectorImSaImEESaIS2_EE17_Vector_impl_dataC2EOS5_
FNDA:0,_ZNSt12_Vector_baseISt6vectorImSaImEESaIS2_EE17_Vector_impl_dataC2EOS5_
FN:109,_ZNSt12_Vector_baseISt6vectorImSaImEESaIS2_EE17_Vector_impl_data12_M_copy_dataERKS5_
FNDA:24,_ZNSt12_Vector_baseISt6vectorImSaImEESaIS2_EE17_Vector_impl_data12_M_copy_dataERKS5_
FN:117,_ZNSt12_Vector_baseISt6vectorImSaImEESaIS2_EE17_Vector_impl_data12_M_swap_dataERS5_
FNDA:8,_ZNSt12_Vector_baseISt6vectorImSaImEESaIS2_EE17_Vector_impl_data12_M_swap_dataERS5_
FN:131,_ZNSt12_Vector_baseI4EdgeSaIS0_EE12_Vector_implC2Ev
FNDA:11,_ZNSt12_Vector_baseI4EdgeSaIS0_EE12_Vector_implC2Ev
FN:131,_ZNSt12_Vector_baseIiSaIiEE12_Vector_implC2Ev
FNDA:3,_ZNSt12_Vector_baseIiSaIiEE12_Vector_implC2Ev
FN:131,_ZNSt12_Vector_baseISt6vectorImSaImEESaIS2_EE12_Vector_implC2Ev
FNDA:8,_ZNSt12_Vector_baseISt6vectorImSaImEESaIS2_EE12_Vector_implC2Ev
FN:136,_ZNSt12_Vector_baseImSaImEE12_Vector_implC2ERKS0_
FNDA:24,_ZNSt12_Vector_baseImSaImEE12_Vector_implC2ERKS0_
FN:136,_ZNSt12_Vector_baseI4EdgeSaIS0_EE12_Vector_implC2ERKS1_
FNDA:0,_ZNSt12_Vector_baseI4EdgeSaIS0_EE12_Vector_implC2ERKS1_
FN:136,_ZNSt12_Vector_baseISt6vectorImSaImEESaIS2_EE12_Vector_implC2ERKS3_
FNDA:11,_ZNSt12_Vector_baseISt6vectorImSaImEESaIS2_EE12_Vector_implC2ERKS3_
FN:143,_ZNSt12_Vector_baseISt6vectorImSaImEESaIS2_EE12_Vector_implC2EOS5_
FNDA:0,_ZNSt12_Vector_baseISt6vectorImSaImEESaIS2_EE12_Vector_implC2EOS5_
FN:276,_ZNSt12_Vector_baseISt6vectorImSaImEESaIS2_EE19_M_get_Tp_allocatorEv
FNDA:34,_ZNSt12_Vector_baseISt6vectorImSaImEESaIS2_EE19_M_get_Tp_allocatorEv
FN:276,_ZNSt12_Vector_baseImSaImEE19_M_get_Tp_allocatorEv
FNDA:48,_ZNSt12_Vector_baseImSaImEE19_M_get_Tp_allocatorEv
FN:276,_ZNSt12_Vector_baseI4EdgeSaIS0_EE19_M_get_Tp_allocatorEv
FNDA:0,_ZNSt12_Vector_baseI4EdgeSaIS0_EE19_M_get_Tp_allocatorEv
FN:276,_ZNSt12_Vector_baseIiSaIiEE19_M_get_Tp_allocatorEv
FNDA:21,_ZNSt12_Vector_baseIiSaIiEE19_M_get_Tp_allocatorEv
FN:280,_ZNKSt12_Vector_baseI4EdgeSaIS0_EE19_M_get_Tp_allocatorEv
FNDA:0,_ZNKSt12_Vector_baseI4EdgeSaIS0_EE19_M_get_Tp_allocatorEv
FN:280,_ZNKSt12_Vector_baseImSaImEE19_M_get_Tp_allocatorEv
FNDA:21,_ZNKSt12_Vector_baseImSaImEE19_M_get_Tp_allocatorEv
FN:280,_ZNKSt12_Vector_baseIiSaIiEE19_M_get_Tp_allocatorEv
FNDA:14,_ZNKSt12_Vector_baseIiSaIiEE19_M_get_Tp_allocatorEv
FN:280,_ZNKSt12_Vector_baseISt6vectorImSaImEESaIS2_EE19_M_get_Tp_allocatorEv
FNDA:8,_ZNKSt12_Vector_baseISt6vectorImSaImEESaIS2_EE19_M_get_Tp_allocatorEv
FN:284,_ZNKSt12_Vector_baseISt6vectorImSaImEESaIS2_EE13get_allocatorEv
FNDA:4,_ZNKSt12_Vector_baseISt6vectorImSaImEESaIS2_EE13get_allocatorEv
FN:288,_ZNSt12_Vector_baseISt6vectorImSaImEESaIS2_EEC2Ev
FNDA:8,_ZNSt12_Vector_baseISt6vectorImSaImEESaIS2_EEC2Ev
FN:288,_ZNSt12_Vector_baseI4EdgeSaIS0_EEC2Ev
FNDA:11,_ZNSt12_Vector_baseI4EdgeSaIS0_EEC2Ev
FN:288,_ZNSt12_Vector_baseIiSaIiEEC2Ev
FNDA:3,_ZNSt12_Vector_baseIiSaIiEEC2Ev
FN:293,_ZNSt12_Vector_baseISt6vectorImSaImEESaIS2_EEC2ERKS3_
FNDA:4,_ZNSt12_Vector_baseISt6vectorImSaImEESaIS2_EEC2ERKS3_
FN:303,_ZNSt12_Vector_baseI4EdgeSaIS0_EEC2EmRKS1_
FNDA:0,_ZNSt12_Vector_baseI4EdgeSaIS0_EEC2EmRKS1_
FN:303,_ZNSt12_Vector_baseImSaImEEC2EmRKS0_
FNDA:24,_ZNSt12_Vector_baseImSaImEEC2EmRKS0_
FN:303,_ZNSt12_Vector_baseISt6vectorImSaImEESaIS2_EEC2EmRKS3_
FNDA:7,_ZNSt12_Vector_baseISt6vectorImSaImEESaIS2_EEC2EmRKS3_
FN:308,_ZNSt12_Vector_baseISt6vectorImSaImEESaIS2_EEC2EOS4_
FNDA:0,_ZNSt12_Vector_baseISt6vectorImSaImEESaIS2_EEC2EOS4_
FN:333,_ZNSt12_Vector_baseImSaImEED2Ev
FNDA:24,_ZNSt12_Vector_baseImSaImEED2Ev
FN:333,_ZNSt12_Vector_baseI4EdgeSaIS0_EED2Ev
FNDA:0,_ZNSt12_Vector_baseI4EdgeSaIS0_EED2Ev
FN:333,_ZNSt12_Vector_baseISt6vectorImSaImEESaIS2_EED2Ev
FNDA:19,_ZNSt12_Vector_baseISt6vectorImSaImEESaIS2_EED2Ev
FN:333,_ZNSt12_Vector_baseIiSaIiEED2Ev
FNDA:5,_ZNSt12_Vector_baseIiSaIiEED2Ev
FN:343,_ZNSt12_Vector_baseIiSaIiEE11_M_allocateEm
FNDA:9,_ZNSt12_Vector_baseIiSaIiEE11_M_allocateEm
FN:343,_ZNSt12_Vector_baseISt6vectorImSaImEESaIS2_EE11_M_allocateEm
FNDA:7,_ZNSt12_Vector_baseISt6vectorImSaImEESaIS2_EE11_M_allocateEm
FN:343,_ZNSt12_Vector_baseImSaImEE11_M_allocateEm
FNDA:24,_ZNSt12_Vector_baseImSaImEE11_M_allocateEm
FN:343,_ZNSt12_Vector_baseI4EdgeSaIS0_EE11_M_allocateEm
FNDA:0,_ZNSt12_Vector_baseI4EdgeSaIS0_EE11_M_allocateEm
FN:350,_ZNSt12_Vector_baseI4EdgeSaIS0_EE13_M_deallocateEPS0_m
FNDA:0,_ZNSt12_Vector_baseI4EdgeSaIS0_EE13_M_deallocateEPS0_m
FN:350,_ZNSt12_Vector_baseISt6vectorImSaImEESaIS2_EE13_M_deallocateEPS2_m
FNDA:19,_ZNSt12_Vector_baseISt6vectorImSaImEESaIS2_EE13_M_deallocateEPS2_m
FN:350,_ZNSt12_Vector_baseIiSaIiEE13_M_deallocateEPim
FNDA:12,_ZNSt12_Vector_baseIiSaIiEE13_M_deallocateEPim
FN:350,_ZNSt12_Vector_baseImSaImEE13_M_deallocateEPmm
FNDA:24,_ZNSt12_Vector_baseImSaImEE13_M_deallocateEPmm
FN:359,_ZNSt12_Vector_baseISt6vectorImSaImEESaIS2_EE17_M_create_storageEm
FNDA:7,_ZNSt12_Vector_baseISt6vectorImSaImEESaIS2_EE17_M_create_storageEm
FN:359,_ZNSt12_Vector_baseImSaImEE17_M_create_storageEm
FNDA:24,_ZNSt12_Vector_baseImSaImEE17_M_create_storageEm
FN:359,_ZNSt12_Vector_baseI4EdgeSaIS0_EE17_M_create_storageEm
FNDA:0,_ZNSt12_Vector_baseI4EdgeSaIS0_EE17_M_create_storageEm
FN:453,_ZNSt6vectorIiSaIiEE14_S_do_relocateEPiS2_S2_RS0_St17integral_constantIbLb1EE
FNDA:14,_ZNSt6vectorIiSaIiEE14_S_do_relocateEPiS2_S2_RS0_St17integral_constantIbLb1EE
FN:465,_ZNSt6vectorIiSaIiEE11_S_relocateEPiS2_S2_RS0_
FNDA:14,_ZNSt6vectorIiSaIiEE11_S_relocateEPiS2_S2_RS0_
FN:487,_ZNSt6vectorIiSaIiEEC2Ev
FNDA:3,_ZNSt6vectorIiSaIiEEC2Ev
FN:487,_ZNSt6vectorIS_ImSaImEESaIS1_EEC2Ev
FNDA:8,_ZNSt6vectorIS_ImSaImEESaIS1_EEC2Ev
FN:487,_ZNSt6vectorI4EdgeSaIS0_EEC2Ev
FNDA:11,_ZNSt6vectorI4EdgeSaIS0_EEC2Ev
FN:497,_ZNSt6vectorIS_ImSaImEESaIS1_EEC2ERKS2_
FNDA:4,_ZNSt6vectorIS_ImSaImEESaIS1_EEC2ERKS2_
FN:522,_ZNSt6vectorImSaImEEC2EmRKmRKS0_
FNDA:3,_ZNSt6vectorImSaImEEC2EmRKmRKS0_
FN:522,_ZNSt6vectorIS_ImSaImEESaIS1_EEC2EmRKS1_RKS2_
FNDA:3,_ZNSt6vectorIS_ImSaImEESaIS1_EEC2EmRKS1_RKS2_
FN:553,_ZNSt6vectorI4EdgeSaIS0_EEC2ERKS2_
FNDA:0,_ZNSt6vectorI4EdgeSaIS0_EEC2ERKS2_
FN:553,_ZNSt6vectorIS_ImSaImEESaIS1_EEC2ERKS3_
FNDA:4,_ZNSt6vectorIS_ImSaImEESaIS1_EEC2ERKS3_
FN:553,_ZNSt6vectorImSaImEEC2ERKS1_
FNDA:21,_ZNSt6vectorImSaImEEC2ERKS1_
FN:572,_ZNSt6vectorIS_ImSaImEESaIS1_EEC2EOS3_
FNDA:0,_ZNSt6vectorIS_ImSaImEESaIS1_EEC2EOS3_
FN:678,_ZNSt6vectorImSaImEED2Ev
FNDA:24,_ZNSt6vectorImSaImEED2Ev
FN:678,_ZNSt6vectorI4EdgeSaIS0_EED2Ev
FNDA:0,_ZNSt6vectorI4EdgeSaIS0_EED2Ev
FN:678,_ZNSt6vectorIS_ImSaImEESaIS1_EED2Ev
FNDA:19,_ZNSt6vectorIS_ImSaImEESaIS1_EED2Ev
FN:678,_ZNSt6vectorIiSaIiEED2Ev
FNDA:5,_ZNSt6vectorIiSaIiEED2Ev
FN:709,_ZNSt6vectorIS_ImSaImEESaIS1_EEaSEOS3_
FNDA:4,_ZNSt6vectorIS_ImSaImEESaIS1_EEaSEOS3_
FN:811,_ZNSt6vectorIiSaIiEE5beginEv
FNDA:17,_ZNSt6vectorIiSaIiEE5beginEv
FN:820,_ZNKSt6vectorIS_ImSaImEESaIS1_EE5beginEv
FNDA:7,_ZNKSt6vectorIS_ImSaImEESaIS1_EE5beginEv
FN:820,_ZNKSt6vectorImSaImEE5beginEv
FNDA:21,_ZNKSt6vectorImSaImEE5beginEv
FN:820,_ZNKSt6vectorI4EdgeSaIS0_EE5beginEv
FNDA:0,_ZNKSt6vectorI4EdgeSaIS0_EE5beginEv
FN:829,_ZNSt6vectorIiSaIiEE3endEv
FNDA:17,_ZNSt6vectorIiSaIiEE3endEv
FN:838,_ZNKSt6vectorImSaImEE3endEv
FNDA:21,_ZNKSt6vectorImSaImEE3endEv
FN:838,_ZNKSt6vectorIS_ImSaImEESaIS1_EE3endEv
FNDA:7,_ZNKSt6vectorIS_ImSaImEESaIS1_EE3endEv
FN:838,_ZNKSt6vectorI4EdgeSaIS0_EE3endEv
FNDA:0,_ZNKSt6vectorI4EdgeSaIS0_EE3endEv
FN:847,_ZNSt6vectorIiSaIiEE6rbeginEv
FNDA:3,_ZNSt6vectorIiSaIiEE6rbeginEv
FN:865,_ZNSt6vectorIiSaIiEE4rendEv
FNDA:10,_ZNSt6vectorIiSaIiEE4rendEv
FN:918,_ZNKSt6vectorImSaImEE4sizeEv
FNDA:21,_ZNKSt6vectorImSaImEE4sizeEv
FN:918,_ZNKSt6vectorIiSaIiEE4sizeEv
FNDA:28,_ZNKSt6vectorIiSaIiEE4sizeEv
FN:918,_ZNKSt6vectorIS_ImSaImEESaIS1_EE4sizeEv
FNDA:13,_ZNKSt6vectorIS_ImSaImEESaIS1_EE4sizeEv
FN:918,_ZNKSt6vectorI4EdgeSaIS0_EE4sizeEv
FNDA:0,_ZNKSt6vectorI4EdgeSaIS0_EE4sizeEv
FN:923,_ZNKSt6vectorIiSaIiEE8max_sizeEv
FNDA:14,_ZNKSt6vectorIiSaIiEE8max_sizeEv
FN:1007,_ZNKSt6vectorIS_ImSaImEESaIS1_EE5emptyEv
FNDA:3,_ZNKSt6vectorIS_ImSaImEESaIS1_EE5emptyEv
FN:1043,_ZNSt6vectorImSaImEEixEm
FNDA:184,_ZNSt6vectorImSaImEEixEm
FN:1043,_ZNSt6vectorIS_ImSaImEESaIS1_EEixEm
FNDA:184,_ZNSt6vectorIS_ImSaImEESaIS1_EEixEm
FN:1061,_ZNKSt6vectorImSaImEEixEm
FNDA:31,_ZNKSt6vectorImSaImEEixEm
FN:1061,_ZNKSt6vectorIS_ImSaImEESaIS1_EEixEm
FNDA:31,_ZNKSt6vectorIS_ImSaImEESaIS1_EEixEm
FN:1143,_ZNSt6vectorIiSaIiEE4backEv
FNDA:7,_ZNSt6vectorIiSaIiEE4backEv
FN:1203,_ZNSt6vectorIiSaIiEE9push_backEOi
FNDA:7,_ZNSt6vectorIiSaIiEE9push_backEOi
FN:1498,_ZNSt6vectorImSaImEE5clearEv
FNDA:0,_ZNSt6vectorImSaImEE5clearEv
FN:1498,_ZNSt6vectorIS_ImSaImEESaIS1_EE5clearEv
FNDA:8,_ZNSt6vectorIS_ImSaImEESaIS1_EE5clearEv
FN:1593,_ZNSt6vectorImSaImEE18_M_fill_initializeEmRKm
FNDA:3,_ZNSt6vectorImSaImEE18_M_fill_initializeEmRKm
FN:1593,_ZNSt6vectorIS_ImSaImEESaIS1_EE18_M_fill_initializeEmRKS1_
FNDA:3,_ZNSt6vectorIS_ImSaImEESaIS1_EE18_M_fill_initializeEmRKS1_
FN:1756,_ZNKSt6vectorIiSaIiEE12_M_check_lenEmPKc
FNDA:7,_ZNKSt6vectorIiSaIiEE12_M_check_lenEmPKc
FN:1767,_ZNSt6vectorImSaImEE17_S_check_init_lenEmRKS0_
FNDA:3,_ZNSt6vectorImSaImEE17_S_check_init_lenEmRKS0_
FN:1767,_ZNSt6vectorIS_ImSaImEESaIS1_EE17_S_check_init_lenEmRKS2_
FNDA:3,_ZNSt6vectorIS_ImSaImEESaIS1_EE17_S_check_init_lenEmRKS2_
FN:1776,_ZNSt6vectorIS_ImSaImEESaIS1_EE11_S_max_sizeERKS2_
FNDA:3,_ZNSt6vectorIS_ImSaImEESaIS1_EE11_S_max_sizeERKS2_
FN:1776,_ZNSt6vectorImSaImEE11_S_max_sizeERKS0_
FNDA:3,_ZNSt6vectorImSaImEE11_S_max_sizeERKS0_
FN:1776,_ZNSt6vectorIiSaIiEE11_S_max_sizeERKS0_
FNDA:16,_ZNSt6vectorIiSaIiEE11_S_max_sizeERKS0_
FN:1792,_ZNSt6vectorIS_ImSaImEESaIS1_EE15_M_erase_at_endEPS1_
FNDA:8,_ZNSt6vectorIS_ImSaImEESaIS1_EE15_M_erase_at_endEPS1_
FN:1792,_ZNSt6vectorImSaImEE15_M_erase_at_endEPm
FNDA:0,_ZNSt6vectorImSaImEE15_M_erase_at_endEPm
FN:1815,_ZNSt6vectorIS_ImSaImEESaIS1_EE14_M_move_assignEOS3_St17integral_constantIbLb1EE
FNDA:4,_ZNSt6vectorIS_ImSaImEESaIS1_EE14_M_move_assignEOS3_St17integral_constantIbLb1EE
DA:97,24
DA:98,24
DA:99,24
DA:97,0
DA:98,0
DA:99,0
DA:97,5
DA:98,5
DA:99,5
DA:97,27
DA:98,27
DA:99,27
DA:102,0
DA:103,0
DA:104,0
DA:105,0
DA:109,24
DA:111,24
DA:112,24
DA:113,24
DA:114,24
DA:117,8
DA:121,8
DA:122,8
DA:123,8
DA:124,8
DA:125,8
DA:131,11
DA:133,11
DA:134,11
DA:131,3
DA:133,3
DA:134,3
DA:131,8
DA:133,8
DA:134,8
DA:136,11
DA:137,11
DA:138,11
DA:136,24
DA:137,24
DA:138,24
DA:136,0
DA:137,0
DA:138,0
DA:143,0
DA:144,0
DA:145,0
DA:276,21
DA:277,21
DA:276,48
DA:277,48
DA:276,0
DA:277,0
DA:276,34
DA:277,34
DA:280,21
DA:281,21
DA:280,14
DA:281,14
DA:280,8
DA:281,8
DA:280,0
DA:281,0
DA:284,4
DA:285,4
DA:288,11
DA:288,3
DA:288,8
DA:293,4
DA:294,4
DA:303,7
DA:304,7
DA:305,7
DA:303,24
DA:304,24
DA:305,24
DA:303,0
DA:304,0
DA:305,0
DA:308,0
DA:333,24
DA:335,24
DA:336,24
DA:337,24
DA:333,0
DA:335,0
DA:336,0
DA:337,0
DA:333,5
DA:335,5
DA:336,5
DA:337,5
DA:333,19
DA:335,19
DA:336,19
DA:337,19
DA:343,9
DA:346,9
DA:343,7
DA:346,7
DA:343,24
DA:346,24
DA:343,0
DA:346,0
DA:350,24
DA:353,24
DA:354,24
DA:355,24
DA:350,0
DA:353,0
DA:354,0
DA:355,0
DA:350,12
DA:353,12
DA:354,9
DA:355,12
DA:350,19
DA:353,19
DA:354,7
DA:355,19
DA:359,7
DA:361,7
DA:362,7
DA:363,7
DA:364,7
DA:359,24
DA:361,24
DA:362,24
DA:363,24
DA:364,24
DA:359,0
DA:361,0
DA:362,0
DA:363,0
DA:364,0
DA:453,14
DA:456,14
DA:465,14
DA:469,14
DA:487,11
DA:487,3
DA:487,8
DA:497,4
DA:498,4
DA:522,3
DA:524,3
DA:525,3
DA:522,3
DA:524,3
DA:525,3
DA:553,21
DA:555,21
DA:557,21
DA:558,21
DA:560,21
DA:561,21
DA:553,4
DA:555,4
DA:557,4
DA:558,4
DA:560,4
DA:561,4
DA:553,0
DA:555,0
DA:557,0
DA:558,0
DA:560,0
DA:561,0
DA:572,0
DA:678,5
DA:680,5
DA:681,5
DA:683,5
DA:678,24
DA:680,24
DA:681,24
DA:683,24
DA:678,0
DA:680,0
DA:681,0
DA:683,0
DA:678,19
DA:680,19
DA:681,19
DA:683,19
DA:709,4
DA:711,4
DA:714,4
DA:715,4
DA:811,17
DA:812,17
DA:820,21
DA:821,21
DA:820,7
DA:821,7
DA:820,0
DA:821,0
DA:829,17
DA:830,17
DA:838,21
DA:839,21
DA:838,7
DA:839,7
DA:838,0
DA:839,0
DA:847,3
DA:848,3
DA:865,10
DA:866,10
DA:918,21
DA:919,21
DA:918,28
DA:919,28
DA:918,0
DA:919,0
DA:918,13
DA:919,13
DA:923,14
DA:924,14
DA:1007,3
DA:1008,3
DA:1043,184
DA:1046,184
DA:1043,184
DA:1046,184
DA:1061,31
DA:1064,31
DA:1061,31
DA:1064,31
DA:1143,7
DA:1146,7
DA:1203,7
DA:1204,7
DA:1498,8
DA:1499,8
DA:1498,0
DA:1499,0
DA:1593,3
DA:1595,3
DA:1596,3
DA:1597,3
DA:1598,3
DA:1593,3
DA:1595,3
DA:1596,3
DA:1597,3
DA:1598,3
DA:1756,7
DA:1758,7
DA:1759,0
DA:1761,7
DA:1762,7
DA:1767,3
DA:1769,3
DA:1770,0
DA:1772,3
DA:1767,3
DA:1769,3
DA:1770,0
DA:1772,3
DA:1776,16
DA:1781,16
DA:1783,16
DA:1784,16
DA:1776,3
DA:1781,3
DA:1783,3
DA:1784,3
DA:1776,3
DA:1781,3
DA:1783,3
DA:1784,3
DA:1792,8
DA:1794,8
DA:1796,0
DA:1797,0
DA:1798,0
DA:1801,8
DA:1792,0
DA:1794,0
DA:1796,0
DA:1797,0
DA:1798,0
DA:1801,0
DA:1815,4
DA:1817,4
DA:1818,4
DA:1819,4
DA:1820,4
DA:1821,4
end_of_record
SF:/usr/include/c++/11/bits/alloc_traits.h
FN:463,_ZNSt16allocator_traitsISaIPNSt8__detail15_Hash_node_baseEEE8allocateERS3_m
FNDA:6,_ZNSt16allocator_traitsISaIPNSt8__detail15_Hash_node_baseEEE8allocateERS3_m
FN:463,_ZNSt16allocator_traitsISaImEE8allocateERS0_m
FNDA:27,_ZNSt16allocator_traitsISaImEE8allocateERS0_m
FN:463,_ZNSt16allocator_traitsISaIPmEE8allocateERS1_m
FNDA:1,_ZNSt16allocator_traitsISaIPmEE8allocateERS1_m
FN:463,_ZNSt16allocator_traitsISaI4EdgeEE8allocateERS1_m
FNDA:0,_ZNSt16allocator_traitsISaI4EdgeEE8allocateERS1_m
FN:463,_ZNSt16allocator_traitsISaISt13_Rb_tree_nodeISt4pairIKi6VertexEEEE8allocateERS6_m
FNDA:7,_ZNSt16allocator_traitsISaISt13_Rb_tree_nodeISt4pairIKi6VertexEEEE8allocateERS6_m
FN:463,_ZNSt16allocator_traitsISaISt6vectorImSaImEEEE8allocateERS3_m
FNDA:7,_ZNSt16allocator_traitsISaISt6vectorImSaImEEEE8allocateERS3_m
FN:463,_ZNSt16allocator_traitsISaISt13_Rb_tree_nodeISt4pairIKmmEEEE8allocateERS5_m
FNDA:0,_ZNSt16allocator_traitsISaISt13_Rb_tree_nodeISt4pairIKmmEEEE8allocateERS5_m
FN:463,_ZNSt16allocator_traitsISaINSt8__detail10_Hash_nodeI4EdgeLb1EEEEE8allocateERS4_m
FNDA:4,_ZNSt16allocator_traitsISaINSt8__detail10_Hash_nodeI4EdgeLb1EEEEE8allocateERS4_m
FN:463,_ZNSt16allocator_traitsISaIiEE8allocateERS0_m
FNDA:9,_ZNSt16allocator_traitsISaIiEE8allocateERS0_m
FN:495,_ZNSt16allocator_traitsISaIiEE10deallocateERS0_Pim
FNDA:9,_ZNSt16allocator_traitsISaIiEE10deallocateERS0_Pim
FN:495,_ZNSt16allocator_traitsISaINSt8__detail10_Hash_nodeI4EdgeLb1EEEEE10deallocateERS4_PS3_m
FNDA:4,_ZNSt16allocator_traitsISaINSt8__detail10_Hash_nodeI4EdgeLb1EEEEE10deallocateERS4_PS3_m
FN:495,_ZNSt16allocator_traitsISaISt6vectorImSaImEEEE10deallocateERS3_PS2_m
FNDA:7,_ZNSt16allocator_traitsISaISt6vectorImSaImEEEE10deallocateERS3_PS2_m
FN:495,_ZNSt16allocator_traitsISaImEE10deallocateERS0_Pmm
FNDA:27,_ZNSt16allocator_traitsISaImEE10deallocateERS0_Pmm
FN:495,_ZNSt16allocator_traitsISaISt13_Rb_tree_nodeISt4pairIKmmEEEE10deallocateERS5_PS4_m
FNDA:0,_ZNSt16allocator_traitsISaISt13_Rb_tree_nodeISt4pairIKmmEEEE10deallocateERS5_PS4_m
FN:495,_ZNSt16allocator_traitsISaIPmEE10deallocateERS1_PS0_m
FNDA:1,_ZNSt16allocator_traitsISaIPmEE10deallocateERS1_PS0_m
FN:495,_ZNSt16allocator_traitsISaIPNSt8__detail15_Hash_node_baseEEE10deallocateERS3_PS2_m
FNDA:6,_ZNSt16allocator_traitsISaIPNSt8__detail15_Hash_node_baseEEE10deallocateERS3_PS2_m
FN:495,_ZNSt16allocator_traitsISaISt13_Rb_tree_nodeISt4pairIKi6VertexEEEE10deallocateERS6_PS5_m
FNDA:7,_ZNSt16allocator_traitsISaISt13_Rb_tree_nodeISt4pairIKi6VertexEEEE10deallocateERS6_PS5_m
FN:495,_ZNSt16allocator_traitsISaI4EdgeEE10deallocateERS1_PS0_m
FNDA:0,_ZNSt16allocator_traitsISaI4EdgeEE10deallocateERS1_PS0_m
FN:511,_ZNSt16allocator_traitsISaISt13_Rb_tree_nodeISt4pairIKmmEEEE9constructIS3_JRKSt21piecewise_construct_tSt5tupleIJRS2_EESB_IJEEEEEvRS5_PT_DpOT0_
FNDA:8,_ZNSt16allocator_traitsISaISt13_Rb_tree_nodeISt4pairIKmmEEEE9constructIS3_JRKSt21piecewise_construct_tSt5tupleIJRS2_EESB_IJEEEEEvRS5_PT_DpOT0_
FN:511,_ZNSt16allocator_traitsISaIiEE9constructIiJiEEEvRS0_PT_DpOT0_
FNDA:7,_ZNSt16allocator_traitsISaIiEE9constructIiJiEEEvRS0_PT_DpOT0_
FN:511,_ZNSt16allocator_traitsISaImEE9constructImJRKmEEEvRS0_PT_DpOT0_
FNDA:2,_ZNSt16allocator_traitsISaImEE9constructImJRKmEEEvRS0_PT_DpOT0_
FN:511,_ZNSt16allocator_traitsISaImEE9constructImJmEEEvRS0_PT_DpOT0_
FNDA:1,_ZNSt16allocator_traitsISaImEE9constructImJmEEEvRS0_PT_DpOT0_
FN:511,_ZNSt16allocator_traitsISaISt13_Rb_tree_nodeISt4pairIKmmEEEE9constructIS3_JRKS3_EEEvRS5_PT_DpOT0_
FNDA:0,_ZNSt16allocator_traitsISaISt13_Rb_tree_nodeISt4pairIKmmEEEE9constructIS3_JRKS3_EEEvRS5_PT_DpOT0_
FN:511,_ZNSt16allocator_traitsISaINSt8__detail10_Hash_nodeI4EdgeLb1EEEEE9constructIS2_JRKS2_EEEvRS4_PT_DpOT0_
FNDA:4,_ZNSt16allocator_traitsISaINSt8__detail10_Hash_nodeI4EdgeLb1EEEEE9constructIS2_JRKS2_EEEvRS4_PT_DpOT0_
FN:511,_ZNSt16allocator_traitsISaISt13_Rb_tree_nodeISt4pairIKi6VertexEEEE9constructIS4_JRKSt21piecewise_construct_tSt5tupleIJOiEESC_IJEEEEEvRS6_PT_DpOT0_
FNDA:4,_ZNSt16allocator_traitsISaISt13_Rb_tree_nodeISt4pairIKi6VertexEEEE9constructIS4_JRKSt21piecewise_construct_tSt5tupleIJOiEESC_IJEEEEEvRS6_PT_DpOT0_
FN:511,_ZNSt16allocator_traitsISaISt13_Rb_tree_nodeISt4pairIKi6VertexEEEE9constructIS4_JRKSt21piecewise_construct_tSt5tupleIJRS2_EESC_IJEEEEEvRS6_PT_DpOT0_
FNDA:3,_ZNSt16allocator_traitsISaISt13_Rb_tree_nodeISt4pairIKi6VertexEEEE9constructIS4_JRKSt21piecewise_construct_tSt5tupleIJRS2_EESC_IJEEEEEvRS6_PT_DpOT0_
FN:531,_ZNSt16allocator_traitsISaImEE7destroyImEEvRS0_PT_
FNDA:3,_ZNSt16allocator_traitsISaImEE7destroyImEEvRS0_PT_
FN:531,_ZNSt16allocator_traitsISaISt13_Rb_tree_nodeISt4pairIKi6VertexEEEE7destroyIS4_EEvRS6_PT_
FNDA:7,_ZNSt16allocator_traitsISaISt13_Rb_tree_nodeISt4pairIKi6VertexEEEE7destroyIS4_EEvRS6_PT_
FN:531,_ZNSt16allocator_traitsISaINSt8__detail10_Hash_nodeI4EdgeLb1EEEEE7destroyIS2_EEvRS4_PT_
FNDA:4,_ZNSt16allocator_traitsISaINSt8__detail10_Hash_nodeI4EdgeLb1EEEEE7destroyIS2_EEvRS4_PT_
FN:531,_ZNSt16allocator_traitsISaISt13_Rb_tree_nodeISt4pairIKmmEEEE7destroyIS3_EEvRS5_PT_
FNDA:0,_ZNSt16allocator_traitsISaISt13_Rb_tree_nodeISt4pairIKmmEEEE7destroyIS3_EEvRS5_PT_
FN:547,_ZNSt16allocator_traitsISaISt6vectorImSaImEEEE8max_sizeERKS3_
FNDA:3,_ZNSt16allocator_traitsISaISt6vectorImSaImEEEE8max_sizeERKS3_
FN:547,_ZNSt16allocator_traitsISaImEE8max_sizeERKS0_
FNDA:3,_ZNSt16allocator_traitsISaImEE8max_sizeERKS0_
FN:547,_ZNSt16allocator_traitsISaIiEE8max_sizeERKS0_
FNDA:16,_ZNSt16allocator_traitsISaIiEE8max_sizeERKS0_
FN:562,_ZNSt16allocator_traitsISaISt13_Rb_tree_nodeISt4pairIKmmEEEE37select_on_container_copy_constructionERKS5_
FNDA:0,_ZNSt16allocator_traitsISaISt13_Rb_tree_nodeISt4pairIKmmEEEE37select_on_container_copy_constructionERKS5_
FN:562,_ZNSt16allocator_traitsISaI4EdgeEE37select_on_container_copy_constructionERKS1_
FNDA:0,_ZNSt16allocator_traitsISaI4EdgeEE37select_on_container_copy_constructionERKS1_
FN:562,_ZNSt16allocator_traitsISaIcEE37select_on_container_copy_constructionERKS0_
FNDA:0,_ZNSt16allocator_traitsISaIcEE37select_on_container_copy_constructionERKS0_
FN:562,_ZNSt16allocator_traitsISaImEE37select_on_container_copy_constructionERKS0_
FNDA:21,_ZNSt16allocator_traitsISaImEE37select_on_container_copy_constructionERKS0_
FN:562,_ZNSt16allocator_traitsISaISt6vectorImSaImEEEE37select_on_container_copy_constructionERKS3_
FNDA:4,_ZNSt16allocator_traitsISaISt6vectorImSaImEEEE37select_on_container_copy_constructionERKS3_
FN:710,_ZSt15__alloc_on_moveISaISt6vectorImSaImEEEEvRT_S5_
FNDA:4,_ZSt15__alloc_on_moveISaISt6vectorImSaImEEEEvRT_S5_
FN:845,_ZSt8_DestroyIPiiEvT_S1_RSaIT0_E
FNDA:5,_ZSt8_DestroyIPiiEvT_S1_RSaIT0_E
FN:845,_ZSt8_DestroyIPmmEvT_S1_RSaIT0_E
FNDA:24,_ZSt8_DestroyIPmmEvT_S1_RSaIT0_E
FN:845,_ZSt8_DestroyIP4EdgeS0_EvT_S2_RSaIT0_E
FNDA:0,_ZSt8_DestroyIP4EdgeS0_EvT_S2_RSaIT0_E
FN:845,_ZSt8_DestroyIPSt6vectorImSaImEES2_EvT_S4_RSaIT0_E
FNDA:19,_ZSt8_DestroyIPSt6vectorImSaImEES2_EvT_S4_RSaIT0_E
DA:463,6
DA:464,6
DA:463,4
DA:464,4
DA:463,9
DA:464,9
DA:463,0
DA:464,0
DA:463,7
DA:464,7
DA:463,7
DA:464,7
DA:463,0
DA:464,0
DA:463,1
DA:464,1
DA:463,27
DA:464,27
DA:495,4
DA:496,4
DA:495,0
DA:496,0
DA:495,6
DA:496,6
DA:495,7
DA:496,7
DA:495,0
DA:496,0
DA:495,1
DA:496,1
DA:495,27
DA:496,27
DA:495,9
DA:496,9
DA:495,7
DA:496,7
DA:511,0
DA:516,0
DA:520,0
DA:511,4
DA:516,4
DA:520,4
DA:511,8
DA:516,8
DA:520,8
DA:511,3
DA:516,3
DA:520,3
DA:511,4
DA:516,4
DA:520,4
DA:511,1
DA:516,1
DA:520,1
DA:511,7
DA:516,7
DA:520,7
DA:511,2
DA:516,2
DA:520,2
DA:531,0
DA:535,0
DA:539,0
DA:531,4
DA:535,4
DA:539,4
DA:531,7
DA:535,7
DA:539,7
DA:531,3
DA:535,3
DA:539,3
DA:547,16
DA:550,16
DA:547,3
DA:550,3
DA:547,3
DA:550,3
DA:562,21
DA:563,21
DA:562,4
DA:563,4
DA:562,0
DA:563,0
DA:562,0
DA:563,0
DA:562,0
DA:563,0
DA:710,4
DA:716,4
DA:720,4
DA:845,5
DA:848,5
DA:849,5
DA:845,24
DA:848,24
DA:849,24
DA:845,0
DA:848,0
DA:849,0
DA:845,19
DA:848,19
DA:849,19
end_of_record
SF:/usr/include/c++/11/bits/stl_construct.h
FN:109,_ZSt10_ConstructISt6vectorImSaImEEJRKS2_EEvPT_DpOT0_
FNDA:21,_ZSt10_ConstructISt6vectorImSaImEEJRKS2_EEvPT_DpOT0_
FN:109,_ZSt10_ConstructI4EdgeJRKS0_EEvPT_DpOT0_
FNDA:0,_ZSt10_ConstructI4EdgeJRKS0_EEvPT_DpOT0_
FN:146,_ZSt8_DestroyI4EdgeEvPT_
FNDA:0,_ZSt8_DestroyI4EdgeEvPT_
FN:146,_ZSt8_DestroyISt6vectorImSaImEEEvPT_
FNDA:21,_ZSt8_DestroyISt6vectorImSaImEEEvPT_
FN:160,_ZNSt12_Destroy_auxILb0EE9__destroyIP4EdgeEEvT_S4_
FNDA:0,_ZNSt12_Destroy_auxILb0EE9__destroyIP4EdgeEEvT_S4_
FN:160,_ZNSt12_Destroy_auxILb0EE9__destroyIPSt6vectorImSaImEEEEvT_S6_
FNDA:19,_ZNSt12_Destroy_auxILb0EE9__destroyIPSt6vectorImSaImEEEEvT_S6_
FN:172,_ZNSt12_Destroy_auxILb1EE9__destroyIPiEEvT_S3_
FNDA:5,_ZNSt12_Destroy_auxILb1EE9__destroyIPiEEvT_S3_
FN:172,_ZNSt12_Destroy_auxILb1EE9__destroyIPmEEvT_S3_
FNDA:24,_ZNSt12_Destroy_auxILb1EE9__destroyIPmEEvT_S3_
FN:182,_ZSt8_DestroyIPiEvT_S1_
FNDA:5,_ZSt8_DestroyIPiEvT_S1_
FN:182,_ZSt8_DestroyIPmEvT_S1_
FNDA:24,_ZSt8_DestroyIPmEvT_S1_
FN:182,_ZSt8_DestroyIP4EdgeEvT_S2_
FNDA:0,_ZSt8_DestroyIP4EdgeEvT_S2_
FN:182,_ZSt8_DestroyIPSt6vectorImSaImEEEvT_S4_
FNDA:19,_ZSt8_DestroyIPSt6vectorImSaImEEEvT_S4_
DA:109,21
DA:119,21
DA:120,21
DA:109,0
DA:119,0
DA:120,0
DA:146,0
DA:151,0
DA:153,0
DA:146,21
DA:151,21
DA:153,21
DA:160,0
DA:162,0
DA:163,0
DA:164,0
DA:160,19
DA:162,40
DA:163,21
DA:164,19
DA:172,5
DA:172,24
DA:182,5
DA:196,5
DA:197,5
DA:182,24
DA:196,24
DA:197,24
DA:182,0
DA:196,0
DA:197,0
DA:182,19
DA:196,19
DA:197,19
end_of_record
SF:/usr/include/c++/11/bits/stl_uninitialized.h
FN:85,_ZNSt20__uninitialized_copyILb0EE13__uninit_copyIN9__gnu_cxx17__normal_iteratorIPK4EdgeSt6vectorIS4_SaIS4_EEEEPS4_EET0_T_SD_SC_
FNDA:0,_ZNSt20__uninitialized_copyILb0EE13__uninit_copyIN9__gnu_cxx17__normal_iteratorIPK4EdgeSt6vectorIS4_SaIS4_EEEEPS4_EET0_T_SD_SC_
FN:85,_ZNSt20__uninitialized_copyILb0EE13__uninit_copyIN9__gnu_cxx17__normal_iteratorIPKSt6vectorImSaImEES4_IS6_SaIS6_EEEEPS6_EET0_T_SE_SD_
FNDA:4,_ZNSt20__uninitialized_copyILb0EE13__uninit_copyIN9__gnu_cxx17__normal_iteratorIPKSt6vectorImSaImEES4_IS6_SaIS6_EEEEPS6_EET0_T_SE_SD_
FN:108,_ZNSt20__uninitialized_copyILb1EE13__uninit_copyIN9__gnu_cxx17__normal_iteratorIPKmSt6vectorImSaImEEEEPmEET0_T_SC_SB_
FNDA:21,_ZNSt20__uninitialized_copyILb1EE13__uninit_copyIN9__gnu_cxx17__normal_iteratorIPKmSt6vectorImSaImEEEEPmEET0_T_SC_SB_
FN:126,_ZSt18uninitialized_copyIN9__gnu_cxx17__normal_iteratorIPKmSt6vectorImSaImEEEEPmET0_T_SA_S9_
FNDA:21,_ZSt18uninitialized_copyIN9__gnu_cxx17__normal_iteratorIPKmSt6vectorImSaImEEEEPmET0_T_SA_S9_
FN:126,_ZSt18uninitialized_copyIN9__gnu_cxx17__normal_iteratorIPK4EdgeSt6vectorIS2_SaIS2_EEEEPS2_ET0_T_SB_SA_
FNDA:0,_ZSt18uninitialized_copyIN9__gnu_cxx17__normal_iteratorIPK4EdgeSt6vectorIS2_SaIS2_EEEEPS2_ET0_T_SB_SA_
FN:126,_ZSt18uninitialized_copyIN9__gnu_cxx17__normal_iteratorIPKSt6vectorImSaImEES2_IS4_SaIS4_EEEEPS4_ET0_T_SC_SB_
FNDA:4,_ZSt18uninitialized_copyIN9__gnu_cxx17__normal_iteratorIPKSt6vectorImSaImEES2_IS4_SaIS4_EEEEPS4_ET0_T_SC_SB_
FN:230,_ZNSt22__uninitialized_fill_nILb0EE15__uninit_fill_nIPSt6vectorImSaImEEmS4_EET_S6_T0_RKT1_
FNDA:3,_ZNSt22__uninitialized_fill_nILb0EE15__uninit_fill_nIPSt6vectorImSaImEEmS4_EET_S6_T0_RKT1_
FN:253,_ZNSt22__uninitialized_fill_nILb1EE15__uninit_fill_nIPmmmEET_S3_T0_RKT1_
FNDA:3,_ZNSt22__uninitialized_fill_nILb1EE15__uninit_fill_nIPmmmEET_S3_T0_RKT1_
FN:273,_ZSt20uninitialized_fill_nIPSt6vectorImSaImEEmS2_ET_S4_T0_RKT1_
FNDA:3,_ZSt20uninitialized_fill_nIPSt6vectorImSaImEEmS2_ET_S4_T0_RKT1_
FN:273,_ZSt20uninitialized_fill_nIPmmmET_S1_T0_RKT1_
FNDA:3,_ZSt20uninitialized_fill_nIPmmmET_S1_T0_RKT1_
FN:331,_ZSt22__uninitialized_copy_aIN9__gnu_cxx17__normal_iteratorIPKSt6vectorImSaImEES2_IS4_SaIS4_EEEEPS4_S4_ET0_T_SC_SB_RSaIT1_E
FNDA:4,_ZSt22__uninitialized_copy_aIN9__gnu_cxx17__normal_iteratorIPKSt6vectorImSaImEES2_IS4_SaIS4_EEEEPS4_S4_ET0_T_SC_SB_RSaIT1_E
FN:331,_ZSt22__uninitialized_copy_aIN9__gnu_cxx17__normal_iteratorIPKmSt6vectorImSaImEEEEPmmET0_T_SA_S9_RSaIT1_E
FNDA:21,_ZSt22__uninitialized_copy_aIN9__gnu_cxx17__normal_iteratorIPKmSt6vectorImSaImEEEEPmmET0_T_SA_S9_RSaIT1_E
FN:331,_ZSt22__uninitialized_copy_aIN9__gnu_cxx17__normal_iteratorIPK4EdgeSt6vectorIS2_SaIS2_EEEEPS2_S2_ET0_T_SB_SA_RSaIT1_E
FNDA:0,_ZSt22__uninitialized_copy_aIN9__gnu_cxx17__normal_iteratorIPK4EdgeSt6vectorIS2_SaIS2_EEEEPS2_S2_ET0_T_SB_SA_RSaIT1_E
FN:408,_ZSt24__uninitialized_fill_n_aIPSt6vectorImSaImEEmS2_S2_ET_S4_T0_RKT1_RSaIT2_E
FNDA:3,_ZSt24__uninitialized_fill_n_aIPSt6vectorImSaImEEmS2_S2_ET_S4_T0_RKT1_RSaIT2_E
FN:408,_ZSt24__uninitialized_fill_n_aIPmmmmET_S1_T0_RKT1_RSaIT2_E
FNDA:3,_ZSt24__uninitialized_fill_n_aIPmmmmET_S1_T0_RKT1_RSaIT2_E
FN:1006,_ZSt14__relocate_a_1IiiENSt9enable_ifIXsrSt24__is_bitwise_relocatableIT_vE5valueEPS2_E4typeES4_S4_S4_RSaIT0_E
FNDA:14,_ZSt14__relocate_a_1IiiENSt9enable_ifIXsrSt24__is_bitwise_relocatableIT_vE5valueEPS2_E4typeES4_S4_S4_RSaIT0_E
FN:1040,_ZSt12__relocate_aIPiS0_SaIiEET0_T_S3_S2_RT1_
FNDA:14,_ZSt12__relocate_aIPiS0_SaIiEET0_T_S3_S2_RT1_
DA:85,4
DA:88,4
DA:91,16
DA:92,12
DA:93,4
DA:95,0
DA:97,0
DA:98,0
DA:85,0
DA:88,0
DA:91,0
DA:92,0
DA:93,0
DA:95,0
DA:97,0
DA:98,0
DA:108,21
DA:110,21
DA:126,21
DA:145,21
DA:151,21
DA:126,4
DA:145,4
DA:151,4
DA:126,0
DA:145,0
DA:151,0
DA:230,3
DA:233,3
DA:236,12
DA:237,9
DA:238,3
DA:240,0
DA:242,0
DA:243,0
DA:253,3
DA:255,3
DA:273,3
DA:293,3
DA:297,3
DA:273,3
DA:293,3
DA:297,3
DA:331,21
DA:333,21
DA:331,4
DA:333,4
DA:331,0
DA:333,0
DA:408,3
DA:410,3
DA:408,3
DA:410,3
DA:1006,14
DA:1009,14
DA:1010,14
DA:1011,4
DA:1012,14
DA:1040,14
DA:1046,14
DA:1048,14
end_of_record
SF:/usr/include/c++/11/bits/stl_pair.h
FN:266,_ZNSt4pairISt6vectorIS0_ImSaImEESaIS2_EES4_EC2IS4_S4_Lb1EEERKS4_S8_
FNDA:0,_ZNSt4pairISt6vectorIS0_ImSaImEESaIS2_EES4_EC2IS4_S4_Lb1EEERKS4_S8_
FN:322,_ZNSt4pairIPSt18_Rb_tree_node_baseS1_EC2IRS1_Lb1EEEOT_RKS1_
FNDA:0,_ZNSt4pairIPSt18_Rb_tree_node_baseS1_EC2IRS1_Lb1EEEOT_RKS1_
FN:336,_ZNSt4pairIPSt18_Rb_tree_node_baseS1_EC2IRS1_Lb1EEERKS1_OT_
FNDA:8,_ZNSt4pairIPSt18_Rb_tree_node_baseS1_EC2IRS1_Lb1EEERKS1_OT_
FN:352,_ZNSt4pairIPSt18_Rb_tree_node_baseS1_EC2IRPSt13_Rb_tree_nodeIS_IKmmEERS1_Lb1EEEOT_OT0_
FNDA:6,_ZNSt4pairIPSt18_Rb_tree_node_baseS1_EC2IRPSt13_Rb_tree_nodeIS_IKmmEERS1_Lb1EEEOT_OT0_
FN:352,_ZNSt4pairIPSt18_Rb_tree_node_baseS1_EC2IRPSt13_Rb_tree_nodeIS_IKi6VertexEERS1_Lb1EEEOT_OT0_
FNDA:3,_ZNSt4pairIPSt18_Rb_tree_node_baseS1_EC2IRPSt13_Rb_tree_nodeIS_IKi6VertexEERS1_Lb1EEEOT_OT0_
FN:352,_ZNSt4pairISt17_Rb_tree_iteratorIS_IKmmEES3_EC2IS3_S3_Lb1EEEOT_OT0_
FNDA:0,_ZNSt4pairISt17_Rb_tree_iteratorIS_IKmmEES3_EC2IS3_S3_Lb1EEEOT_OT0_
FN:352,_ZNSt4pairINSt8__detail14_Node_iteratorI4EdgeLb1ELb1EEEbEC2IRS3_bLb1EEEOT_OT0_
FNDA:4,_ZNSt4pairINSt8__detail14_Node_iteratorI4EdgeLb1ELb1EEEbEC2IRS3_bLb1EEEOT_OT0_
FN:352,_ZNSt4pairINSt8__detail14_Node_iteratorI4EdgeLb1ELb1EEEbEC2IS3_bLb1EEEOT_OT0_
FNDA:0,_ZNSt4pairINSt8__detail14_Node_iteratorI4EdgeLb1ELb1EEEbEC2IS3_bLb1EEEOT_OT0_
FN:352,_ZNSt4pairIPSt18_Rb_tree_node_baseS1_EC2IRS1_S4_Lb1EEEOT_OT0_
FNDA:4,_ZNSt4pairIPSt18_Rb_tree_node_baseS1_EC2IRS1_S4_Lb1EEEOT_OT0_
FN:352,_ZNSt4pairISt6vectorIS0_ImSaImEESaIS2_EES4_EC2IRS4_S7_Lb1EEEOT_OT0_
FNDA:1,_ZNSt4pairISt6vectorIS0_ImSaImEESaIS2_EES4_EC2IRS4_S7_Lb1EEEOT_OT0_
FN:567,_ZSt9make_pairIRKSt6vectorIS0_ImSaImEESaIS2_EES6_ESt4pairINSt25__strip_reference_wrapperINSt5decayIT_E4typeEE6__typeENS8_INS9_IT0_E4typeEE6__typeEEOSA_OSF_
FNDA:0,_ZSt9make_pairIRKSt6vectorIS0_ImSaImEESaIS2_EES6_ESt4pairINSt25__strip_reference_wrapperINSt5decayIT_E4typeEE6__typeENS8_INS9_IT0_E4typeEE6__typeEEOSA_OSF_
DA:266,0
DA:267,0
DA:322,0
DA:323,0
DA:336,8
DA:337,8
DA:352,6
DA:353,6
DA:352,3
DA:353,3
DA:352,0
DA:353,0
DA:352,4
DA:353,4
DA:352,0
DA:353,0
DA:352,4
DA:353,4
DA:352,1
DA:353,1
DA:567,0
DA:572,0
end_of_record
SF:/usr/include/c++/11/bits/unordered_set.h
FN:135,_ZNSt13unordered_setI4EdgeSt4hashIS0_ESt8equal_toIS0_ESaIS0_EEC2Ev
FNDA:3,_ZNSt13unordered_setI4EdgeSt4hashIS0_ESt8equal_toIS0_ESaIS0_EEC2Ev
FN:304,_ZNKSt13unordered_setI4EdgeSt4hashIS0_ESt8equal_toIS0_ESaIS0_EE4sizeEv
FNDA:0,_ZNKSt13unordered_setI4EdgeSt4hashIS0_ESt8equal_toIS0_ESaIS0_EE4sizeEv
FN:320,_ZNSt13unordered_setI4EdgeSt4hashIS0_ESt8equal_toIS0_ESaIS0_EE5beginEv
FNDA:0,_ZNSt13unordered_setI4EdgeSt4hashIS0_ESt8equal_toIS0_ESaIS0_EE5beginEv
FN:320,_ZNSt13unordered_setI6VertexSt4hashIS0_ESt8equal_toIS0_ESaIS0_EE5beginEv
FNDA:4,_ZNSt13unordered_setI6VertexSt4hashIS0_ESt8equal_toIS0_ESaIS0_EE5beginEv
FN:324,_ZNKSt13unordered_setI4EdgeSt4hashIS0_ESt8equal_toIS0_ESaIS0_EE5beginEv
FNDA:3,_ZNKSt13unordered_setI4EdgeSt4hashIS0_ESt8equal_toIS0_ESaIS0_EE5beginEv
FN:334,_ZNSt13unordered_setI4EdgeSt4hashIS0_ESt8equal_toIS0_ESaIS0_EE3endEv
FNDA:0,_ZNSt13unordered_setI4EdgeSt4hashIS0_ESt8equal_toIS0_ESaIS0_EE3endEv
FN:334,_ZNSt13unordered_setI6VertexSt4hashIS0_ESt8equal_toIS0_ESaIS0_EE3endEv
FNDA:4,_ZNSt13unordered_setI6VertexSt4hashIS0_ESt8equal_toIS0_ESaIS0_EE3endEv
FN:338,_ZNKSt13unordered_setI4EdgeSt4hashIS0_ESt8equal_toIS0_ESaIS0_EE3endEv
FNDA:3,_ZNKSt13unordered_setI4EdgeSt4hashIS0_ESt8equal_toIS0_ESaIS0_EE3endEv
FN:421,_ZNSt13unordered_setI4EdgeSt4hashIS0_ESt8equal_toIS0_ESaIS0_EE6insertERKS0_
FNDA:4,_ZNSt13unordered_setI4EdgeSt4hashIS0_ESt8equal_toIS0_ESaIS0_EE6insertERKS0_
FN:545,_ZNSt13unordered_setI4EdgeSt4hashIS0_ESt8equal_toIS0_ESaIS0_EE5eraseERKS0_
FNDA:0,_ZNSt13unordered_setI4EdgeSt4hashIS0_ESt8equal_toIS0_ESaIS0_EE5eraseERKS0_
FN:650,_ZNSt13unordered_setI6VertexSt4hashIS0_ESt8equal_toIS0_ESaIS0_EE4findERKS0_
FNDA:0,_ZNSt13unordered_setI6VertexSt4hashIS0_ESt8equal_toIS0_ESaIS0_EE4findERKS0_
DA:135,3
DA:304,0
DA:305,0
DA:320,0
DA:321,0
DA:320,4
DA:321,4
DA:324,3
DA:325,3
DA:334,0
DA:335,0
DA:334,4
DA:335,4
DA:338,3
DA:339,3
DA:421,4
DA:422,4
DA:545,0
DA:546,0
DA:650,0
DA:651,0
end_of_record
SF:/usr/include/c++/11/ext/string_conversions.h
FN:99,_ZN9__gnu_cxx12__to_xstringINSt7__cxx1112basic_stringIcSt11char_traitsIcESaIcEEEcEET_PFiPT0_mPKS8_P13__va_list_tagEmSB_z
FNDA:1,_ZN9__gnu_cxx12__to_xstringINSt7__cxx1112basic_stringIcSt11char_traitsIcESaIcEEEcEET_PFiPT0_mPKS8_P13__va_list_tagEmSB_z
DA:99,1
DA:105,1
DA:109,1
DA:111,1
DA:113,1
DA:115,1
end_of_record
SF:/home/imri/OS-FinalProject/GraphObj/edge.hpp
FN:67,_ZNKSt4hashI4EdgeEclERKS0_
FNDA:4,_ZNKSt4hashI4EdgeEclERKS0_
DA:67,4
DA:69,4
DA:70,4
DA:71,4
end_of_record
SF:/usr/include/c++/11/bits/basic_string.h
FN:251,_ZNSt7__cxx1112basic_stringIcSt11char_traitsIcESaIcEE16_M_construct_auxIPcEEvT_S7_St12__false_type
FNDA:1,_ZNSt7__cxx1112basic_stringIcSt11char_traitsIcESaIcEE16_M_construct_auxIPcEEvT_S7_St12__false_type
FN:271,_ZNSt7__cxx1112basic_stringIcSt11char_traitsIcESaIcEE12_M_constructIPcEEvT_S7_
FNDA:1,_ZNSt7__cxx1112basic_stringIcSt11char_traitsIcESaIcEE12_M_constructIPcEEvT_S7_
FN:533,_ZNSt7__cxx1112basic_stringIcSt11char_traitsIcESaIcEEC2IS3_EEPKcRKS3_
FNDA:41,_ZNSt7__cxx1112basic_stringIcSt11char_traitsIcESaIcEEC2IS3_EEPKcRKS3_
FN:553,_ZNSt7__cxx1112basic_stringIcSt11char_traitsIcESaIcEEC2IS3_EEmcRKS3_
FNDA:26,_ZNSt7__cxx1112basic_stringIcSt11char_traitsIcESaIcEEC2IS3_EEmcRKS3_
FN:638,_ZNSt7__cxx1112basic_stringIcSt11char_traitsIcESaIcEEC2IPcvEET_S7_RKS3_
FNDA:1,_ZNSt7__cxx1112basic_stringIcSt11char_traitsIcESaIcEEC2IPcvEET_S7_RKS3_
FN:6132,_ZStplIcSt11char_traitsIcESaIcEENSt7__cxx1112basic_stringIT_T0_T1_EERKS8_PKS5_
FNDA:3,_ZStplIcSt11char_traitsIcESaIcEENSt7__cxx1112basic_stringIT_T0_T1_EERKS8_PKS5_
FN:6172,_ZStplIcSt11char_traitsIcESaIcEENSt7__cxx1112basic_stringIT_T0_T1_EEOS8_S9_
FNDA:12,_ZStplIcSt11char_traitsIcESaIcEENSt7__cxx1112basic_stringIT_T0_T1_EEOS8_S9_
FN:6194,_ZStplIcSt11char_traitsIcESaIcEENSt7__cxx1112basic_stringIT_T0_T1_EEPKS5_OS8_
FNDA:9,_ZStplIcSt11char_traitsIcESaIcEENSt7__cxx1112basic_stringIT_T0_T1_EEPKS5_OS8_
FN:6206,_ZStplIcSt11char_traitsIcESaIcEENSt7__cxx1112basic_stringIT_T0_T1_EEOS8_PKS5_
FNDA:31,_ZStplIcSt11char_traitsIcESaIcEENSt7__cxx1112basic_stringIT_T0_T1_EEOS8_PKS5_
FN:6660,_ZNSt7__cxx119to_stringEi
FNDA:13,_ZNSt7__cxx119to_stringEi
FN:6690,_ZNSt7__cxx119to_stringEm
FNDA:13,_ZNSt7__cxx119to_stringEm
FN:6730,_ZNSt7__cxx119to_stringEd
FNDA:1,_ZNSt7__cxx119to_stringEd
DA:251,1
DA:255,1
DA:256,1
DA:271,1
DA:274,1
DA:275,1
DA:533,41
DA:534,41
DA:536,41
DA:539,41
DA:540,41
DA:553,26
DA:554,26
DA:555,26
DA:638,1
DA:640,1
DA:641,1
DA:6132,3
DA:6135,3
DA:6136,3
DA:6137,3
DA:6138,0
DA:6172,12
DA:6177,12
DA:6179,12
DA:6182,12
DA:6185,12
DA:6186,12
DA:6187,0
DA:6189,12
DA:6194,9
DA:6196,9
DA:6206,31
DA:6208,31
DA:6660,13
DA:6662,13
DA:6663,13
DA:6664,13
DA:6665,13
DA:6666,13
DA:6667,13
DA:6668,0
DA:6690,13
DA:6692,13
DA:6693,13
DA:6694,13
DA:6695,0
DA:6730,1
DA:6732,1
DA:6735,1
end_of_record
SF:/usr/include/c++/11/bits/charconv.h
FN:47,_ZNSt8__detail14__to_chars_lenImEEjT_i
FNDA:13,_ZNSt8__detail14__to_chars_lenImEEjT_i
FN:47,_ZNSt8__detail14__to_chars_lenIjEEjT_i
FNDA:13,_ZNSt8__detail14__to_chars_lenIjEEjT_i
FN:72,_ZNSt8__detail18__to_chars_10_implImEEvPcjT_
FNDA:13,_ZNSt8__detail18__to_chars_10_implImEEvPcjT_
FN:72,_ZNSt8__detail18__to_chars_10_implIjEEvPcjT_
FNDA:13,_ZNSt8__detail18__to_chars_10_implIjEEvPcjT_
DA:47,13
DA:52,13
DA:53,13
DA:54,13
DA:55,13
DA:58,13
DA:59,3
DA:60,0
DA:61,0
DA:62,0
DA:63,0
DA:47,13
DA:52,13
DA:53,13
DA:54,13
DA:55,13
DA:58,13
DA:59,0
DA:60,0
DA:61,0
DA:62,0
DA:63,0
DA:72,13
DA:83,13
DA:84,13
DA:86,0
DA:87,0
DA:88,0
DA:89,0
DA:90,0
DA:92,13
DA:94,3
DA:95,3
DA:96,3
DA:99,10
DA:100,13
DA:72,13
DA:83,13
DA:84,13
DA:86,0
DA:87,0
DA:88,0
DA:89,0
DA:90,0
DA:92,13
DA:94,0
DA:95,0
DA:96,0
DA:99,13
DA:100,13
end_of_record
SF:/usr/include/c++/11/bits/deque.tcc
FN:164,_ZNSt5dequeImSaImEE12emplace_backIJmEEERmDpOT_
FNDA:1,_ZNSt5dequeImSaImEE12emplace_backIJmEEERmDpOT_
FN:484,_ZNSt5dequeImSaImEE16_M_push_back_auxIJmEEEvDpOT_
FNDA:0,_ZNSt5dequeImSaImEE16_M_push_back_auxIJmEEEvDpOT_
FN:484,_ZNSt5dequeImSaImEE16_M_push_back_auxIJRKmEEEvDpOT_
FNDA:0,_ZNSt5dequeImSaImEE16_M_push_back_auxIJRKmEEEvDpOT_
FN:576,_ZNSt5dequeImSaImEE16_M_pop_front_auxEv
FNDA:0,_ZNSt5dequeImSaImEE16_M_pop_front_auxEv
FN:931,_ZNSt5dequeImSaImEE17_M_reallocate_mapEmb
FNDA:0,_ZNSt5dequeImSaImEE17_M_reallocate_mapEmb
DA:164,1
DA:167,1
DA:168,1
DA:170,1
DA:173,1
DA:176,0
DA:178,1
DA:484,0
DA:492,0
DA:493,0
DA:496,0
DA:497,0
DA:501,0
DA:507,0
DA:509,0
DA:516,0
DA:484,0
DA:492,0
DA:493,0
DA:496,0
DA:497,0
DA:501,0
DA:507,0
DA:509,0
DA:516,0
DA:576,0
DA:579,0
DA:581,0
DA:582,0
DA:583,0
DA:584,0
DA:931,0
DA:934,0
DA:935,0
DA:936,0
DA:939,0
DA:941,0
DA:942,0
DA:943,0
DA:944,0
DA:945,0
DA:946,0
DA:949,0
DA:950,0
DA:951,0
DA:955,0
DA:956,0
DA:959,0
DA:960,0
DA:961,0
DA:962,0
DA:963,0
DA:965,0
DA:967,0
DA:968,0
DA:971,0
DA:972,0
DA:973,0
end_of_record
SF:/usr/include/c++/11/ext/new_allocator.h
FN:79,_ZN9__gnu_cxx13new_allocatorI4EdgeEC2Ev
FNDA:11,_ZN9__gnu_cxx13new_allocatorI4EdgeEC2Ev
FN:79,_ZN9__gnu_cxx13new_allocatorIcEC2Ev
FNDA:0,_ZN9__gnu_cxx13new_allocatorIcEC2Ev
FN:79,_ZN9__gnu_cxx13new_allocatorIbEC2Ev
FNDA:2,_ZN9__gnu_cxx13new_allocatorIbEC2Ev
FN:79,_ZN9__gnu_cxx13new_allocatorImEC2Ev
FNDA:6,_ZN9__gnu_cxx13new_allocatorImEC2Ev
FN:79,_ZN9__gnu_cxx13new_allocatorISt6vectorImSaImEEEC2Ev
FNDA:11,_ZN9__gnu_cxx13new_allocatorISt6vectorImSaImEEEC2Ev
FN:79,_ZN9__gnu_cxx13new_allocatorISt13_Rb_tree_nodeISt4pairIKi6VertexEEEC2Ev
FNDA:3,_ZN9__gnu_cxx13new_allocatorISt13_Rb_tree_nodeISt4pairIKi6VertexEEEC2Ev
FN:79,_ZN9__gnu_cxx13new_allocatorINSt8__detail10_Hash_nodeI4EdgeLb1EEEEC2Ev
FNDA:3,_ZN9__gnu_cxx13new_allocatorINSt8__detail10_Hash_nodeI4EdgeLb1EEEEC2Ev
FN:79,_ZN9__gnu_cxx13new_allocatorIiEC2Ev
FNDA:5,_ZN9__gnu_cxx13new_allocatorIiEC2Ev
FN:79,_ZN9__gnu_cxx13new_allocatorIPmEC2Ev
FNDA:2,_ZN9__gnu_cxx13new_allocatorIPmEC2Ev
FN:79,_ZN9__gnu_cxx13new_allocatorIPNSt8__detail15_Hash_node_baseEEC2Ev
FNDA:12,_ZN9__gnu_cxx13new_allocatorIPNSt8__detail15_Hash_node_baseEEC2Ev
FN:79,_ZN9__gnu_cxx13new_allocatorISt13_Rb_tree_nodeISt4pairIKmmEEEC2Ev
FNDA:11,_ZN9__gnu_cxx13new_allocatorISt13_Rb_tree_nodeISt4pairIKmmEEEC2Ev
FN:82,_ZN9__gnu_cxx13new_allocatorI4EdgeEC2ERKS2_
FNDA:0,_ZN9__gnu_cxx13new_allocatorI4EdgeEC2ERKS2_
FN:82,_ZN9__gnu_cxx13new_allocatorImEC2ERKS1_
FNDA:50,_ZN9__gnu_cxx13new_allocatorImEC2ERKS1_
FN:82,_ZN9__gnu_cxx13new_allocatorISt13_Rb_tree_nodeISt4pairIKmmEEEC2ERKS6_
FNDA:0,_ZN9__gnu_cxx13new_allocatorISt13_Rb_tree_nodeISt4pairIKmmEEEC2ERKS6_
FN:82,_ZN9__gnu_cxx13new_allocatorIcEC2ERKS1_
FNDA:0,_ZN9__gnu_cxx13new_allocatorIcEC2ERKS1_
FN:82,_ZN9__gnu_cxx13new_allocatorISt6vectorImSaImEEEC2ERKS4_
FNDA:22,_ZN9__gnu_cxx13new_allocatorISt6vectorImSaImEEEC2ERKS4_
FN:89,_ZN9__gnu_cxx13new_allocatorISt13_Rb_tree_nodeISt4pairIKmmEEED2Ev
FNDA:0,_ZN9__gnu_cxx13new_allocatorISt13_Rb_tree_nodeISt4pairIKmmEEED2Ev
FN:89,_ZN9__gnu_cxx13new_allocatorIPmED2Ev
FNDA:2,_ZN9__gnu_cxx13new_allocatorIPmED2Ev
FN:89,_ZN9__gnu_cxx13new_allocatorIPNSt8__detail15_Hash_node_baseEED2Ev
FNDA:12,_ZN9__gnu_cxx13new_allocatorIPNSt8__detail15_Hash_node_baseEED2Ev
FN:89,_ZN9__gnu_cxx13new_allocatorI4EdgeED2Ev
FNDA:0,_ZN9__gnu_cxx13new_allocatorI4EdgeED2Ev
FN:89,_ZN9__gnu_cxx13new_allocatorIiED2Ev
FNDA:9,_ZN9__gnu_cxx13new_allocatorIiED2Ev
FN:89,_ZN9__gnu_cxx13new_allocatorISt6vectorImSaImEEED2Ev
FNDA:33,_ZN9__gnu_cxx13new_allocatorISt6vectorImSaImEEED2Ev
FN:89,_ZN9__gnu_cxx13new_allocatorImED2Ev
FNDA:56,_ZN9__gnu_cxx13new_allocatorImED2Ev
FN:89,_ZN9__gnu_cxx13new_allocatorIcED2Ev
FNDA:0,_ZN9__gnu_cxx13new_allocatorIcED2Ev
FN:89,_ZN9__gnu_cxx13new_allocatorINSt8__detail10_Hash_nodeI4EdgeLb1EEEED2Ev
FNDA:3,_ZN9__gnu_cxx13new_allocatorINSt8__detail10_Hash_nodeI4EdgeLb1EEEED2Ev
FN:89,_ZN9__gnu_cxx13new_allocatorISt13_Rb_tree_nodeISt4pairIKi6VertexEEED2Ev
FNDA:3,_ZN9__gnu_cxx13new_allocatorISt13_Rb_tree_nodeISt4pairIKi6VertexEEED2Ev
FN:89,_ZN9__gnu_cxx13new_allocatorIbED2Ev
FNDA:2,_ZN9__gnu_cxx13new_allocatorIbED2Ev
FN:103,_ZN9__gnu_cxx13new_allocatorIiE8allocateEmPKv
FNDA:9,_ZN9__gnu_cxx13new_allocatorIiE8allocateEmPKv
FN:103,_ZN9__gnu_cxx13new_allocatorISt13_Rb_tree_nodeISt4pairIKmmEEE8allocateEmPKv
FNDA:0,_ZN9__gnu_cxx13new_allocatorISt13_Rb_tree_nodeISt4pairIKmmEEE8allocateEmPKv
FN:103,_ZN9__gnu_cxx13new_allocatorImE8allocateEmPKv
FNDA:27,_ZN9__gnu_cxx13new_allocatorImE8allocateEmPKv
FN:103,_ZN9__gnu_cxx13new_allocatorIPNSt8__detail15_Hash_node_baseEE8allocateEmPKv
FNDA:6,_ZN9__gnu_cxx13new_allocatorIPNSt8__detail15_Hash_node_baseEE8allocateEmPKv
FN:103,_ZN9__gnu_cxx13new_allocatorIPmE8allocateEmPKv
FNDA:1,_ZN9__gnu_cxx13new_allocatorIPmE8allocateEmPKv
FN:103,_ZN9__gnu_cxx13new_allocatorISt6vectorImSaImEEE8allocateEmPKv
FNDA:7,_ZN9__gnu_cxx13new_allocatorISt6vectorImSaImEEE8allocateEmPKv
FN:103,_ZN9__gnu_cxx13new_allocatorINSt8__detail10_Hash_nodeI4EdgeLb1EEEE8allocateEmPKv
FNDA:4,_ZN9__gnu_cxx13new_allocatorINSt8__detail10_Hash_nodeI4EdgeLb1EEEE8allocateEmPKv
FN:103,_ZN9__gnu_cxx13new_allocatorISt13_Rb_tree_nodeISt4pairIKi6VertexEEE8allocateEmPKv
FNDA:7,_ZN9__gnu_cxx13new_allocatorISt13_Rb_tree_nodeISt4pairIKi6VertexEEE8allocateEmPKv
FN:103,_ZN9__gnu_cxx13new_allocatorI4EdgeE8allocateEmPKv
FNDA:0,_ZN9__gnu_cxx13new_allocatorI4EdgeE8allocateEmPKv
FN:132,_ZN9__gnu_cxx13new_allocatorISt6vectorImSaImEEE10deallocateEPS3_m
FNDA:7,_ZN9__gnu_cxx13new_allocatorISt6vectorImSaImEEE10deallocateEPS3_m
FN:132,_ZN9__gnu_cxx13new_allocatorIiE10deallocateEPim
FNDA:9,_ZN9__gnu_cxx13new_allocatorIiE10deallocateEPim
FN:132,_ZN9__gnu_cxx13new_allocatorImE10deallocateEPmm
FNDA:27,_ZN9__gnu_cxx13new_allocatorImE10deallocateEPmm
FN:132,_ZN9__gnu_cxx13new_allocatorIPmE10deallocateEPS1_m
FNDA:1,_ZN9__gnu_cxx13new_allocatorIPmE10deallocateEPS1_m
FN:132,_ZN9__gnu_cxx13new_allocatorI4EdgeE10deallocateEPS1_m
FNDA:0,_ZN9__gnu_cxx13new_allocatorI4EdgeE10deallocateEPS1_m
FN:132,_ZN9__gnu_cxx13new_allocatorISt13_Rb_tree_nodeISt4pairIKmmEEE10deallocateEPS5_m
FNDA:0,_ZN9__gnu_cxx13new_allocatorISt13_Rb_tree_nodeISt4pairIKmmEEE10deallocateEPS5_m
FN:132,_ZN9__gnu_cxx13new_allocatorIPNSt8__detail15_Hash_node_baseEE10deallocateEPS3_m
FNDA:6,_ZN9__gnu_cxx13new_allocatorIPNSt8__detail15_Hash_node_baseEE10deallocateEPS3_m
FN:132,_ZN9__gnu_cxx13new_allocatorINSt8__detail10_Hash_nodeI4EdgeLb1EEEE10deallocateEPS4_m
FNDA:4,_ZN9__gnu_cxx13new_allocatorINSt8__detail10_Hash_nodeI4EdgeLb1EEEE10deallocateEPS4_m
FN:132,_ZN9__gnu_cxx13new_allocatorISt13_Rb_tree_nodeISt4pairIKi6VertexEEE10deallocateEPS6_m
FNDA:7,_ZN9__gnu_cxx13new_allocatorISt13_Rb_tree_nodeISt4pairIKi6VertexEEE10deallocateEPS6_m
FN:154,_ZNK9__gnu_cxx13new_allocatorISt6vectorImSaImEEE8max_sizeEv
FNDA:3,_ZNK9__gnu_cxx13new_allocatorISt6vectorImSaImEEE8max_sizeEv
FN:154,_ZNK9__gnu_cxx13new_allocatorIiE8max_sizeEv
FNDA:16,_ZNK9__gnu_cxx13new_allocatorIiE8max_sizeEv
FN:154,_ZNK9__gnu_cxx13new_allocatorImE8max_sizeEv
FNDA:3,_ZNK9__gnu_cxx13new_allocatorImE8max_sizeEv
FN:160,_ZN9__gnu_cxx13new_allocatorISt13_Rb_tree_nodeISt4pairIKi6VertexEEE9constructIS5_JRKSt21piecewise_construct_tSt5tupleIJOiEESC_IJEEEEEvPT_DpOT0_
FNDA:4,_ZN9__gnu_cxx13new_allocatorISt13_Rb_tree_nodeISt4pairIKi6VertexEEE9constructIS5_JRKSt21piecewise_construct_tSt5tupleIJOiEESC_IJEEEEEvPT_DpOT0_
FN:160,_ZN9__gnu_cxx13new_allocatorISt13_Rb_tree_nodeISt4pairIKi6VertexEEE9constructIS5_JRKSt21piecewise_construct_tSt5tupleIJRS3_EESC_IJEEEEEvPT_DpOT0_
FNDA:3,_ZN9__gnu_cxx13new_allocatorISt13_Rb_tree_nodeISt4pairIKi6VertexEEE9constructIS5_JRKSt21piecewise_construct_tSt5tupleIJRS3_EESC_IJEEEEEvPT_DpOT0_
FN:160,_ZN9__gnu_cxx13new_allocatorImE9constructImJmEEEvPT_DpOT0_
FNDA:1,_ZN9__gnu_cxx13new_allocatorImE9constructImJmEEEvPT_DpOT0_
FN:160,_ZN9__gnu_cxx13new_allocatorISt13_Rb_tree_nodeISt4pairIKmmEEE9constructIS4_JRKS4_EEEvPT_DpOT0_
FNDA:0,_ZN9__gnu_cxx13new_allocatorISt13_Rb_tree_nodeISt4pairIKmmEEE9constructIS4_JRKS4_EEEvPT_DpOT0_
FN:160,_ZN9__gnu_cxx13new_allocatorINSt8__detail10_Hash_nodeI4EdgeLb1EEEE9constructIS3_JRKS3_EEEvPT_DpOT0_
FNDA:4,_ZN9__gnu_cxx13new_allocatorINSt8__detail10_Hash_nodeI4EdgeLb1EEEE9constructIS3_JRKS3_EEEvPT_DpOT0_
FN:160,_ZN9__gnu_cxx13new_allocatorIiE9constructIiJiEEEvPT_DpOT0_
FNDA:7,_ZN9__gnu_cxx13new_allocatorIiE9constructIiJiEEEvPT_DpOT0_
FN:160,_ZN9__gnu_cxx13new_allocatorImE9constructImJRKmEEEvPT_DpOT0_
FNDA:2,_ZN9__gnu_cxx13new_allocatorImE9constructImJRKmEEEvPT_DpOT0_
FN:160,_ZN9__gnu_cxx13new_allocatorISt13_Rb_tree_nodeISt4pairIKmmEEE9constructIS4_JRKSt21piecewise_construct_tSt5tupleIJRS3_EESB_IJEEEEEvPT_DpOT0_
FNDA:8,_ZN9__gnu_cxx13new_allocatorISt13_Rb_tree_nodeISt4pairIKmmEEE9constructIS4_JRKSt21piecewise_construct_tSt5tupleIJRS3_EESB_IJEEEEEvPT_DpOT0_
FN:166,_ZN9__gnu_cxx13new_allocatorINSt8__detail10_Hash_nodeI4EdgeLb1EEEE7destroyIS3_EEvPT_
FNDA:4,_ZN9__gnu_cxx13new_allocatorINSt8__detail10_Hash_nodeI4EdgeLb1EEEE7destroyIS3_EEvPT_
FN:166,_ZN9__gnu_cxx13new_allocatorImE7destroyImEEvPT_
FNDA:3,_ZN9__gnu_cxx13new_allocatorImE7destroyImEEvPT_
FN:166,_ZN9__gnu_cxx13new_allocatorISt13_Rb_tree_nodeISt4pairIKmmEEE7destroyIS4_EEvPT_
FNDA:0,_ZN9__gnu_cxx13new_allocatorISt13_Rb_tree_nodeISt4pairIKmmEEE7destroyIS4_EEvPT_
FN:166,_ZN9__gnu_cxx13new_allocatorISt13_Rb_tree_nodeISt4pairIKi6VertexEEE7destroyIS5_EEvPT_
FNDA:7,_ZN9__gnu_cxx13new_allocatorISt13_Rb_tree_nodeISt4pairIKi6VertexEEE7destroyIS5_EEvPT_
FN:197,_ZNK9__gnu_cxx13new_allocatorISt13_Rb_tree_nodeISt4pairIKmmEEE11_M_max_sizeEv
FNDA:0,_ZNK9__gnu_cxx13new_allocatorISt13_Rb_tree_nodeISt4pairIKmmEEE11_M_max_sizeEv
FN:197,_ZNK9__gnu_cxx13new_allocatorISt6vectorImSaImEEE11_M_max_sizeEv
FNDA:10,_ZNK9__gnu_cxx13new_allocatorISt6vectorImSaImEEE11_M_max_sizeEv
FN:197,_ZNK9__gnu_cxx13new_allocatorIiE11_M_max_sizeEv
FNDA:25,_ZNK9__gnu_cxx13new_allocatorIiE11_M_max_sizeEv
FN:197,_ZNK9__gnu_cxx13new_allocatorISt13_Rb_tree_nodeISt4pairIKi6VertexEEE11_M_max_sizeEv
FNDA:7,_ZNK9__gnu_cxx13new_allocatorISt13_Rb_tree_nodeISt4pairIKi6VertexEEE11_M_max_sizeEv
FN:197,_ZNK9__gnu_cxx13new_allocatorIPNSt8__detail15_Hash_node_baseEE11_M_max_sizeEv
FNDA:6,_ZNK9__gnu_cxx13new_allocatorIPNSt8__detail15_Hash_node_baseEE11_M_max_sizeEv
FN:197,_ZNK9__gnu_cxx13new_allocatorI4EdgeE11_M_max_sizeEv
FNDA:0,_ZNK9__gnu_cxx13new_allocatorI4EdgeE11_M_max_sizeEv
FN:197,_ZNK9__gnu_cxx13new_allocatorImE11_M_max_sizeEv
FNDA:30,_ZNK9__gnu_cxx13new_allocatorImE11_M_max_sizeEv
FN:197,_ZNK9__gnu_cxx13new_allocatorINSt8__detail10_Hash_nodeI4EdgeLb1EEEE11_M_max_sizeEv
FNDA:4,_ZNK9__gnu_cxx13new_allocatorINSt8__detail10_Hash_nodeI4EdgeLb1EEEE11_M_max_sizeEv
FN:197,_ZNK9__gnu_cxx13new_allocatorIPmE11_M_max_sizeEv
FNDA:1,_ZNK9__gnu_cxx13new_allocatorIPmE11_M_max_sizeEv
DA:79,11
DA:79,11
DA:79,12
DA:79,2
DA:79,5
DA:79,3
DA:79,3
DA:79,11
DA:79,6
DA:79,2
DA:79,0
DA:82,0
DA:82,50
DA:82,0
DA:82,0
DA:82,22
DA:89,12
DA:89,2
DA:89,0
DA:89,0
DA:89,9
DA:89,56
DA:89,33
DA:89,3
DA:89,3
DA:89,2
DA:89,0
DA:103,6
DA:111,6
DA:115,0
DA:116,0
DA:117,0
DA:127,6
DA:103,4
DA:111,4
DA:115,0
DA:116,0
DA:117,0
DA:127,4
DA:103,9
DA:111,9
DA:115,0
DA:116,0
DA:117,0
DA:127,9
DA:103,0
DA:111,0
DA:115,0
DA:116,0
DA:117,0
DA:127,0
DA:103,7
DA:111,7
DA:115,0
DA:116,0
DA:117,0
DA:127,7
DA:103,7
DA:111,7
DA:115,0
DA:116,0
DA:117,0
DA:127,7
DA:103,0
DA:111,0
DA:115,0
DA:116,0
DA:117,0
DA:127,0
DA:103,1
DA:111,1
DA:115,0
DA:116,0
DA:117,0
DA:127,1
DA:103,27
DA:111,27
DA:115,0
DA:116,0
DA:117,0
DA:127,27
DA:132,4
DA:145,4
DA:132,0
DA:145,0
DA:132,6
DA:145,6
DA:132,7
DA:145,7
DA:132,0
DA:145,0
DA:132,1
DA:145,1
DA:132,27
DA:145,27
DA:132,9
DA:145,9
DA:132,7
DA:145,7
DA:154,16
DA:155,16
DA:154,3
DA:155,3
DA:154,3
DA:155,3
DA:160,0
DA:162,0
DA:160,4
DA:162,4
DA:160,8
DA:162,8
DA:160,3
DA:162,3
DA:160,4
DA:162,4
DA:160,1
DA:162,1
DA:160,7
DA:162,7
DA:160,2
DA:162,2
DA:166,0
DA:168,0
DA:166,4
DA:168,4
DA:166,7
DA:168,7
DA:166,3
DA:168,3
DA:197,6
DA:200,6
DA:197,4
DA:200,4
DA:197,25
DA:200,25
DA:197,0
DA:200,0
DA:197,10
DA:200,10
DA:197,7
DA:200,7
DA:197,0
DA:200,0
DA:197,1
DA:200,1
DA:197,30
DA:200,30
end_of_record
SF:/usr/include/c++/11/bits/stl_deque.h
FN:96,_ZSt16__deque_buf_sizem
FNDA:248,_ZSt16__deque_buf_sizem
FN:131,_ZNSt15_Deque_iteratorImRmPmE14_S_buffer_sizeEv
FNDA:2,_ZNSt15_Deque_iteratorImRmPmE14_S_buffer_sizeEv
FN:151,_ZNSt15_Deque_iteratorImRmPmEC2Ev
FNDA:2,_ZNSt15_Deque_iteratorImRmPmEC2Ev
FN:168,_ZNSt15_Deque_iteratorImRmPmEC2ERKS2_
FNDA:6,_ZNSt15_Deque_iteratorImRmPmEC2ERKS2_
FN:180,_ZNKSt15_Deque_iteratorImRmPmEdeEv
FNDA:4,_ZNKSt15_Deque_iteratorImRmPmEdeEv
FN:208,_ZNSt15_Deque_iteratorImRmPmEmmEv
FNDA:1,_ZNSt15_Deque_iteratorImRmPmEmmEv
FN:260,_ZNSt15_Deque_iteratorImRmPmE11_M_set_nodeEPS1_
FNDA:2,_ZNSt15_Deque_iteratorImRmPmE11_M_set_nodeEPS1_
FN:268,_ZSteqRKSt15_Deque_iteratorImRmPmES4_
FNDA:4,_ZSteqRKSt15_Deque_iteratorImRmPmES4_
FN:353,_ZStmiRKSt15_Deque_iteratorImRmPmES4_
FNDA:0,_ZStmiRKSt15_Deque_iteratorImRmPmES4_
FN:437,_ZNSt11_Deque_baseImSaImEEC2Ev
FNDA:1,_ZNSt11_Deque_baseImSaImEEC2Ev
FN:495,_ZNSt11_Deque_baseImSaImEE16_Deque_impl_dataC2Ev
FNDA:1,_ZNSt11_Deque_baseImSaImEE16_Deque_impl_dataC2Ev
FN:524,_ZNSt11_Deque_baseImSaImEE11_Deque_implC2Ev
FNDA:1,_ZNSt11_Deque_baseImSaImEE11_Deque_implC2Ev
FN:547,_ZNSt11_Deque_baseImSaImEE19_M_get_Tp_allocatorEv
FNDA:4,_ZNSt11_Deque_baseImSaImEE19_M_get_Tp_allocatorEv
FN:551,_ZNKSt11_Deque_baseImSaImEE19_M_get_Tp_allocatorEv
FNDA:2,_ZNKSt11_Deque_baseImSaImEE19_M_get_Tp_allocatorEv
FN:555,_ZNKSt11_Deque_baseImSaImEE20_M_get_map_allocatorEv
FNDA:2,_ZNKSt11_Deque_baseImSaImEE20_M_get_map_allocatorEv
FN:559,_ZNSt11_Deque_baseImSaImEE16_M_allocate_nodeEv
FNDA:1,_ZNSt11_Deque_baseImSaImEE16_M_allocate_nodeEv
FN:566,_ZNSt11_Deque_baseImSaImEE18_M_deallocate_nodeEPm
FNDA:1,_ZNSt11_Deque_baseImSaImEE18_M_deallocate_nodeEPm
FN:573,_ZNSt11_Deque_baseImSaImEE15_M_allocate_mapEm
FNDA:1,_ZNSt11_Deque_baseImSaImEE15_M_allocate_mapEm
FN:580,_ZNSt11_Deque_baseImSaImEE17_M_deallocate_mapEPPmm
FNDA:1,_ZNSt11_Deque_baseImSaImEE17_M_deallocate_mapEPPmm
FN:596,_ZNSt11_Deque_baseImSaImEED2Ev
FNDA:1,_ZNSt11_Deque_baseImSaImEED2Ev
FN:617,_ZNSt11_Deque_baseImSaImEE17_M_initialize_mapEm
FNDA:1,_ZNSt11_Deque_baseImSaImEE17_M_initialize_mapEm
FN:656,_ZNSt11_Deque_baseImSaImEE15_M_create_nodesEPPmS3_
FNDA:1,_ZNSt11_Deque_baseImSaImEE15_M_create_nodesEPPmS3_
FN:674,_ZNSt11_Deque_baseImSaImEE16_M_destroy_nodesEPPmS3_
FNDA:1,_ZNSt11_Deque_baseImSaImEE16_M_destroy_nodesEPPmS3_
FN:834,_ZNSt5dequeImSaImEEC2Ev
FNDA:1,_ZNSt5dequeImSaImEEC2Ev
FN:1006,_ZNSt5dequeImSaImEED2Ev
FNDA:1,_ZNSt5dequeImSaImEED2Ev
FN:1128,_ZNSt5dequeImSaImEE5beginEv
FNDA:4,_ZNSt5dequeImSaImEE5beginEv
FN:1145,_ZNSt5dequeImSaImEE3endEv
FNDA:2,_ZNSt5dequeImSaImEE3endEv
FN:1233,_ZNKSt5dequeImSaImEE4sizeEv
FNDA:0,_ZNKSt5dequeImSaImEE4sizeEv
FN:1238,_ZNKSt5dequeImSaImEE8max_sizeEv
FNDA:0,_ZNKSt5dequeImSaImEE8max_sizeEv
FN:1311,_ZNKSt5dequeImSaImEE5emptyEv
FNDA:4,_ZNKSt5dequeImSaImEE5emptyEv
FN:1405,_ZNSt5dequeImSaImEE5frontEv
FNDA:3,_ZNSt5dequeImSaImEE5frontEv
FN:1427,_ZNSt5dequeImSaImEE4backEv
FNDA:1,_ZNSt5dequeImSaImEE4backEv
FN:1496,_ZNSt5dequeImSaImEE9push_backERKm
FNDA:2,_ZNSt5dequeImSaImEE9push_backERKm
FN:1511,_ZNSt5dequeImSaImEE9push_backEOm
FNDA:1,_ZNSt5dequeImSaImEE9push_backEOm
FN:1532,_ZNSt5dequeImSaImEE9pop_frontEv
FNDA:3,_ZNSt5dequeImSaImEE9pop_frontEv
FN:1834,_ZNSt5dequeImSaImEE11_S_max_sizeERKS0_
FNDA:0,_ZNSt5dequeImSaImEE11_S_max_sizeERKS0_
FN:2045,_ZNSt5dequeImSaImEE15_M_destroy_dataESt15_Deque_iteratorImRmPmES5_RKS0_
FNDA:1,_ZNSt5dequeImSaImEE15_M_destroy_dataESt15_Deque_iteratorImRmPmES5_RKS0_
FN:2126,_ZNSt5dequeImSaImEE22_M_reserve_map_at_backEm
FNDA:0,_ZNSt5dequeImSaImEE22_M_reserve_map_at_backEm
DA:96,248
DA:98,248
DA:131,2
DA:132,2
DA:151,2
DA:152,2
DA:168,6
DA:169,6
DA:170,6
DA:180,4
DA:181,4
DA:208,1
DA:210,1
DA:212,0
DA:213,0
DA:215,1
DA:216,1
DA:260,2
DA:262,2
DA:263,2
DA:264,2
DA:265,2
DA:268,4
DA:269,4
DA:353,0
DA:355,0
DA:356,0
DA:357,0
DA:358,0
DA:437,1
DA:438,1
DA:439,1
DA:495,1
DA:496,1
DA:497,1
DA:524,1
DA:526,1
DA:527,1
DA:547,4
DA:548,4
DA:551,2
DA:552,2
DA:555,2
DA:556,2
DA:559,1
DA:562,1
DA:566,1
DA:569,1
DA:570,1
DA:573,1
DA:575,1
DA:576,2
DA:577,1
DA:580,1
DA:582,1
DA:583,1
DA:584,1
DA:596,1
DA:599,1
DA:601,1
DA:602,1
DA:603,1
DA:605,1
DA:617,1
DA:620,1
DA:623,2
DA:624,1
DA:625,1
DA:632,1
DA:633,1
DA:634,1
DA:637,1
DA:638,0
DA:640,0
DA:641,0
DA:642,0
DA:643,0
DA:646,1
DA:647,1
DA:648,1
DA:649,2
DA:650,1
DA:651,1
DA:652,1
DA:656,1
DA:662,2
DA:663,1
DA:665,0
DA:667,0
DA:668,0
DA:670,1
DA:674,1
DA:678,2
DA:679,1
DA:680,1
DA:834,1
DA:1006,1
DA:1007,1
DA:1128,4
DA:1129,4
DA:1145,2
DA:1146,2
DA:1233,0
DA:1234,0
DA:1238,0
DA:1239,0
DA:1311,4
DA:1312,4
DA:1405,3
DA:1408,3
DA:1427,1
DA:1430,1
DA:1431,1
DA:1432,1
DA:1496,2
DA:1498,2
DA:1499,2
DA:1501,2
DA:1503,2
DA:1506,0
DA:1507,2
DA:1511,1
DA:1512,1
DA:1532,3
DA:1535,3
DA:1536,3
DA:1538,3
DA:1540,3
DA:1543,0
DA:1544,3
DA:1834,0
DA:1836,0
DA:1837,0
DA:1838,0
DA:2045,1
DA:2050,1
DA:2126,0
DA:2128,0
DA:2129,0
DA:2130,0
DA:2131,0
end_of_record
SF:/usr/include/c++/11/bits/stl_function.h
FN:369,_ZNKSt8equal_toI4EdgeEclERKS0_S3_
FNDA:0,_ZNKSt8equal_toI4EdgeEclERKS0_S3_
FN:369,_ZNKSt8equal_toI6VertexEclERKS0_S3_
FNDA:0,_ZNKSt8equal_toI6VertexEclERKS0_S3_
FN:399,_ZNKSt4lessImEclERKmS2_
FNDA:6,_ZNKSt4lessImEclERKmS2_
FN:399,_ZNKSt4lessIiEclERKiS2_
FNDA:180,_ZNKSt4lessIiEclERKiS2_
FN:1174,_ZNKSt10_Select1stISt4pairIKmmEEclERKS2_
FNDA:16,_ZNKSt10_Select1stISt4pairIKmmEEclERKS2_
FN:1174,_ZNKSt10_Select1stISt4pairIKi6VertexEEclERKS3_
FNDA:105,_ZNKSt10_Select1stISt4pairIKi6VertexEEclERKS3_
DA:369,0
DA:370,0
DA:369,0
DA:370,0
DA:399,6
DA:400,6
DA:399,180
DA:400,180
DA:1174,16
DA:1175,16
DA:1174,105
DA:1175,105
end_of_record
SF:/usr/include/c++/11/bits/stl_iterator.h
FN:184,_ZNSt16reverse_iteratorIN9__gnu_cxx17__normal_iteratorIPiSt6vectorIiSaIiEEEEEC2ES6_
FNDA:13,_ZNSt16reverse_iteratorIN9__gnu_cxx17__normal_iteratorIPiSt6vectorIiSaIiEEEEEC2ES6_
FN:190,_ZNSt16reverse_iteratorIN9__gnu_cxx17__normal_iteratorIPiSt6vectorIiSaIiEEEEEC2ERKS7_
FNDA:7,_ZNSt16reverse_iteratorIN9__gnu_cxx17__normal_iteratorIPiSt6vectorIiSaIiEEEEEC2ERKS7_
FN:228,_ZNKSt16reverse_iteratorIN9__gnu_cxx17__normal_iteratorIPiSt6vectorIiSaIiEEEEE4baseEv
FNDA:20,_ZNKSt16reverse_iteratorIN9__gnu_cxx17__normal_iteratorIPiSt6vectorIiSaIiEEEEE4baseEv
FN:242,_ZNKSt16reverse_iteratorIN9__gnu_cxx17__normal_iteratorIPiSt6vectorIiSaIiEEEEEdeEv
FNDA:7,_ZNKSt16reverse_iteratorIN9__gnu_cxx17__normal_iteratorIPiSt6vectorIiSaIiEEEEEdeEv
FN:285,_ZNSt16reverse_iteratorIN9__gnu_cxx17__normal_iteratorIPiSt6vectorIiSaIiEEEEEppEi
FNDA:7,_ZNSt16reverse_iteratorIN9__gnu_cxx17__normal_iteratorIPiSt6vectorIiSaIiEEEEEppEi
FN:420,_ZSteqIN9__gnu_cxx17__normal_iteratorIPiSt6vectorIiSaIiEEEEEbRKSt16reverse_iteratorIT_ESB_
FNDA:10,_ZSteqIN9__gnu_cxx17__normal_iteratorIPiSt6vectorIiSaIiEEEEEbRKSt16reverse_iteratorIT_ESB_
FN:432,_ZStneIN9__gnu_cxx17__normal_iteratorIPiSt6vectorIiSaIiEEEEEbRKSt16reverse_iteratorIT_ESB_
FNDA:10,_ZStneIN9__gnu_cxx17__normal_iteratorIPiSt6vectorIiSaIiEEEEEbRKSt16reverse_iteratorIT_ESB_
FN:1027,_ZN9__gnu_cxx17__normal_iteratorIPKmSt6vectorImSaImEEEC2ERKS2_
FNDA:42,_ZN9__gnu_cxx17__normal_iteratorIPKmSt6vectorImSaImEEEC2ERKS2_
FN:1027,_ZN9__gnu_cxx17__normal_iteratorIPK4EdgeSt6vectorIS1_SaIS1_EEEC2ERKS3_
FNDA:0,_ZN9__gnu_cxx17__normal_iteratorIPK4EdgeSt6vectorIS1_SaIS1_EEEC2ERKS3_
FN:1027,_ZN9__gnu_cxx17__normal_iteratorIPKSt6vectorImSaImEES1_IS3_SaIS3_EEEC2ERKS5_
FNDA:14,_ZN9__gnu_cxx17__normal_iteratorIPKSt6vectorImSaImEES1_IS3_SaIS3_EEEC2ERKS5_
FN:1027,_ZN9__gnu_cxx17__normal_iteratorIPiSt6vectorIiSaIiEEEC2ERKS1_
FNDA:41,_ZN9__gnu_cxx17__normal_iteratorIPiSt6vectorIiSaIiEEEC2ERKS1_
FN:1042,_ZNK9__gnu_cxx17__normal_iteratorIPKSt6vectorImSaImEES1_IS3_SaIS3_EEEdeEv
FNDA:12,_ZNK9__gnu_cxx17__normal_iteratorIPKSt6vectorImSaImEES1_IS3_SaIS3_EEEdeEv
FN:1042,_ZNK9__gnu_cxx17__normal_iteratorIPiSt6vectorIiSaIiEEEdeEv
FNDA:14,_ZNK9__gnu_cxx17__normal_iteratorIPiSt6vectorIiSaIiEEEdeEv
FN:1042,_ZNK9__gnu_cxx17__normal_iteratorIPK4EdgeSt6vectorIS1_SaIS1_EEEdeEv
FNDA:0,_ZNK9__gnu_cxx17__normal_iteratorIPK4EdgeSt6vectorIS1_SaIS1_EEEdeEv
FN:1042,_ZNK9__gnu_cxx17__normal_iteratorIP4EdgeSt6vectorIS1_SaIS1_EEEdeEv
FNDA:2,_ZNK9__gnu_cxx17__normal_iteratorIP4EdgeSt6vectorIS1_SaIS1_EEEdeEv
FN:1052,_ZN9__gnu_cxx17__normal_iteratorIPK4EdgeSt6vectorIS1_SaIS1_EEEppEv
FNDA:0,_ZN9__gnu_cxx17__normal_iteratorIPK4EdgeSt6vectorIS1_SaIS1_EEEppEv
FN:1052,_ZN9__gnu_cxx17__normal_iteratorIP4EdgeSt6vectorIS1_SaIS1_EEEppEv
FNDA:2,_ZN9__gnu_cxx17__normal_iteratorIP4EdgeSt6vectorIS1_SaIS1_EEEppEv
FN:1052,_ZN9__gnu_cxx17__normal_iteratorIPKSt6vectorImSaImEES1_IS3_SaIS3_EEEppEv
FNDA:12,_ZN9__gnu_cxx17__normal_iteratorIPKSt6vectorImSaImEES1_IS3_SaIS3_EEEppEv
FN:1066,_ZN9__gnu_cxx17__normal_iteratorIPiSt6vectorIiSaIiEEEmmEv
FNDA:14,_ZN9__gnu_cxx17__normal_iteratorIPiSt6vectorIiSaIiEEEmmEv
FN:1100,_ZNK9__gnu_cxx17__normal_iteratorIPiSt6vectorIiSaIiEEEmiEl
FNDA:7,_ZNK9__gnu_cxx17__normal_iteratorIPiSt6vectorIiSaIiEEEmiEl
FN:1105,_ZNK9__gnu_cxx17__normal_iteratorIPKSt6vectorImSaImEES1_IS3_SaIS3_EEE4baseEv
FNDA:38,_ZNK9__gnu_cxx17__normal_iteratorIPKSt6vectorImSaImEES1_IS3_SaIS3_EEE4baseEv
FN:1105,_ZNK9__gnu_cxx17__normal_iteratorIP4EdgeSt6vectorIS1_SaIS1_EEE4baseEv
FNDA:88,_ZNK9__gnu_cxx17__normal_iteratorIP4EdgeSt6vectorIS1_SaIS1_EEE4baseEv
FN:1105,_ZNK9__gnu_cxx17__normal_iteratorIPKmSt6vectorImSaImEEE4baseEv
FNDA:42,_ZNK9__gnu_cxx17__normal_iteratorIPKmSt6vectorImSaImEEE4baseEv
FN:1105,_ZNK9__gnu_cxx17__normal_iteratorIPiSt6vectorIiSaIiEEE4baseEv
FNDA:48,_ZNK9__gnu_cxx17__normal_iteratorIPiSt6vectorIiSaIiEEE4baseEv
FN:1105,_ZNK9__gnu_cxx17__normal_iteratorIPK4EdgeSt6vectorIS1_SaIS1_EEE4baseEv
FNDA:0,_ZNK9__gnu_cxx17__normal_iteratorIPK4EdgeSt6vectorIS1_SaIS1_EEE4baseEv
FN:1163,_ZN9__gnu_cxxeqIPKSt6vectorImSaImEES1_IS3_SaIS3_EEEEbRKNS_17__normal_iteratorIT_T0_EESD_
FNDA:3,_ZN9__gnu_cxxeqIPKSt6vectorImSaImEES1_IS3_SaIS3_EEEEbRKNS_17__normal_iteratorIT_T0_EESD_
FN:1163,_ZN9__gnu_cxxeqIPiSt6vectorIiSaIiEEEEbRKNS_17__normal_iteratorIT_T0_EESA_
FNDA:10,_ZN9__gnu_cxxeqIPiSt6vectorIiSaIiEEEEbRKNS_17__normal_iteratorIT_T0_EESA_
FN:1179,_ZN9__gnu_cxxneIPK4EdgeSt6vectorIS1_SaIS1_EEEEbRKNS_17__normal_iteratorIT_T0_EESC_
FNDA:0,_ZN9__gnu_cxxneIPK4EdgeSt6vectorIS1_SaIS1_EEEEbRKNS_17__normal_iteratorIT_T0_EESC_
FN:1179,_ZN9__gnu_cxxneIPKSt6vectorImSaImEES1_IS3_SaIS3_EEEEbRKNS_17__normal_iteratorIT_T0_EESD_
FNDA:16,_ZN9__gnu_cxxneIPKSt6vectorImSaImEES1_IS3_SaIS3_EEEEbRKNS_17__normal_iteratorIT_T0_EESD_
FN:1179,_ZN9__gnu_cxxneIP4EdgeSt6vectorIS1_SaIS1_EEEEbRKNS_17__normal_iteratorIT_T0_EESB_
FNDA:4,_ZN9__gnu_cxxneIP4EdgeSt6vectorIS1_SaIS1_EEEEbRKNS_17__normal_iteratorIT_T0_EESB_
FN:1268,_ZN9__gnu_cxxmiIPiSt6vectorIiSaIiEEEENS_17__normal_iteratorIT_T0_E15difference_typeERKS8_SB_
FNDA:7,_ZN9__gnu_cxxmiIPiSt6vectorIiSaIiEEEENS_17__normal_iteratorIT_T0_E15difference_typeERKS8_SB_
FN:1291,_ZSt12__niter_baseIPKmSt6vectorImSaImEEET_N9__gnu_cxx17__normal_iteratorIS5_T0_EE
FNDA:42,_ZSt12__niter_baseIPKmSt6vectorImSaImEEET_N9__gnu_cxx17__normal_iteratorIS5_T0_EE
DA:184,13
DA:190,7
DA:191,7
DA:228,20
DA:229,20
DA:242,7
DA:244,7
DA:245,7
DA:285,7
DA:287,7
DA:288,7
DA:289,7
DA:420,10
DA:422,10
DA:432,10
DA:434,10
DA:1027,42
DA:1028,42
DA:1027,41
DA:1028,41
DA:1027,14
DA:1028,14
DA:1027,0
DA:1028,0
DA:1042,12
DA:1043,12
DA:1042,0
DA:1043,0
DA:1042,14
DA:1043,14
DA:1042,2
DA:1043,2
DA:1052,12
DA:1054,12
DA:1055,12
DA:1052,0
DA:1054,0
DA:1055,0
DA:1052,2
DA:1054,2
DA:1055,2
DA:1066,14
DA:1068,14
DA:1069,14
DA:1100,7
DA:1101,7
DA:1105,42
DA:1106,42
DA:1105,0
DA:1106,0
DA:1105,48
DA:1106,48
DA:1105,38
DA:1106,38
DA:1105,88
DA:1106,88
DA:1163,10
DA:1166,10
DA:1163,3
DA:1166,3
DA:1179,16
DA:1182,16
DA:1179,0
DA:1182,0
DA:1179,4
DA:1182,4
DA:1268,7
DA:1271,7
DA:1291,42
DA:1293,42
end_of_record
SF:/usr/include/c++/11/bits/stl_iterator_base_types.h
FN:238,_ZSt19__iterator_categoryIPmENSt15iterator_traitsIT_E17iterator_categoryERKS2_
FNDA:3,_ZSt19__iterator_categoryIPmENSt15iterator_traitsIT_E17iterator_categoryERKS2_
FN:238,_ZSt19__iterator_categoryIPcENSt15iterator_traitsIT_E17iterator_categoryERKS2_
FNDA:60,_ZSt19__iterator_categoryIPcENSt15iterator_traitsIT_E17iterator_categoryERKS2_
FN:238,_ZSt19__iterator_categoryIPKcENSt15iterator_traitsIT_E17iterator_categoryERKS3_
FNDA:41,_ZSt19__iterator_categoryIPKcENSt15iterator_traitsIT_E17iterator_categoryERKS3_
DA:238,3
DA:239,3
DA:238,60
DA:239,60
DA:238,41
DA:239,41
end_of_record
SF:/usr/include/c++/11/bits/stl_bvector.h
FN:77,_ZNSt14_Bit_referenceC2EPmm
FNDA:17,_ZNSt14_Bit_referenceC2EPmm
FN:86,_ZNKSt14_Bit_referencecvbEv
FNDA:11,_ZNKSt14_Bit_referencecvbEv
FN:90,_ZNSt14_Bit_referenceaSEb
FNDA:6,_ZNSt14_Bit_referenceaSEb
FN:148,_ZNSt18_Bit_iterator_baseC2EPmj
FNDA:27,_ZNSt18_Bit_iterator_baseC2EPmj
FN:172,_ZNSt18_Bit_iterator_base7_M_incrEl
FNDA:19,_ZNSt18_Bit_iterator_base7_M_incrEl
FN:241,_ZNSt13_Bit_iteratorC2Ev
FNDA:8,_ZNSt13_Bit_iteratorC2Ev
FN:243,_ZNSt13_Bit_iteratorC2EPmj
FNDA:19,_ZNSt13_Bit_iteratorC2EPmj
FN:251,_ZNKSt13_Bit_iteratordeEv
FNDA:17,_ZNKSt13_Bit_iteratordeEv
FN:285,_ZNSt13_Bit_iteratorpLEl
FNDA:19,_ZNSt13_Bit_iteratorpLEl
FN:299,_ZNKSt13_Bit_iteratorixEl
FNDA:17,_ZNKSt13_Bit_iteratorixEl
FN:303,_ZStplRKSt13_Bit_iteratorl
FNDA:19,_ZStplRKSt13_Bit_iteratorl
FN:443,_ZNSt13_Bvector_baseISaIbEE18_Bvector_impl_dataC2Ev
FNDA:4,_ZNSt13_Bvector_baseISaIbEE18_Bvector_impl_dataC2Ev
FN:465,_ZNSt13_Bvector_baseISaIbEE18_Bvector_impl_data8_M_resetEv
FNDA:2,_ZNSt13_Bvector_baseISaIbEE18_Bvector_impl_data8_M_resetEv
FN:485,_ZNSt13_Bvector_baseISaIbEE13_Bvector_implC2ERKSaImE
FNDA:2,_ZNSt13_Bvector_baseISaIbEE13_Bvector_implC2ERKSaImE
FN:502,_ZNKSt13_Bvector_baseISaIbEE13_Bvector_impl11_M_end_addrEv
FNDA:4,_ZNKSt13_Bvector_baseISaIbEE13_Bvector_impl11_M_end_addrEv
FN:531,_ZNSt13_Bvector_baseISaIbEEC2ERKS0_
FNDA:2,_ZNSt13_Bvector_baseISaIbEEC2ERKS0_
FN:542,_ZNSt13_Bvector_baseISaIbEED2Ev
FNDA:2,_ZNSt13_Bvector_baseISaIbEED2Ev
FN:549,_ZNSt13_Bvector_baseISaIbEE11_M_allocateEm
FNDA:2,_ZNSt13_Bvector_baseISaIbEE11_M_allocateEm
FN:553,_ZNSt13_Bvector_baseISaIbEE13_M_deallocateEv
FNDA:2,_ZNSt13_Bvector_baseISaIbEE13_M_deallocateEv
FN:572,_ZNSt13_Bvector_baseISaIbEE8_S_nwordEm
FNDA:4,_ZNSt13_Bvector_baseISaIbEE8_S_nwordEm
FN:647,_ZNSt6vectorIbSaIbEEC2EmRKbRKS0_
FNDA:2,_ZNSt6vectorIbSaIbEEC2EmRKbRKS0_
FN:733,_ZNSt6vectorIbSaIbEED2Ev
FNDA:2,_ZNSt6vectorIbSaIbEED2Ev
FN:831,_ZNSt6vectorIbSaIbEE5beginEv
FNDA:17,_ZNSt6vectorIbSaIbEE5beginEv
FN:906,_ZNSt6vectorIbSaIbEEixEm
FNDA:17,_ZNSt6vectorIbSaIbEEixEm
FN:1137,_ZNSt6vectorIbSaIbEE13_M_initializeEm
FNDA:2,_ZNSt6vectorIbSaIbEE13_M_initializeEm
FN:1150,_ZNSt6vectorIbSaIbEE19_M_initialize_valueEb
FNDA:2,_ZNSt6vectorIbSaIbEE19_M_initialize_valueEb
DA:77,17
DA:78,17
DA:86,11
DA:87,11
DA:90,6
DA:92,6
DA:93,6
DA:95,0
DA:96,6
DA:148,27
DA:149,27
DA:172,19
DA:174,19
DA:175,19
DA:176,19
DA:177,19
DA:179,0
DA:180,0
DA:182,19
DA:183,19
DA:241,8
DA:243,19
DA:244,19
DA:251,17
DA:252,17
DA:285,19
DA:287,19
DA:288,19
DA:299,17
DA:300,17
DA:303,19
DA:305,19
DA:306,19
DA:307,19
DA:443,4
DA:444,4
DA:445,4
DA:465,2
DA:466,2
DA:485,2
DA:486,2
DA:487,2
DA:502,4
DA:504,4
DA:505,4
DA:506,0
DA:531,2
DA:532,2
DA:542,2
DA:543,2
DA:549,2
DA:550,2
DA:553,2
DA:555,2
DA:557,2
DA:558,2
DA:559,2
DA:561,2
DA:563,2
DA:572,4
DA:573,4
DA:647,2
DA:654,2
DA:656,2
DA:657,2
DA:658,2
DA:733,2
DA:831,17
DA:832,17
DA:906,17
DA:907,17
DA:1137,2
DA:1139,2
DA:1141,2
DA:1142,2
DA:1143,2
DA:1144,2
DA:1145,2
DA:1147,2
DA:1150,2
DA:1152,2
DA:1153,2
DA:1154,2
DA:1156,2
end_of_record
SF:/usr/include/c++/11/bits/stl_map.h
FN:185,_ZNSt3mapIi6VertexSt4lessIiESaISt4pairIKiS0_EEEC2Ev
FNDA:3,_ZNSt3mapIi6VertexSt4lessIiESaISt4pairIKiS0_EEEC2Ev
FN:185,_ZNSt3mapImmSt4lessImESaISt4pairIKmmEEEC2Ev
FNDA:11,_ZNSt3mapImmSt4lessImESaISt4pairIKmmEEEC2Ev
FN:207,_ZNSt3mapImmSt4lessImESaISt4pairIKmmEEEC2ERKS6_
FNDA:0,_ZNSt3mapImmSt4lessImESaISt4pairIKmmEEEC2ERKS6_
FN:302,_ZNSt3mapIi6VertexSt4lessIiESaISt4pairIKiS0_EEED2Ev
FNDA:3,_ZNSt3mapIi6VertexSt4lessIiESaISt4pairIKiS0_EEED2Ev
FN:302,_ZNSt3mapImmSt4lessImESaISt4pairIKmmEEED2Ev
FNDA:0,_ZNSt3mapImmSt4lessImESaISt4pairIKmmEEED2Ev
FN:356,_ZNSt3mapIi6VertexSt4lessIiESaISt4pairIKiS0_EEE5beginEv
FNDA:2,_ZNSt3mapIi6VertexSt4lessIiESaISt4pairIKiS0_EEE5beginEv
FN:365,_ZNKSt3mapIi6VertexSt4lessIiESaISt4pairIKiS0_EEE5beginEv
FNDA:1,_ZNKSt3mapIi6VertexSt4lessIiESaISt4pairIKiS0_EEE5beginEv
FN:374,_ZNSt3mapImmSt4lessImESaISt4pairIKmmEEE3endEv
FNDA:15,_ZNSt3mapImmSt4lessImESaISt4pairIKmmEEE3endEv
FN:374,_ZNSt3mapIi6VertexSt4lessIiESaISt4pairIKiS0_EEE3endEv
FNDA:51,_ZNSt3mapIi6VertexSt4lessIiESaISt4pairIKiS0_EEE3endEv
FN:383,_ZNKSt3mapIi6VertexSt4lessIiESaISt4pairIKiS0_EEE3endEv
FNDA:1,_ZNKSt3mapIi6VertexSt4lessIiESaISt4pairIKiS0_EEE3endEv
FN:470,_ZNKSt3mapIi6VertexSt4lessIiESaISt4pairIKiS0_EEE4sizeEv
FNDA:13,_ZNKSt3mapIi6VertexSt4lessIiESaISt4pairIKiS0_EEE4sizeEv
FN:492,_ZNSt3mapImmSt4lessImESaISt4pairIKmmEEEixERS3_
FNDA:8,_ZNSt3mapImmSt4lessImESaISt4pairIKmmEEEixERS3_
FN:492,_ZNSt3mapIi6VertexSt4lessIiESaISt4pairIKiS0_EEEixERS4_
FNDA:21,_ZNSt3mapIi6VertexSt4lessIiESaISt4pairIKiS0_EEEixERS4_
FN:512,_ZNSt3mapIi6VertexSt4lessIiESaISt4pairIKiS0_EEEixEOi
FNDA:28,_ZNSt3mapIi6VertexSt4lessIiESaISt4pairIKiS0_EEEixEOi
FN:546,_ZNKSt3mapIi6VertexSt4lessIiESaISt4pairIKiS0_EEE2atERS4_
FNDA:0,_ZNKSt3mapIi6VertexSt4lessIiESaISt4pairIKiS0_EEE2atERS4_
FN:1068,_ZNSt3mapImmSt4lessImESaISt4pairIKmmEEE5eraseERS3_
FNDA:0,_ZNSt3mapImmSt4lessImESaISt4pairIKmmEEE5eraseERS3_
FN:1133,_ZNSt3mapImmSt4lessImESaISt4pairIKmmEEE5clearEv
FNDA:6,_ZNSt3mapImmSt4lessImESaISt4pairIKmmEEE5clearEv
FN:1142,_ZNKSt3mapIi6VertexSt4lessIiESaISt4pairIKiS0_EEE8key_compEv
FNDA:44,_ZNKSt3mapIi6VertexSt4lessIiESaISt4pairIKiS0_EEE8key_compEv
FN:1142,_ZNKSt3mapImmSt4lessImESaISt4pairIKmmEEE8key_compEv
FNDA:0,_ZNKSt3mapImmSt4lessImESaISt4pairIKmmEEE8key_compEv
FN:1194,_ZNKSt3mapIi6VertexSt4lessIiESaISt4pairIKiS0_EEE4findERS4_
FNDA:0,_ZNKSt3mapIi6VertexSt4lessIiESaISt4pairIKiS0_EEE4findERS4_
FN:1258,_ZNSt3mapIi6VertexSt4lessIiESaISt4pairIKiS0_EEE11lower_boundERS4_
FNDA:49,_ZNSt3mapIi6VertexSt4lessIiESaISt4pairIKiS0_EEE11lower_boundERS4_
FN:1258,_ZNSt3mapImmSt4lessImESaISt4pairIKmmEEE11lower_boundERS3_
FNDA:8,_ZNSt3mapImmSt4lessImESaISt4pairIKmmEEE11lower_boundERS3_
FN:1283,_ZNKSt3mapIi6VertexSt4lessIiESaISt4pairIKiS0_EEE11lower_boundERS4_
FNDA:0,_ZNKSt3mapIi6VertexSt4lessIiESaISt4pairIKiS0_EEE11lower_boundERS4_
DA:185,11
DA:185,3
DA:207,0
DA:302,0
DA:302,3
DA:356,2
DA:357,2
DA:365,1
DA:366,1
DA:374,15
DA:375,15
DA:374,51
DA:375,51
DA:383,1
DA:384,1
DA:470,13
DA:471,13
DA:492,8
DA:497,8
DA:499,8
DA:501,8
DA:502,8
DA:503,8
DA:507,8
DA:492,21
DA:497,21
DA:499,21
DA:501,3
DA:502,3
DA:503,3
DA:507,21
DA:512,28
DA:517,28
DA:519,28
DA:520,4
DA:521,4
DA:522,4
DA:523,28
DA:546,0
DA:548,0
DA:549,0
DA:550,0
DA:551,0
DA:1068,0
DA:1069,0
DA:1133,6
DA:1134,6
DA:1142,0
DA:1143,0
DA:1142,44
DA:1143,44
DA:1194,0
DA:1195,0
DA:1258,8
DA:1259,8
DA:1258,49
DA:1259,49
DA:1283,0
DA:1284,0
end_of_record
SF:/usr/include/c++/11/bits/hashtable.h
FN:297,_ZNSt10_HashtableI4EdgeS0_SaIS0_ENSt8__detail9_IdentityESt8equal_toIS0_ESt4hashIS0_ENS2_18_Mod_range_hashingENS2_20_Default_ranged_hashENS2_20_Prime_rehash_policyENS2_17_Hashtable_traitsILb1ELb1ELb1EEEE12_Scoped_nodeC2EPNS2_10_Hash_nodeIS0_Lb1EEEPNS2_16_Hashtable_allocISaISG_EEE
FNDA:4,_ZNSt10_HashtableI4EdgeS0_SaIS0_ENSt8__detail9_IdentityESt8equal_toIS0_ESt4hashIS0_ENS2_18_Mod_range_hashingENS2_20_Default_ranged_hashENS2_20_Prime_rehash_policyENS2_17_Hashtable_traitsILb1ELb1ELb1EEEE12_Scoped_nodeC2EPNS2_10_Hash_nodeIS0_Lb1EEEPNS2_16_Hashtable_allocISaISG_EEE
FN:308,_ZNSt10_HashtableI4EdgeS0_SaIS0_ENSt8__detail9_IdentityESt8equal_toIS0_ESt4hashIS0_ENS2_18_Mod_range_hashingENS2_20_Default_ranged_hashENS2_20_Prime_rehash_policyENS2_17_Hashtable_traitsILb1ELb1ELb1EEEE12_Scoped_nodeD2Ev
FNDA:4,_ZNSt10_HashtableI4EdgeS0_SaIS0_ENSt8__detail9_IdentityESt8equal_toIS0_ESt4hashIS0_ENS2_18_Mod_range_hashingENS2_20_Default_ranged_hashENS2_20_Prime_rehash_policyENS2_17_Hashtable_traitsILb1ELb1ELb1EEEE12_Scoped_nodeD2Ev
FN:421,_ZNKSt10_HashtableI4EdgeS0_SaIS0_ENSt8__detail9_IdentityESt8equal_toIS0_ESt4hashIS0_ENS2_18_Mod_range_hashingENS2_20_Default_ranged_hashENS2_20_Prime_rehash_policyENS2_17_Hashtable_traitsILb1ELb1ELb1EEEE21_M_uses_single_bucketEPPNS2_15_Hash_node_baseE
FNDA:5,_ZNKSt10_HashtableI4EdgeS0_SaIS0_ENSt8__detail9_IdentityESt8equal_toIS0_ESt4hashIS0_ENS2_18_Mod_range_hashingENS2_20_Default_ranged_hashENS2_20_Prime_rehash_policyENS2_17_Hashtable_traitsILb1ELb1ELb1EEEE21_M_uses_single_bucketEPPNS2_15_Hash_node_baseE
FN:432,_ZNSt10_HashtableI4EdgeS0_SaIS0_ENSt8__detail9_IdentityESt8equal_toIS0_ESt4hashIS0_ENS2_18_Mod_range_hashingENS2_20_Default_ranged_hashENS2_20_Prime_rehash_policyENS2_17_Hashtable_traitsILb1ELb1ELb1EEEE19_M_allocate_bucketsEm
FNDA:2,_ZNSt10_HashtableI4EdgeS0_SaIS0_ENSt8__detail9_IdentityESt8equal_toIS0_ESt4hashIS0_ENS2_18_Mod_range_hashingENS2_20_Default_ranged_hashENS2_20_Prime_rehash_policyENS2_17_Hashtable_traitsILb1ELb1ELb1EEEE19_M_allocate_bucketsEm
FN:444,_ZNSt10_HashtableI4EdgeS0_SaIS0_ENSt8__detail9_IdentityESt8equal_toIS0_ESt4hashIS0_ENS2_18_Mod_range_hashingENS2_20_Default_ranged_hashENS2_20_Prime_rehash_policyENS2_17_Hashtable_traitsILb1ELb1ELb1EEEE21_M_deallocate_bucketsEPPNS2_15_Hash_node_baseEm
FNDA:5,_ZNSt10_HashtableI4EdgeS0_SaIS0_ENSt8__detail9_IdentityESt8equal_toIS0_ESt4hashIS0_ENS2_18_Mod_range_hashingENS2_20_Default_ranged_hashENS2_20_Prime_rehash_policyENS2_17_Hashtable_traitsILb1ELb1ELb1EEEE21_M_deallocate_bucketsEPPNS2_15_Hash_node_baseEm
FN:453,_ZNSt10_HashtableI4EdgeS0_SaIS0_ENSt8__detail9_IdentityESt8equal_toIS0_ESt4hashIS0_ENS2_18_Mod_range_hashingENS2_20_Default_ranged_hashENS2_20_Prime_rehash_policyENS2_17_Hashtable_traitsILb1ELb1ELb1EEEE21_M_deallocate_bucketsEv
FNDA:5,_ZNSt10_HashtableI4EdgeS0_SaIS0_ENSt8__detail9_IdentityESt8equal_toIS0_ESt4hashIS0_ENS2_18_Mod_range_hashingENS2_20_Default_ranged_hashENS2_20_Prime_rehash_policyENS2_17_Hashtable_traitsILb1ELb1ELb1EEEE21_M_deallocate_bucketsEv
FN:462,_ZNKSt10_HashtableI6VertexS0_SaIS0_ENSt8__detail9_IdentityESt8equal_toIS0_ESt4hashIS0_ENS2_18_Mod_range_hashingENS2_20_Default_ranged_hashENS2_20_Prime_rehash_policyENS2_17_Hashtable_traitsILb1ELb1ELb1EEEE8_M_beginEv
FNDA:16,_ZNKSt10_HashtableI6VertexS0_SaIS0_ENSt8__detail9_IdentityESt8equal_toIS0_ESt4hashIS0_ENS2_18_Mod_range_hashingENS2_20_Default_ranged_hashENS2_20_Prime_rehash_policyENS2_17_Hashtable_traitsILb1ELb1ELb1EEEE8_M_beginEv
FN:462,_ZNKSt10_HashtableI4EdgeS0_SaIS0_ENSt8__detail9_IdentityESt8equal_toIS0_ESt4hashIS0_ENS2_18_Mod_range_hashingENS2_20_Default_ranged_hashENS2_20_Prime_rehash_policyENS2_17_Hashtable_traitsILb1ELb1ELb1EEEE8_M_beginEv
FNDA:8,_ZNKSt10_HashtableI4EdgeS0_SaIS0_ENSt8__detail9_IdentityESt8equal_toIS0_ESt4hashIS0_ENS2_18_Mod_range_hashingENS2_20_Default_ranged_hashENS2_20_Prime_rehash_policyENS2_17_Hashtable_traitsILb1ELb1ELb1EEEE8_M_beginEv
FN:528,_ZNSt10_HashtableI4EdgeS0_SaIS0_ENSt8__detail9_IdentityESt8equal_toIS0_ESt4hashIS0_ENS2_18_Mod_range_hashingENS2_20_Default_ranged_hashENS2_20_Prime_rehash_policyENS2_17_Hashtable_traitsILb1ELb1ELb1EEEEC2Ev
FNDA:3,_ZNSt10_HashtableI4EdgeS0_SaIS0_ENSt8__detail9_IdentityESt8equal_toIS0_ESt4hashIS0_ENS2_18_Mod_range_hashingENS2_20_Default_ranged_hashENS2_20_Prime_rehash_policyENS2_17_Hashtable_traitsILb1ELb1ELb1EEEEC2Ev
FN:621,_ZNSt10_HashtableI4EdgeS0_SaIS0_ENSt8__detail9_IdentityESt8equal_toIS0_ESt4hashIS0_ENS2_18_Mod_range_hashingENS2_20_Default_ranged_hashENS2_20_Prime_rehash_policyENS2_17_Hashtable_traitsILb1ELb1ELb1EEEE5beginEv
FNDA:0,_ZNSt10_HashtableI4EdgeS0_SaIS0_ENSt8__detail9_IdentityESt8equal_toIS0_ESt4hashIS0_ENS2_18_Mod_range_hashingENS2_20_Default_ranged_hashENS2_20_Prime_rehash_policyENS2_17_Hashtable_traitsILb1ELb1ELb1EEEE5beginEv
FN:621,_ZNSt10_HashtableI6VertexS0_SaIS0_ENSt8__detail9_IdentityESt8equal_toIS0_ESt4hashIS0_ENS2_18_Mod_range_hashingENS2_20_Default_ranged_hashENS2_20_Prime_rehash_policyENS2_17_Hashtable_traitsILb1ELb1ELb1EEEE5beginEv
FNDA:4,_ZNSt10_HashtableI6VertexS0_SaIS0_ENSt8__detail9_IdentityESt8equal_toIS0_ESt4hashIS0_ENS2_18_Mod_range_hashingENS2_20_Default_ranged_hashENS2_20_Prime_rehash_policyENS2_17_Hashtable_traitsILb1ELb1ELb1EEEE5beginEv
FN:625,_ZNKSt10_HashtableI4EdgeS0_SaIS0_ENSt8__detail9_IdentityESt8equal_toIS0_ESt4hashIS0_ENS2_18_Mod_range_hashingENS2_20_Default_ranged_hashENS2_20_Prime_rehash_policyENS2_17_Hashtable_traitsILb1ELb1ELb1EEEE5beginEv
FNDA:3,_ZNKSt10_HashtableI4EdgeS0_SaIS0_ENSt8__detail9_IdentityESt8equal_toIS0_ESt4hashIS0_ENS2_18_Mod_range_hashingENS2_20_Default_ranged_hashENS2_20_Prime_rehash_policyENS2_17_Hashtable_traitsILb1ELb1ELb1EEEE5beginEv
FN:629,_ZNSt10_HashtableI4EdgeS0_SaIS0_ENSt8__detail9_IdentityESt8equal_toIS0_ESt4hashIS0_ENS2_18_Mod_range_hashingENS2_20_Default_ranged_hashENS2_20_Prime_rehash_policyENS2_17_Hashtable_traitsILb1ELb1ELb1EEEE3endEv
FNDA:0,_ZNSt10_HashtableI4EdgeS0_SaIS0_ENSt8__detail9_IdentityESt8equal_toIS0_ESt4hashIS0_ENS2_18_Mod_range_hashingENS2_20_Default_ranged_hashENS2_20_Prime_rehash_policyENS2_17_Hashtable_traitsILb1ELb1ELb1EEEE3endEv
FN:629,_ZNSt10_HashtableI6VertexS0_SaIS0_ENSt8__detail9_IdentityESt8equal_toIS0_ESt4hashIS0_ENS2_18_Mod_range_hashingENS2_20_Default_ranged_hashENS2_20_Prime_rehash_policyENS2_17_Hashtable_traitsILb1ELb1ELb1EEEE3endEv
FNDA:4,_ZNSt10_HashtableI6VertexS0_SaIS0_ENSt8__detail9_IdentityESt8equal_toIS0_ESt4hashIS0_ENS2_18_Mod_range_hashingENS2_20_Default_ranged_hashENS2_20_Prime_rehash_policyENS2_17_Hashtable_traitsILb1ELb1ELb1EEEE3endEv
FN:633,_ZNKSt10_HashtableI4EdgeS0_SaIS0_ENSt8__detail9_IdentityESt8equal_toIS0_ESt4hashIS0_ENS2_18_Mod_range_hashingENS2_20_Default_ranged_hashENS2_20_Prime_rehash_policyENS2_17_Hashtable_traitsILb1ELb1ELb1EEEE3endEv
FNDA:3,_ZNKSt10_HashtableI4EdgeS0_SaIS0_ENSt8__detail9_IdentityESt8equal_toIS0_ESt4hashIS0_ENS2_18_Mod_range_hashingENS2_20_Default_ranged_hashENS2_20_Prime_rehash_policyENS2_17_Hashtable_traitsILb1ELb1ELb1EEEE3endEv
FN:645,_ZNKSt10_HashtableI4EdgeS0_SaIS0_ENSt8__detail9_IdentityESt8equal_toIS0_ESt4hashIS0_ENS2_18_Mod_range_hashingENS2_20_Default_ranged_hashENS2_20_Prime_rehash_policyENS2_17_Hashtable_traitsILb1ELb1ELb1EEEE4sizeEv
FNDA:0,_ZNKSt10_HashtableI4EdgeS0_SaIS0_ENSt8__detail9_IdentityESt8equal_toIS0_ESt4hashIS0_ENS2_18_Mod_range_hashingENS2_20_Default_ranged_hashENS2_20_Prime_rehash_policyENS2_17_Hashtable_traitsILb1ELb1ELb1EEEE4sizeEv
FN:790,_ZNKSt10_HashtableI6VertexS0_SaIS0_ENSt8__detail9_IdentityESt8equal_toIS0_ESt4hashIS0_ENS2_18_Mod_range_hashingENS2_20_Default_ranged_hashENS2_20_Prime_rehash_policyENS2_17_Hashtable_traitsILb1ELb1ELb1EEEE15_M_bucket_indexERKNS2_16_Hash_node_valueIS0_Lb1EEE
FNDA:6,_ZNKSt10_HashtableI6VertexS0_SaIS0_ENSt8__detail9_IdentityESt8equal_toIS0_ESt4hashIS0_ENS2_18_Mod_range_hashingENS2_20_Default_ranged_hashENS2_20_Prime_rehash_policyENS2_17_Hashtable_traitsILb1ELb1ELb1EEEE15_M_bucket_indexERKNS2_16_Hash_node_valueIS0_Lb1EEE
FN:790,_ZNKSt10_HashtableI4EdgeS0_SaIS0_ENSt8__detail9_IdentityESt8equal_toIS0_ESt4hashIS0_ENS2_18_Mod_range_hashingENS2_20_Default_ranged_hashENS2_20_Prime_rehash_policyENS2_17_Hashtable_traitsILb1ELb1ELb1EEEE15_M_bucket_indexERKNS2_16_Hash_node_valueIS0_Lb1EEE
FNDA:2,_ZNKSt10_HashtableI4EdgeS0_SaIS0_ENSt8__detail9_IdentityESt8equal_toIS0_ESt4hashIS0_ENS2_18_Mod_range_hashingENS2_20_Default_ranged_hashENS2_20_Prime_rehash_policyENS2_17_Hashtable_traitsILb1ELb1ELb1EEEE15_M_bucket_indexERKNS2_16_Hash_node_valueIS0_Lb1EEE
FN:794,_ZNKSt10_HashtableI4EdgeS0_SaIS0_ENSt8__detail9_IdentityESt8equal_toIS0_ESt4hashIS0_ENS2_18_Mod_range_hashingENS2_20_Default_ranged_hashENS2_20_Prime_rehash_policyENS2_17_Hashtable_traitsILb1ELb1ELb1EEEE15_M_bucket_indexEm
FNDA:6,_ZNKSt10_HashtableI4EdgeS0_SaIS0_ENSt8__detail9_IdentityESt8equal_toIS0_ESt4hashIS0_ENS2_18_Mod_range_hashingENS2_20_Default_ranged_hashENS2_20_Prime_rehash_policyENS2_17_Hashtable_traitsILb1ELb1ELb1EEEE15_M_bucket_indexEm
FN:794,_ZNKSt10_HashtableI6VertexS0_SaIS0_ENSt8__detail9_IdentityESt8equal_toIS0_ESt4hashIS0_ENS2_18_Mod_range_hashingENS2_20_Default_ranged_hashENS2_20_Prime_rehash_policyENS2_17_Hashtable_traitsILb1ELb1ELb1EEEE15_M_bucket_indexEm
FNDA:6,_ZNKSt10_HashtableI6VertexS0_SaIS0_ENSt8__detail9_IdentityESt8equal_toIS0_ESt4hashIS0_ENS2_18_Mod_range_hashingENS2_20_Default_ranged_hashENS2_20_Prime_rehash_policyENS2_17_Hashtable_traitsILb1ELb1ELb1EEEE15_M_bucket_indexEm
FN:807,_ZNKSt10_HashtableI6VertexS0_SaIS0_ENSt8__detail9_IdentityESt8equal_toIS0_ESt4hashIS0_ENS2_18_Mod_range_hashingENS2_20_Default_ranged_hashENS2_20_Prime_rehash_policyENS2_17_Hashtable_traitsILb1ELb1ELb1EEEE12_M_find_nodeEmRKS0_m
FNDA:4,_ZNKSt10_HashtableI6VertexS0_SaIS0_ENSt8__detail9_IdentityESt8equal_toIS0_ESt4hashIS0_ENS2_18_Mod_range_hashingENS2_20_Default_ranged_hashENS2_20_Prime_rehash_policyENS2_17_Hashtable_traitsILb1ELb1ELb1EEEE12_M_find_nodeEmRKS0_m
FN:807,_ZNKSt10_HashtableI4EdgeS0_SaIS0_ENSt8__detail9_IdentityESt8equal_toIS0_ESt4hashIS0_ENS2_18_Mod_range_hashingENS2_20_Default_ranged_hashENS2_20_Prime_rehash_policyENS2_17_Hashtable_traitsILb1ELb1ELb1EEEE12_M_find_nodeEmRKS0_m
FNDA:4,_ZNKSt10_HashtableI4EdgeS0_SaIS0_ENSt8__detail9_IdentityESt8equal_toIS0_ESt4hashIS0_ENS2_18_Mod_range_hashingENS2_20_Default_ranged_hashENS2_20_Prime_rehash_policyENS2_17_Hashtable_traitsILb1ELb1ELb1EEEE12_M_find_nodeEmRKS0_m
FN:937,_ZNSt10_HashtableI4EdgeS0_SaIS0_ENSt8__detail9_IdentityESt8equal_toIS0_ESt4hashIS0_ENS2_18_Mod_range_hashingENS2_20_Default_ranged_hashENS2_20_Prime_rehash_policyENS2_17_Hashtable_traitsILb1ELb1ELb1EEEE5eraseERKS0_
FNDA:0,_ZNSt10_HashtableI4EdgeS0_SaIS0_ENSt8__detail9_IdentityESt8equal_toIS0_ESt4hashIS0_ENS2_18_Mod_range_hashingENS2_20_Default_ranged_hashENS2_20_Prime_rehash_policyENS2_17_Hashtable_traitsILb1ELb1ELb1EEEE5eraseERKS0_
FN:1528,_ZNSt10_HashtableI4EdgeS0_SaIS0_ENSt8__detail9_IdentityESt8equal_toIS0_ESt4hashIS0_ENS2_18_Mod_range_hashingENS2_20_Default_ranged_hashENS2_20_Prime_rehash_policyENS2_17_Hashtable_traitsILb1ELb1ELb1EEEED2Ev
FNDA:3,_ZNSt10_HashtableI4EdgeS0_SaIS0_ENSt8__detail9_IdentityESt8equal_toIS0_ESt4hashIS0_ENS2_18_Mod_range_hashingENS2_20_Default_ranged_hashENS2_20_Prime_rehash_policyENS2_17_Hashtable_traitsILb1ELb1ELb1EEEED2Ev
FN:1588,_ZNSt10_HashtableI6VertexS0_SaIS0_ENSt8__detail9_IdentityESt8equal_toIS0_ESt4hashIS0_ENS2_18_Mod_range_hashingENS2_20_Default_ranged_hashENS2_20_Prime_rehash_policyENS2_17_Hashtable_traitsILb1ELb1ELb1EEEE4findERKS0_
FNDA:0,_ZNSt10_HashtableI6VertexS0_SaIS0_ENSt8__detail9_IdentityESt8equal_toIS0_ESt4hashIS0_ENS2_18_Mod_range_hashingENS2_20_Default_ranged_hashENS2_20_Prime_rehash_policyENS2_17_Hashtable_traitsILb1ELb1ELb1EEEE4findERKS0_
FN:1827,_ZNKSt10_HashtableI6VertexS0_SaIS0_ENSt8__detail9_IdentityESt8equal_toIS0_ESt4hashIS0_ENS2_18_Mod_range_hashingENS2_20_Default_ranged_hashENS2_20_Prime_rehash_policyENS2_17_Hashtable_traitsILb1ELb1ELb1EEEE19_M_find_before_nodeEmRKS0_m
FNDA:4,_ZNKSt10_HashtableI6VertexS0_SaIS0_ENSt8__detail9_IdentityESt8equal_toIS0_ESt4hashIS0_ENS2_18_Mod_range_hashingENS2_20_Default_ranged_hashENS2_20_Prime_rehash_policyENS2_17_Hashtable_traitsILb1ELb1ELb1EEEE19_M_find_before_nodeEmRKS0_m
FN:1827,_ZNKSt10_HashtableI4EdgeS0_SaIS0_ENSt8__detail9_IdentityESt8equal_toIS0_ESt4hashIS0_ENS2_18_Mod_range_hashingENS2_20_Default_ranged_hashENS2_20_Prime_rehash_policyENS2_17_Hashtable_traitsILb1ELb1ELb1EEEE19_M_find_before_nodeEmRKS0_m
FNDA:4,_ZNKSt10_HashtableI4EdgeS0_SaIS0_ENSt8__detail9_IdentityESt8equal_toIS0_ESt4hashIS0_ENS2_18_Mod_range_hashingENS2_20_Default_ranged_hashENS2_20_Prime_rehash_policyENS2_17_Hashtable_traitsILb1ELb1ELb1EEEE19_M_find_before_nodeEmRKS0_m
FN:1886,_ZNSt10_HashtableI4EdgeS0_SaIS0_ENSt8__detail9_IdentityESt8equal_toIS0_ESt4hashIS0_ENS2_18_Mod_range_hashingENS2_20_Default_ranged_hashENS2_20_Prime_rehash_policyENS2_17_Hashtable_traitsILb1ELb1ELb1EEEE22_M_insert_bucket_beginEmPNS2_10_Hash_nodeIS0_Lb1EEE
FNDA:4,_ZNSt10_HashtableI4EdgeS0_SaIS0_ENSt8__detail9_IdentityESt8equal_toIS0_ESt4hashIS0_ENS2_18_Mod_range_hashingENS2_20_Default_ranged_hashENS2_20_Prime_rehash_policyENS2_17_Hashtable_traitsILb1ELb1ELb1EEEE22_M_insert_bucket_beginEmPNS2_10_Hash_nodeIS0_Lb1EEE
FN:1919,_ZNSt10_HashtableI4EdgeS0_SaIS0_ENSt8__detail9_IdentityESt8equal_toIS0_ESt4hashIS0_ENS2_18_Mod_range_hashingENS2_20_Default_ranged_hashENS2_20_Prime_rehash_policyENS2_17_Hashtable_traitsILb1ELb1ELb1EEEE22_M_remove_bucket_beginEmPNS2_10_Hash_nodeIS0_Lb1EEEm
FNDA:0,_ZNSt10_HashtableI4EdgeS0_SaIS0_ENSt8__detail9_IdentityESt8equal_toIS0_ESt4hashIS0_ENS2_18_Mod_range_hashingENS2_20_Default_ranged_hashENS2_20_Prime_rehash_policyENS2_17_Hashtable_traitsILb1ELb1ELb1EEEE22_M_remove_bucket_beginEmPNS2_10_Hash_nodeIS0_Lb1EEEm
FN:2008,_ZNSt10_HashtableI4EdgeS0_SaIS0_ENSt8__detail9_IdentityESt8equal_toIS0_ESt4hashIS0_ENS2_18_Mod_range_hashingENS2_20_Default_ranged_hashENS2_20_Prime_rehash_policyENS2_17_Hashtable_traitsILb1ELb1ELb1EEEE21_M_insert_unique_nodeEmmPNS2_10_Hash_nodeIS0_Lb1EEEm
FNDA:4,_ZNSt10_HashtableI4EdgeS0_SaIS0_ENSt8__detail9_IdentityESt8equal_toIS0_ESt4hashIS0_ENS2_18_Mod_range_hashingENS2_20_Default_ranged_hashENS2_20_Prime_rehash_policyENS2_17_Hashtable_traitsILb1ELb1ELb1EEEE21_M_insert_unique_nodeEmmPNS2_10_Hash_nodeIS0_Lb1EEEm
FN:2095,_ZNSt10_HashtableI4EdgeS0_SaIS0_ENSt8__detail9_IdentityESt8equal_toIS0_ESt4hashIS0_ENS2_18_Mod_range_hashingENS2_20_Default_ranged_hashENS2_20_Prime_rehash_policyENS2_17_Hashtable_traitsILb1ELb1ELb1EEEE9_M_insertIRKS0_NS2_10_AllocNodeISaINS2_10_Hash_nodeIS0_Lb1EEEEEEEESt4pairINS2_14_Node_iteratorIS0_Lb1ELb1EEEbEOT_RKT0_St17integral_constantIbLb1EE
FNDA:4,_ZNSt10_HashtableI4EdgeS0_SaIS0_ENSt8__detail9_IdentityESt8equal_toIS0_ESt4hashIS0_ENS2_18_Mod_range_hashingENS2_20_Default_ranged_hashENS2_20_Prime_rehash_policyENS2_17_Hashtable_traitsILb1ELb1ELb1EEEE9_M_insertIRKS0_NS2_10_AllocNodeISaINS2_10_Hash_nodeIS0_Lb1EEEEEEEESt4pairINS2_14_Node_iteratorIS0_Lb1ELb1EEEbEOT_RKT0_St17integral_constantIbLb1EE
FN:2166,_ZNSt10_HashtableI4EdgeS0_SaIS0_ENSt8__detail9_IdentityESt8equal_toIS0_ESt4hashIS0_ENS2_18_Mod_range_hashingENS2_20_Default_ranged_hashENS2_20_Prime_rehash_policyENS2_17_Hashtable_traitsILb1ELb1ELb1EEEE8_M_eraseEmPNS2_15_Hash_node_baseEPNS2_10_Hash_nodeIS0_Lb1EEE
FNDA:0,_ZNSt10_HashtableI4EdgeS0_SaIS0_ENSt8__detail9_IdentityESt8equal_toIS0_ESt4hashIS0_ENS2_18_Mod_range_hashingENS2_20_Default_ranged_hashENS2_20_Prime_rehash_policyENS2_17_Hashtable_traitsILb1ELb1ELb1EEEE8_M_eraseEmPNS2_15_Hash_node_baseEPNS2_10_Hash_nodeIS0_Lb1EEE
FN:2194,_ZNSt10_HashtableI4EdgeS0_SaIS0_ENSt8__detail9_IdentityESt8equal_toIS0_ESt4hashIS0_ENS2_18_Mod_range_hashingENS2_20_Default_ranged_hashENS2_20_Prime_rehash_policyENS2_17_Hashtable_traitsILb1ELb1ELb1EEEE8_M_eraseESt17integral_constantIbLb1EERKS0_
FNDA:0,_ZNSt10_HashtableI4EdgeS0_SaIS0_ENSt8__detail9_IdentityESt8equal_toIS0_ESt4hashIS0_ENS2_18_Mod_range_hashingENS2_20_Default_ranged_hashENS2_20_Prime_rehash_policyENS2_17_Hashtable_traitsILb1ELb1ELb1EEEE8_M_eraseESt17integral_constantIbLb1EERKS0_
FN:2316,_ZNSt10_HashtableI4EdgeS0_SaIS0_ENSt8__detail9_IdentityESt8equal_toIS0_ESt4hashIS0_ENS2_18_Mod_range_hashingENS2_20_Default_ranged_hashENS2_20_Prime_rehash_policyENS2_17_Hashtable_traitsILb1ELb1ELb1EEEE5clearEv
FNDA:3,_ZNSt10_HashtableI4EdgeS0_SaIS0_ENSt8__detail9_IdentityESt8equal_toIS0_ESt4hashIS0_ENS2_18_Mod_range_hashingENS2_20_Default_ranged_hashENS2_20_Prime_rehash_policyENS2_17_Hashtable_traitsILb1ELb1ELb1EEEE5clearEv
FN:2355,_ZNSt10_HashtableI4EdgeS0_SaIS0_ENSt8__detail9_IdentityESt8equal_toIS0_ESt4hashIS0_ENS2_18_Mod_range_hashingENS2_20_Default_ranged_hashENS2_20_Prime_rehash_policyENS2_17_Hashtable_traitsILb1ELb1ELb1EEEE9_M_rehashEmRKm
FNDA:2,_ZNSt10_HashtableI4EdgeS0_SaIS0_ENSt8__detail9_IdentityESt8equal_toIS0_ESt4hashIS0_ENS2_18_Mod_range_hashingENS2_20_Default_ranged_hashENS2_20_Prime_rehash_policyENS2_17_Hashtable_traitsILb1ELb1ELb1EEEE9_M_rehashEmRKm
FN:2378,_ZNSt10_HashtableI4EdgeS0_SaIS0_ENSt8__detail9_IdentityESt8equal_toIS0_ESt4hashIS0_ENS2_18_Mod_range_hashingENS2_20_Default_ranged_hashENS2_20_Prime_rehash_policyENS2_17_Hashtable_traitsILb1ELb1ELb1EEEE13_M_rehash_auxEmSt17integral_constantIbLb1EE
FNDA:2,_ZNSt10_HashtableI4EdgeS0_SaIS0_ENSt8__detail9_IdentityESt8equal_toIS0_ESt4hashIS0_ENS2_18_Mod_range_hashingENS2_20_Default_ranged_hashENS2_20_Prime_rehash_policyENS2_17_Hashtable_traitsILb1ELb1ELb1EEEE13_M_rehash_auxEmSt17integral_constantIbLb1EE
DA:297,4
DA:298,4
DA:308,4
DA:421,5
DA:422,5
DA:432,2
DA:434,2
DA:436,0
DA:437,0
DA:440,2
DA:444,5
DA:446,5
DA:447,3
DA:449,2
DA:453,5
DA:454,5
DA:462,16
DA:463,16
DA:462,8
DA:463,8
DA:528,3
DA:621,0
DA:622,0
DA:621,4
DA:622,4
DA:625,3
DA:626,3
DA:629,0
DA:630,0
DA:629,4
DA:630,4
DA:633,3
DA:634,3
DA:645,0
DA:646,0
DA:790,2
DA:791,2
DA:790,6
DA:791,6
DA:794,6
DA:795,6
DA:794,6
DA:795,6
DA:807,4
DA:810,4
DA:811,4
DA:812,0
DA:813,4
DA:807,4
DA:810,4
DA:811,4
DA:812,0
DA:813,4
DA:937,0
DA:938,0
DA:1528,3
DA:1532,3
DA:1533,3
DA:1534,3
DA:1588,0
DA:1593,0
DA:1594,0
DA:1595,0
DA:1827,4
DA:1833,4
DA:1834,4
DA:1835,4
DA:1837,0
DA:1838,0
DA:1840,0
DA:1841,0
DA:1843,0
DA:1844,0
DA:1845,0
DA:1848,0
DA:1827,4
DA:1833,4
DA:1834,4
DA:1835,4
DA:1837,0
DA:1838,0
DA:1840,0
DA:1841,0
DA:1843,0
DA:1844,0
DA:1845,0
DA:1848,0
DA:1886,4
DA:1890,4
DA:1894,0
DA:1895,0
DA:1902,4
DA:1903,4
DA:1905,4
DA:1908,2
DA:1910,4
DA:1912,4
DA:1919,0
DA:1924,0
DA:1928,0
DA:1929,0
DA:1932,0
DA:1933,0
DA:1934,0
DA:1936,0
DA:2008,4
DA:2014,4
DA:2016,4
DA:2019,4
DA:2021,2
DA:2022,2
DA:2025,4
DA:2028,4
DA:2029,4
DA:2030,4
DA:2095,4
DA:2101,4
DA:2102,4
DA:2103,4
DA:2105,4
DA:2106,0
DA:2108,4
DA:2110,4
DA:2111,4
DA:2112,4
DA:2113,4
DA:2166,0
DA:2171,0
DA:2172,0
DA:2173,0
DA:2174,0
DA:2176,0
DA:2177,0
DA:2178,0
DA:2181,0
DA:2182,0
DA:2183,0
DA:2184,0
DA:2186,0
DA:2194,0
DA:2199,0
DA:2200,0
DA:2203,0
DA:2204,0
DA:2205,0
DA:2208,0
DA:2209,0
DA:2210,0
DA:2316,3
DA:2320,3
DA:2321,3
DA:2322,3
DA:2323,3
DA:2324,3
DA:2325,3
DA:2355,2
DA:2361,2
DA:2363,0
DA:2367,0
DA:2368,0
DA:2370,2
DA:2378,2
DA:2382,2
DA:2383,2
DA:2384,2
DA:2385,2
DA:2386,2
DA:2388,0
DA:2390,0
DA:2391,0
DA:2393,0
DA:2394,0
DA:2395,0
DA:2396,0
DA:2397,0
DA:2398,0
DA:2402,0
DA:2403,0
DA:2406,0
DA:2409,2
DA:2410,2
DA:2411,2
DA:2412,2
end_of_record
SF:/usr/include/c++/11/bits/stl_tree.h
FN:112,_ZNSt18_Rb_tree_node_base10_S_minimumEPS_
FNDA:0,_ZNSt18_Rb_tree_node_base10_S_minimumEPS_
FN:126,_ZNSt18_Rb_tree_node_base10_S_maximumEPS_
FNDA:0,_ZNSt18_Rb_tree_node_base10_S_maximumEPS_
FN:146,_ZNSt20_Rb_tree_key_compareISt4lessIiEEC2Ev
FNDA:5,_ZNSt20_Rb_tree_key_compareISt4lessIiEEC2Ev
FN:146,_ZNSt20_Rb_tree_key_compareISt4lessImEEC2Ev
FNDA:11,_ZNSt20_Rb_tree_key_compareISt4lessImEEC2Ev
FN:152,_ZNSt20_Rb_tree_key_compareISt4lessImEEC2ERKS1_
FNDA:0,_ZNSt20_Rb_tree_key_compareISt4lessImEEC2ERKS1_
FN:173,_ZNSt15_Rb_tree_headerC2Ev
FNDA:0,_ZNSt15_Rb_tree_headerC2Ev
FN:206,_ZNSt15_Rb_tree_header8_M_resetEv
FNDA:0,_ZNSt15_Rb_tree_header8_M_resetEv
FN:234,_ZNSt13_Rb_tree_nodeISt4pairIKmmEE9_M_valptrEv
FNDA:0,_ZNSt13_Rb_tree_nodeISt4pairIKmmEE9_M_valptrEv
FN:234,_ZNSt13_Rb_tree_nodeISt4pairIKi6VertexEE9_M_valptrEv
FNDA:113,_ZNSt13_Rb_tree_nodeISt4pairIKi6VertexEE9_M_valptrEv
FN:238,_ZNKSt13_Rb_tree_nodeISt4pairIKi6VertexEE9_M_valptrEv
FNDA:108,_ZNKSt13_Rb_tree_nodeISt4pairIKi6VertexEE9_M_valptrEv
FN:238,_ZNKSt13_Rb_tree_nodeISt4pairIKmmEE9_M_valptrEv
FNDA:16,_ZNKSt13_Rb_tree_nodeISt4pairIKmmEE9_M_valptrEv
FN:273,_ZNSt17_Rb_tree_iteratorISt4pairIKmmEEC2EPSt18_Rb_tree_node_base
FNDA:54,_ZNSt17_Rb_tree_iteratorISt4pairIKmmEEC2EPSt18_Rb_tree_node_base
FN:273,_ZNSt17_Rb_tree_iteratorISt4pairIKi6VertexEEC2EPSt18_Rb_tree_node_base
FNDA:122,_ZNSt17_Rb_tree_iteratorISt4pairIKi6VertexEEC2EPSt18_Rb_tree_node_base
FN:277,_ZNKSt17_Rb_tree_iteratorISt4pairIKmmEEdeEv
FNDA:8,_ZNKSt17_Rb_tree_iteratorISt4pairIKmmEEdeEv
FN:277,_ZNKSt17_Rb_tree_iteratorISt4pairIKi6VertexEEdeEv
FNDA:99,_ZNKSt17_Rb_tree_iteratorISt4pairIKi6VertexEEdeEv
FN:285,_ZNSt17_Rb_tree_iteratorISt4pairIKmmEEppEv
FNDA:0,_ZNSt17_Rb_tree_iteratorISt4pairIKmmEEppEv
FN:285,_ZNSt17_Rb_tree_iteratorISt4pairIKi6VertexEEppEv
FNDA:6,_ZNSt17_Rb_tree_iteratorISt4pairIKi6VertexEEppEv
FN:300,_ZNSt17_Rb_tree_iteratorISt4pairIKmmEEmmEv
FNDA:0,_ZNSt17_Rb_tree_iteratorISt4pairIKmmEEmmEv
FN:300,_ZNSt17_Rb_tree_iteratorISt4pairIKi6VertexEEmmEv
FNDA:0,_ZNSt17_Rb_tree_iteratorISt4pairIKi6VertexEEmmEv
FN:315,_ZSteqRKSt17_Rb_tree_iteratorISt4pairIKi6VertexEES6_
FNDA:52,_ZSteqRKSt17_Rb_tree_iteratorISt4pairIKi6VertexEES6_
FN:315,_ZSteqRKSt17_Rb_tree_iteratorISt4pairIKmmEES5_
FNDA:14,_ZSteqRKSt17_Rb_tree_iteratorISt4pairIKmmEES5_
FN:320,_ZStneRKSt17_Rb_tree_iteratorISt4pairIKi6VertexEES6_
FNDA:8,_ZStneRKSt17_Rb_tree_iteratorISt4pairIKi6VertexEES6_
FN:347,_ZNSt23_Rb_tree_const_iteratorISt4pairIKi6VertexEEC2EPKSt18_Rb_tree_node_base
FNDA:2,_ZNSt23_Rb_tree_const_iteratorISt4pairIKi6VertexEEC2EPKSt18_Rb_tree_node_base
FN:350,_ZNSt23_Rb_tree_const_iteratorISt4pairIKi6VertexEEC2ERKSt17_Rb_tree_iteratorIS3_E
FNDA:7,_ZNSt23_Rb_tree_const_iteratorISt4pairIKi6VertexEEC2ERKSt17_Rb_tree_iteratorIS3_E
FN:350,_ZNSt23_Rb_tree_const_iteratorISt4pairIKmmEEC2ERKSt17_Rb_tree_iteratorIS2_E
FNDA:8,_ZNSt23_Rb_tree_const_iteratorISt4pairIKmmEEC2ERKSt17_Rb_tree_iteratorIS2_E
FN:354,_ZNKSt23_Rb_tree_const_iteratorISt4pairIKmmEE13_M_const_castEv
FNDA:8,_ZNKSt23_Rb_tree_const_iteratorISt4pairIKmmEE13_M_const_castEv
FN:354,_ZNKSt23_Rb_tree_const_iteratorISt4pairIKi6VertexEE13_M_const_castEv
FNDA:7,_ZNKSt23_Rb_tree_const_iteratorISt4pairIKi6VertexEE13_M_const_castEv
FN:358,_ZNKSt23_Rb_tree_const_iteratorISt4pairIKi6VertexEEdeEv
FNDA:3,_ZNKSt23_Rb_tree_const_iteratorISt4pairIKi6VertexEEdeEv
FN:366,_ZNSt23_Rb_tree_const_iteratorISt4pairIKi6VertexEEppEv
FNDA:3,_ZNSt23_Rb_tree_const_iteratorISt4pairIKi6VertexEEppEv
FN:373,_ZNSt23_Rb_tree_const_iteratorISt4pairIKmmEEppEi
FNDA:0,_ZNSt23_Rb_tree_const_iteratorISt4pairIKmmEEppEi
FN:396,_ZSteqRKSt23_Rb_tree_const_iteratorISt4pairIKmmEES5_
FNDA:0,_ZSteqRKSt23_Rb_tree_const_iteratorISt4pairIKmmEES5_
FN:396,_ZSteqRKSt23_Rb_tree_const_iteratorISt4pairIKi6VertexEES6_
FNDA:0,_ZSteqRKSt23_Rb_tree_const_iteratorISt4pairIKi6VertexEES6_
FN:401,_ZStneRKSt23_Rb_tree_const_iteratorISt4pairIKmmEES5_
FNDA:0,_ZStneRKSt23_Rb_tree_const_iteratorISt4pairIKmmEES5_
FN:401,_ZStneRKSt23_Rb_tree_const_iteratorISt4pairIKi6VertexEES6_
FNDA:4,_ZStneRKSt23_Rb_tree_const_iteratorISt4pairIKi6VertexEES6_
FN:523,_ZNSt8_Rb_treeImSt4pairIKmmESt10_Select1stIS2_ESt4lessImESaIS2_EE11_Alloc_nodeC2ERS8_
FNDA:0,_ZNSt8_Rb_treeImSt4pairIKmmESt10_Select1stIS2_ESt4lessImESaIS2_EE11_Alloc_nodeC2ERS8_
FN:528,_ZNKSt8_Rb_treeImSt4pairIKmmESt10_Select1stIS2_ESt4lessImESaIS2_EE11_Alloc_nodeclIRKS2_EEPSt13_Rb_tree_nodeIS2_EOT_
FNDA:0,_ZNKSt8_Rb_treeImSt4pairIKmmESt10_Select1stIS2_ESt4lessImESaIS2_EE11_Alloc_nodeclIRKS2_EEPSt13_Rb_tree_nodeIS2_EOT_
FN:547,_ZNSt8_Rb_treeIiSt4pairIKi6VertexESt10_Select1stIS3_ESt4lessIiESaIS3_EE21_M_get_Node_allocatorEv
FNDA:28,_ZNSt8_Rb_treeIiSt4pairIKi6VertexESt10_Select1stIS3_ESt4lessIiESaIS3_EE21_M_get_Node_allocatorEv
FN:547,_ZNSt8_Rb_treeImSt4pairIKmmESt10_Select1stIS2_ESt4lessImESaIS2_EE21_M_get_Node_allocatorEv
FNDA:0,_ZNSt8_Rb_treeImSt4pairIKmmESt10_Select1stIS2_ESt4lessImESaIS2_EE21_M_get_Node_allocatorEv
FN:560,_ZNSt8_Rb_treeIiSt4pairIKi6VertexESt10_Select1stIS3_ESt4lessIiESaIS3_EE11_M_get_nodeEv
FNDA:7,_ZNSt8_Rb_treeIiSt4pairIKi6VertexESt10_Select1stIS3_ESt4lessIiESaIS3_EE11_M_get_nodeEv
FN:560,_ZNSt8_Rb_treeImSt4pairIKmmESt10_Select1stIS2_ESt4lessImESaIS2_EE11_M_get_nodeEv
FNDA:0,_ZNSt8_Rb_treeImSt4pairIKmmESt10_Select1stIS2_ESt4lessImESaIS2_EE11_M_get_nodeEv
FN:564,_ZNSt8_Rb_treeImSt4pairIKmmESt10_Select1stIS2_ESt4lessImESaIS2_EE11_M_put_nodeEPSt13_Rb_tree_nodeIS2_E
FNDA:0,_ZNSt8_Rb_treeImSt4pairIKmmESt10_Select1stIS2_ESt4lessImESaIS2_EE11_M_put_nodeEPSt13_Rb_tree_nodeIS2_E
FN:564,_ZNSt8_Rb_treeIiSt4pairIKi6VertexESt10_Select1stIS3_ESt4lessIiESaIS3_EE11_M_put_nodeEPSt13_Rb_tree_nodeIS3_E
FNDA:7,_ZNSt8_Rb_treeIiSt4pairIKi6VertexESt10_Select1stIS3_ESt4lessIiESaIS3_EE11_M_put_nodeEPSt13_Rb_tree_nodeIS3_E
FN:590,_ZNSt8_Rb_treeIiSt4pairIKi6VertexESt10_Select1stIS3_ESt4lessIiESaIS3_EE17_M_construct_nodeIJRKSt21piecewise_construct_tSt5tupleIJOiEESE_IJEEEEEvPSt13_Rb_tree_nodeIS3_EDpOT_
FNDA:4,_ZNSt8_Rb_treeIiSt4pairIKi6VertexESt10_Select1stIS3_ESt4lessIiESaIS3_EE17_M_construct_nodeIJRKSt21piecewise_construct_tSt5tupleIJOiEESE_IJEEEEEvPSt13_Rb_tree_nodeIS3_EDpOT_
FN:590,_ZNSt8_Rb_treeIiSt4pairIKi6VertexESt10_Select1stIS3_ESt4lessIiESaIS3_EE17_M_construct_nodeIJRKSt21piecewise_construct_tSt5tupleIJRS1_EESE_IJEEEEEvPSt13_Rb_tree_nodeIS3_EDpOT_
FNDA:3,_ZNSt8_Rb_treeIiSt4pairIKi6VertexESt10_Select1stIS3_ESt4lessIiESaIS3_EE17_M_construct_nodeIJRKSt21piecewise_construct_tSt5tupleIJRS1_EESE_IJEEEEEvPSt13_Rb_tree_nodeIS3_EDpOT_
FN:590,_ZNSt8_Rb_treeImSt4pairIKmmESt10_Select1stIS2_ESt4lessImESaIS2_EE17_M_construct_nodeIJRKSt21piecewise_construct_tSt5tupleIJRS1_EESD_IJEEEEEvPSt13_Rb_tree_nodeIS2_EDpOT_
FNDA:8,_ZNSt8_Rb_treeImSt4pairIKmmESt10_Select1stIS2_ESt4lessImESaIS2_EE17_M_construct_nodeIJRKSt21piecewise_construct_tSt5tupleIJRS1_EESD_IJEEEEEvPSt13_Rb_tree_nodeIS2_EDpOT_
FN:590,_ZNSt8_Rb_treeImSt4pairIKmmESt10_Select1stIS2_ESt4lessImESaIS2_EE17_M_construct_nodeIJRKS2_EEEvPSt13_Rb_tree_nodeIS2_EDpOT_
FNDA:0,_ZNSt8_Rb_treeImSt4pairIKmmESt10_Select1stIS2_ESt4lessImESaIS2_EE17_M_construct_nodeIJRKS2_EEEvPSt13_Rb_tree_nodeIS2_EDpOT_
FN:609,_ZNSt8_Rb_treeIiSt4pairIKi6VertexESt10_Select1stIS3_ESt4lessIiESaIS3_EE14_M_create_nodeIJRKSt21piecewise_construct_tSt5tupleIJRS1_EESE_IJEEEEEPSt13_Rb_tree_nodeIS3_EDpOT_
FNDA:3,_ZNSt8_Rb_treeIiSt4pairIKi6VertexESt10_Select1stIS3_ESt4lessIiESaIS3_EE14_M_create_nodeIJRKSt21piecewise_construct_tSt5tupleIJRS1_EESE_IJEEEEEPSt13_Rb_tree_nodeIS3_EDpOT_
FN:609,_ZNSt8_Rb_treeIiSt4pairIKi6VertexESt10_Select1stIS3_ESt4lessIiESaIS3_EE14_M_create_nodeIJRKSt21piecewise_construct_tSt5tupleIJOiEESE_IJEEEEEPSt13_Rb_tree_nodeIS3_EDpOT_
FNDA:4,_ZNSt8_Rb_treeIiSt4pairIKi6VertexESt10_Select1stIS3_ESt4lessIiESaIS3_EE14_M_create_nodeIJRKSt21piecewise_construct_tSt5tupleIJOiEESE_IJEEEEEPSt13_Rb_tree_nodeIS3_EDpOT_
FN:609,_ZNSt8_Rb_treeImSt4pairIKmmESt10_Select1stIS2_ESt4lessImESaIS2_EE14_M_create_nodeIJRKSt21piecewise_construct_tSt5tupleIJRS1_EESD_IJEEEEEPSt13_Rb_tree_nodeIS2_EDpOT_
FNDA:8,_ZNSt8_Rb_treeImSt4pairIKmmESt10_Select1stIS2_ESt4lessImESaIS2_EE14_M_create_nodeIJRKSt21piecewise_construct_tSt5tupleIJRS1_EESD_IJEEEEEPSt13_Rb_tree_nodeIS2_EDpOT_
FN:609,_ZNSt8_Rb_treeImSt4pairIKmmESt10_Select1stIS2_ESt4lessImESaIS2_EE14_M_create_nodeIJRKS2_EEEPSt13_Rb_tree_nodeIS2_EDpOT_
FNDA:0,_ZNSt8_Rb_treeImSt4pairIKmmESt10_Select1stIS2_ESt4lessImESaIS2_EE14_M_create_nodeIJRKS2_EEEPSt13_Rb_tree_nodeIS2_EDpOT_
FN:618,_ZNSt8_Rb_treeIiSt4pairIKi6VertexESt10_Select1stIS3_ESt4lessIiESaIS3_EE15_M_destroy_nodeEPSt13_Rb_tree_nodeIS3_E
FNDA:7,_ZNSt8_Rb_treeIiSt4pairIKi6VertexESt10_Select1stIS3_ESt4lessIiESaIS3_EE15_M_destroy_nodeEPSt13_Rb_tree_nodeIS3_E
FN:618,_ZNSt8_Rb_treeImSt4pairIKmmESt10_Select1stIS2_ESt4lessImESaIS2_EE15_M_destroy_nodeEPSt13_Rb_tree_nodeIS2_E
FNDA:0,_ZNSt8_Rb_treeImSt4pairIKmmESt10_Select1stIS2_ESt4lessImESaIS2_EE15_M_destroy_nodeEPSt13_Rb_tree_nodeIS2_E
FN:629,_ZNSt8_Rb_treeImSt4pairIKmmESt10_Select1stIS2_ESt4lessImESaIS2_EE12_M_drop_nodeEPSt13_Rb_tree_nodeIS2_E
FNDA:0,_ZNSt8_Rb_treeImSt4pairIKmmESt10_Select1stIS2_ESt4lessImESaIS2_EE12_M_drop_nodeEPSt13_Rb_tree_nodeIS2_E
FN:629,_ZNSt8_Rb_treeIiSt4pairIKi6VertexESt10_Select1stIS3_ESt4lessIiESaIS3_EE12_M_drop_nodeEPSt13_Rb_tree_nodeIS3_E
FNDA:7,_ZNSt8_Rb_treeIiSt4pairIKi6VertexESt10_Select1stIS3_ESt4lessIiESaIS3_EE12_M_drop_nodeEPSt13_Rb_tree_nodeIS3_E
FN:637,_ZNSt8_Rb_treeImSt4pairIKmmESt10_Select1stIS2_ESt4lessImESaIS2_EE13_M_clone_nodeILb0ENS8_11_Alloc_nodeEEEPSt13_Rb_tree_nodeIS2_ESD_RT0_
FNDA:0,_ZNSt8_Rb_treeImSt4pairIKmmESt10_Select1stIS2_ESt4lessImESaIS2_EE13_M_clone_nodeILb0ENS8_11_Alloc_nodeEEEPSt13_Rb_tree_nodeIS2_ESD_RT0_
FN:667,_ZNSt8_Rb_treeImSt4pairIKmmESt10_Select1stIS2_ESt4lessImESaIS2_EE13_Rb_tree_implIS6_Lb1EEC2Ev
FNDA:11,_ZNSt8_Rb_treeImSt4pairIKmmESt10_Select1stIS2_ESt4lessImESaIS2_EE13_Rb_tree_implIS6_Lb1EEC2Ev
FN:667,_ZNSt8_Rb_treeIiSt4pairIKi6VertexESt10_Select1stIS3_ESt4lessIiESaIS3_EE13_Rb_tree_implIS7_Lb1EEC2Ev
FNDA:3,_ZNSt8_Rb_treeIiSt4pairIKi6VertexESt10_Select1stIS3_ESt4lessIiESaIS3_EE13_Rb_tree_implIS7_Lb1EEC2Ev
FN:674,_ZNSt8_Rb_treeImSt4pairIKmmESt10_Select1stIS2_ESt4lessImESaIS2_EE13_Rb_tree_implIS6_Lb1EEC2ERKSA_
FNDA:0,_ZNSt8_Rb_treeImSt4pairIKmmESt10_Select1stIS2_ESt4lessImESaIS2_EE13_Rb_tree_implIS6_Lb1EEC2ERKSA_
FN:710,_ZNSt8_Rb_treeImSt4pairIKmmESt10_Select1stIS2_ESt4lessImESaIS2_EE7_M_rootEv
FNDA:0,_ZNSt8_Rb_treeImSt4pairIKmmESt10_Select1stIS2_ESt4lessImESaIS2_EE7_M_rootEv
FN:714,_ZNKSt8_Rb_treeImSt4pairIKmmESt10_Select1stIS2_ESt4lessImESaIS2_EE7_M_rootEv
FNDA:0,_ZNKSt8_Rb_treeImSt4pairIKmmESt10_Select1stIS2_ESt4lessImESaIS2_EE7_M_rootEv
FN:718,_ZNSt8_Rb_treeImSt4pairIKmmESt10_Select1stIS2_ESt4lessImESaIS2_EE11_M_leftmostEv
FNDA:0,_ZNSt8_Rb_treeImSt4pairIKmmESt10_Select1stIS2_ESt4lessImESaIS2_EE11_M_leftmostEv
FN:718,_ZNSt8_Rb_treeIiSt4pairIKi6VertexESt10_Select1stIS3_ESt4lessIiESaIS3_EE11_M_leftmostEv
FNDA:6,_ZNSt8_Rb_treeIiSt4pairIKi6VertexESt10_Select1stIS3_ESt4lessIiESaIS3_EE11_M_leftmostEv
FN:726,_ZNSt8_Rb_treeIiSt4pairIKi6VertexESt10_Select1stIS3_ESt4lessIiESaIS3_EE12_M_rightmostEv
FNDA:4,_ZNSt8_Rb_treeIiSt4pairIKi6VertexESt10_Select1stIS3_ESt4lessIiESaIS3_EE12_M_rightmostEv
FN:726,_ZNSt8_Rb_treeImSt4pairIKmmESt10_Select1stIS2_ESt4lessImESaIS2_EE12_M_rightmostEv
FNDA:0,_ZNSt8_Rb_treeImSt4pairIKmmESt10_Select1stIS2_ESt4lessImESaIS2_EE12_M_rightmostEv
FN:734,_ZNKSt8_Rb_treeIiSt4pairIKi6VertexESt10_Select1stIS3_ESt4lessIiESaIS3_EE9_M_mbeginEv
FNDA:55,_ZNKSt8_Rb_treeIiSt4pairIKi6VertexESt10_Select1stIS3_ESt4lessIiESaIS3_EE9_M_mbeginEv
FN:734,_ZNKSt8_Rb_treeImSt4pairIKmmESt10_Select1stIS2_ESt4lessImESaIS2_EE9_M_mbeginEv
FNDA:0,_ZNKSt8_Rb_treeImSt4pairIKmmESt10_Select1stIS2_ESt4lessImESaIS2_EE9_M_mbeginEv
FN:738,_ZNSt8_Rb_treeImSt4pairIKmmESt10_Select1stIS2_ESt4lessImESaIS2_EE8_M_beginEv
FNDA:0,_ZNSt8_Rb_treeImSt4pairIKmmESt10_Select1stIS2_ESt4lessImESaIS2_EE8_M_beginEv
FN:738,_ZNSt8_Rb_treeIiSt4pairIKi6VertexESt10_Select1stIS3_ESt4lessIiESaIS3_EE8_M_beginEv
FNDA:55,_ZNSt8_Rb_treeIiSt4pairIKi6VertexESt10_Select1stIS3_ESt4lessIiESaIS3_EE8_M_beginEv
FN:742,_ZNKSt8_Rb_treeIiSt4pairIKi6VertexESt10_Select1stIS3_ESt4lessIiESaIS3_EE8_M_beginEv
FNDA:0,_ZNKSt8_Rb_treeIiSt4pairIKi6VertexESt10_Select1stIS3_ESt4lessIiESaIS3_EE8_M_beginEv
FN:749,_ZNSt8_Rb_treeIiSt4pairIKi6VertexESt10_Select1stIS3_ESt4lessIiESaIS3_EE6_M_endEv
FNDA:64,_ZNSt8_Rb_treeIiSt4pairIKi6VertexESt10_Select1stIS3_ESt4lessIiESaIS3_EE6_M_endEv
FN:749,_ZNSt8_Rb_treeImSt4pairIKmmESt10_Select1stIS2_ESt4lessImESaIS2_EE6_M_endEv
FNDA:0,_ZNSt8_Rb_treeImSt4pairIKmmESt10_Select1stIS2_ESt4lessImESaIS2_EE6_M_endEv
FN:753,_ZNKSt8_Rb_treeIiSt4pairIKi6VertexESt10_Select1stIS3_ESt4lessIiESaIS3_EE6_M_endEv
FNDA:0,_ZNKSt8_Rb_treeIiSt4pairIKi6VertexESt10_Select1stIS3_ESt4lessIiESaIS3_EE6_M_endEv
FN:757,_ZNSt8_Rb_treeIiSt4pairIKi6VertexESt10_Select1stIS3_ESt4lessIiESaIS3_EE6_S_keyEPKSt13_Rb_tree_nodeIS3_E
FNDA:105,_ZNSt8_Rb_treeIiSt4pairIKi6VertexESt10_Select1stIS3_ESt4lessIiESaIS3_EE6_S_keyEPKSt13_Rb_tree_nodeIS3_E
FN:757,_ZNSt8_Rb_treeImSt4pairIKmmESt10_Select1stIS2_ESt4lessImESaIS2_EE6_S_keyEPKSt13_Rb_tree_nodeIS2_E
FNDA:16,_ZNSt8_Rb_treeImSt4pairIKmmESt10_Select1stIS2_ESt4lessImESaIS2_EE6_S_keyEPKSt13_Rb_tree_nodeIS2_E
FN:779,_ZNSt8_Rb_treeImSt4pairIKmmESt10_Select1stIS2_ESt4lessImESaIS2_EE7_S_leftEPSt18_Rb_tree_node_base
FNDA:0,_ZNSt8_Rb_treeImSt4pairIKmmESt10_Select1stIS2_ESt4lessImESaIS2_EE7_S_leftEPSt18_Rb_tree_node_base
FN:779,_ZNSt8_Rb_treeIiSt4pairIKi6VertexESt10_Select1stIS3_ESt4lessIiESaIS3_EE7_S_leftEPSt18_Rb_tree_node_base
FNDA:72,_ZNSt8_Rb_treeIiSt4pairIKi6VertexESt10_Select1stIS3_ESt4lessIiESaIS3_EE7_S_leftEPSt18_Rb_tree_node_base
FN:783,_ZNSt8_Rb_treeIiSt4pairIKi6VertexESt10_Select1stIS3_ESt4lessIiESaIS3_EE7_S_leftEPKSt18_Rb_tree_node_base
FNDA:0,_ZNSt8_Rb_treeIiSt4pairIKi6VertexESt10_Select1stIS3_ESt4lessIiESaIS3_EE7_S_leftEPKSt18_Rb_tree_node_base
FN:787,_ZNSt8_Rb_treeImSt4pairIKmmESt10_Select1stIS2_ESt4lessImESaIS2_EE8_S_rightEPSt18_Rb_tree_node_base
FNDA:0,_ZNSt8_Rb_treeImSt4pairIKmmESt10_Select1stIS2_ESt4lessImESaIS2_EE8_S_rightEPSt18_Rb_tree_node_base
FN:787,_ZNSt8_Rb_treeIiSt4pairIKi6VertexESt10_Select1stIS3_ESt4lessIiESaIS3_EE8_S_rightEPSt18_Rb_tree_node_base
FNDA:32,_ZNSt8_Rb_treeIiSt4pairIKi6VertexESt10_Select1stIS3_ESt4lessIiESaIS3_EE8_S_rightEPSt18_Rb_tree_node_base
FN:791,_ZNSt8_Rb_treeIiSt4pairIKi6VertexESt10_Select1stIS3_ESt4lessIiESaIS3_EE8_S_rightEPKSt18_Rb_tree_node_base
FNDA:0,_ZNSt8_Rb_treeIiSt4pairIKi6VertexESt10_Select1stIS3_ESt4lessIiESaIS3_EE8_S_rightEPKSt18_Rb_tree_node_base
FN:795,_ZNSt8_Rb_treeIiSt4pairIKi6VertexESt10_Select1stIS3_ESt4lessIiESaIS3_EE6_S_keyEPKSt18_Rb_tree_node_base
FNDA:6,_ZNSt8_Rb_treeIiSt4pairIKi6VertexESt10_Select1stIS3_ESt4lessIiESaIS3_EE6_S_keyEPKSt18_Rb_tree_node_base
FN:795,_ZNSt8_Rb_treeImSt4pairIKmmESt10_Select1stIS2_ESt4lessImESaIS2_EE6_S_keyEPKSt18_Rb_tree_node_base
FNDA:4,_ZNSt8_Rb_treeImSt4pairIKmmESt10_Select1stIS2_ESt4lessImESaIS2_EE6_S_keyEPKSt18_Rb_tree_node_base
FN:799,_ZNSt8_Rb_treeImSt4pairIKmmESt10_Select1stIS2_ESt4lessImESaIS2_EE10_S_minimumEPSt18_Rb_tree_node_base
FNDA:0,_ZNSt8_Rb_treeImSt4pairIKmmESt10_Select1stIS2_ESt4lessImESaIS2_EE10_S_minimumEPSt18_Rb_tree_node_base
FN:807,_ZNSt8_Rb_treeImSt4pairIKmmESt10_Select1stIS2_ESt4lessImESaIS2_EE10_S_maximumEPSt18_Rb_tree_node_base
FNDA:0,_ZNSt8_Rb_treeImSt4pairIKmmESt10_Select1stIS2_ESt4lessImESaIS2_EE10_S_maximumEPSt18_Rb_tree_node_base
FN:887,_ZNSt8_Rb_treeImSt4pairIKmmESt10_Select1stIS2_ESt4lessImESaIS2_EE7_M_copyILb0ENS8_11_Alloc_nodeEEEPSt13_Rb_tree_nodeIS2_ERKS8_RT0_
FNDA:0,_ZNSt8_Rb_treeImSt4pairIKmmESt10_Select1stIS2_ESt4lessImESaIS2_EE7_M_copyILb0ENS8_11_Alloc_nodeEEEPSt13_Rb_tree_nodeIS2_ERKS8_RT0_
FN:898,_ZNSt8_Rb_treeImSt4pairIKmmESt10_Select1stIS2_ESt4lessImESaIS2_EE7_M_copyERKS8_
FNDA:0,_ZNSt8_Rb_treeImSt4pairIKmmESt10_Select1stIS2_ESt4lessImESaIS2_EE7_M_copyERKS8_
FN:928,_ZNSt8_Rb_treeIiSt4pairIKi6VertexESt10_Select1stIS3_ESt4lessIiESaIS3_EEC2Ev
FNDA:3,_ZNSt8_Rb_treeIiSt4pairIKi6VertexESt10_Select1stIS3_ESt4lessIiESaIS3_EEC2Ev
FN:928,_ZNSt8_Rb_treeImSt4pairIKmmESt10_Select1stIS2_ESt4lessImESaIS2_EEC2Ev
FNDA:11,_ZNSt8_Rb_treeImSt4pairIKmmESt10_Select1stIS2_ESt4lessImESaIS2_EEC2Ev
FN:935,_ZNSt8_Rb_treeImSt4pairIKmmESt10_Select1stIS2_ESt4lessImESaIS2_EEC2ERKS8_
FNDA:0,_ZNSt8_Rb_treeImSt4pairIKmmESt10_Select1stIS2_ESt4lessImESaIS2_EEC2ERKS8_
FN:983,_ZNSt8_Rb_treeImSt4pairIKmmESt10_Select1stIS2_ESt4lessImESaIS2_EED2Ev
FNDA:0,_ZNSt8_Rb_treeImSt4pairIKmmESt10_Select1stIS2_ESt4lessImESaIS2_EED2Ev
FN:983,_ZNSt8_Rb_treeIiSt4pairIKi6VertexESt10_Select1stIS3_ESt4lessIiESaIS3_EED2Ev
FNDA:3,_ZNSt8_Rb_treeIiSt4pairIKi6VertexESt10_Select1stIS3_ESt4lessIiESaIS3_EED2Ev
FN:991,_ZNKSt8_Rb_treeImSt4pairIKmmESt10_Select1stIS2_ESt4lessImESaIS2_EE8key_compEv
FNDA:0,_ZNKSt8_Rb_treeImSt4pairIKmmESt10_Select1stIS2_ESt4lessImESaIS2_EE8key_compEv
FN:991,_ZNKSt8_Rb_treeIiSt4pairIKi6VertexESt10_Select1stIS3_ESt4lessIiESaIS3_EE8key_compEv
FNDA:44,_ZNKSt8_Rb_treeIiSt4pairIKi6VertexESt10_Select1stIS3_ESt4lessIiESaIS3_EE8key_compEv
FN:995,_ZNSt8_Rb_treeImSt4pairIKmmESt10_Select1stIS2_ESt4lessImESaIS2_EE5beginEv
FNDA:9,_ZNSt8_Rb_treeImSt4pairIKmmESt10_Select1stIS2_ESt4lessImESaIS2_EE5beginEv
FN:995,_ZNSt8_Rb_treeIiSt4pairIKi6VertexESt10_Select1stIS3_ESt4lessIiESaIS3_EE5beginEv
FNDA:5,_ZNSt8_Rb_treeIiSt4pairIKi6VertexESt10_Select1stIS3_ESt4lessIiESaIS3_EE5beginEv
FN:999,_ZNKSt8_Rb_treeIiSt4pairIKi6VertexESt10_Select1stIS3_ESt4lessIiESaIS3_EE5beginEv
FNDA:1,_ZNKSt8_Rb_treeIiSt4pairIKi6VertexESt10_Select1stIS3_ESt4lessIiESaIS3_EE5beginEv
FN:1003,_ZNSt8_Rb_treeImSt4pairIKmmESt10_Select1stIS2_ESt4lessImESaIS2_EE3endEv
FNDA:15,_ZNSt8_Rb_treeImSt4pairIKmmESt10_Select1stIS2_ESt4lessImESaIS2_EE3endEv
FN:1003,_ZNSt8_Rb_treeIiSt4pairIKi6VertexESt10_Select1stIS3_ESt4lessIiESaIS3_EE3endEv
FNDA:51,_ZNSt8_Rb_treeIiSt4pairIKi6VertexESt10_Select1stIS3_ESt4lessIiESaIS3_EE3endEv
FN:1007,_ZNKSt8_Rb_treeIiSt4pairIKi6VertexESt10_Select1stIS3_ESt4lessIiESaIS3_EE3endEv
FNDA:1,_ZNKSt8_Rb_treeIiSt4pairIKi6VertexESt10_Select1stIS3_ESt4lessIiESaIS3_EE3endEv
FN:1031,_ZNKSt8_Rb_treeImSt4pairIKmmESt10_Select1stIS2_ESt4lessImESaIS2_EE4sizeEv
FNDA:8,_ZNKSt8_Rb_treeImSt4pairIKmmESt10_Select1stIS2_ESt4lessImESaIS2_EE4sizeEv
FN:1031,_ZNKSt8_Rb_treeIiSt4pairIKi6VertexESt10_Select1stIS3_ESt4lessIiESaIS3_EE4sizeEv
FNDA:18,_ZNKSt8_Rb_treeIiSt4pairIKi6VertexESt10_Select1stIS3_ESt4lessIiESaIS3_EE4sizeEv
FN:1252,_ZNSt8_Rb_treeImSt4pairIKmmESt10_Select1stIS2_ESt4lessImESaIS2_EE5clearEv
FNDA:6,_ZNSt8_Rb_treeImSt4pairIKmmESt10_Select1stIS2_ESt4lessImESaIS2_EE5clearEv
FN:1269,_ZNSt8_Rb_treeIiSt4pairIKi6VertexESt10_Select1stIS3_ESt4lessIiESaIS3_EE11lower_boundERS1_
FNDA:49,_ZNSt8_Rb_treeIiSt4pairIKi6VertexESt10_Select1stIS3_ESt4lessIiESaIS3_EE11lower_boundERS1_
FN:1269,_ZNSt8_Rb_treeImSt4pairIKmmESt10_Select1stIS2_ESt4lessImESaIS2_EE11lower_boundERS1_
FNDA:8,_ZNSt8_Rb_treeImSt4pairIKmmESt10_Select1stIS2_ESt4lessImESaIS2_EE11lower_boundERS1_
FN:1273,_ZNKSt8_Rb_treeIiSt4pairIKi6VertexESt10_Select1stIS3_ESt4lessIiESaIS3_EE11lower_boundERS1_
FNDA:0,_ZNKSt8_Rb_treeIiSt4pairIKi6VertexESt10_Select1stIS3_ESt4lessIiESaIS3_EE11lower_boundERS1_
FN:1845,_ZNSt8_Rb_treeImSt4pairIKmmESt10_Select1stIS2_ESt4lessImESaIS2_EE7_M_copyILb0ENS8_11_Alloc_nodeEEEPSt13_Rb_tree_nodeIS2_ESD_PSt18_Rb_tree_node_baseRT0_
FNDA:0,_ZNSt8_Rb_treeImSt4pairIKmmESt10_Select1stIS2_ESt4lessImESaIS2_EE7_M_copyILb0ENS8_11_Alloc_nodeEEEPSt13_Rb_tree_nodeIS2_ESD_PSt18_Rb_tree_node_baseRT0_
FN:1883,_ZNSt8_Rb_treeImSt4pairIKmmESt10_Select1stIS2_ESt4lessImESaIS2_EE8_M_eraseEPSt13_Rb_tree_nodeIS2_E
FNDA:0,_ZNSt8_Rb_treeImSt4pairIKmmESt10_Select1stIS2_ESt4lessImESaIS2_EE8_M_eraseEPSt13_Rb_tree_nodeIS2_E
FN:1883,_ZNSt8_Rb_treeIiSt4pairIKi6VertexESt10_Select1stIS3_ESt4lessIiESaIS3_EE8_M_eraseEPSt13_Rb_tree_nodeIS3_E
FNDA:10,_ZNSt8_Rb_treeIiSt4pairIKi6VertexESt10_Select1stIS3_ESt4lessIiESaIS3_EE8_M_eraseEPSt13_Rb_tree_nodeIS3_E
FN:1900,_ZNSt8_Rb_treeImSt4pairIKmmESt10_Select1stIS2_ESt4lessImESaIS2_EE14_M_lower_boundEPSt13_Rb_tree_nodeIS2_EPSt18_Rb_tree_node_baseRS1_
FNDA:8,_ZNSt8_Rb_treeImSt4pairIKmmESt10_Select1stIS2_ESt4lessImESaIS2_EE14_M_lower_boundEPSt13_Rb_tree_nodeIS2_EPSt18_Rb_tree_node_baseRS1_
FN:1900,_ZNSt8_Rb_treeIiSt4pairIKi6VertexESt10_Select1stIS3_ESt4lessIiESaIS3_EE14_M_lower_boundEPSt13_Rb_tree_nodeIS3_EPSt18_Rb_tree_node_baseRS1_
FNDA:49,_ZNSt8_Rb_treeIiSt4pairIKi6VertexESt10_Select1stIS3_ESt4lessIiESaIS3_EE14_M_lower_boundEPSt13_Rb_tree_nodeIS3_EPSt18_Rb_tree_node_baseRS1_
FN:1916,_ZNKSt8_Rb_treeIiSt4pairIKi6VertexESt10_Select1stIS3_ESt4lessIiESaIS3_EE14_M_lower_boundEPKSt13_Rb_tree_nodeIS3_EPKSt18_Rb_tree_node_baseRS1_
FNDA:0,_ZNKSt8_Rb_treeIiSt4pairIKi6VertexESt10_Select1stIS3_ESt4lessIiESaIS3_EE14_M_lower_boundEPKSt13_Rb_tree_nodeIS3_EPKSt18_Rb_tree_node_baseRS1_
FN:1932,_ZNSt8_Rb_treeImSt4pairIKmmESt10_Select1stIS2_ESt4lessImESaIS2_EE14_M_upper_boundEPSt13_Rb_tree_nodeIS2_EPSt18_Rb_tree_node_baseRS1_
FNDA:0,_ZNSt8_Rb_treeImSt4pairIKmmESt10_Select1stIS2_ESt4lessImESaIS2_EE14_M_upper_boundEPSt13_Rb_tree_nodeIS2_EPSt18_Rb_tree_node_baseRS1_
FN:1966,_ZNSt8_Rb_treeImSt4pairIKmmESt10_Select1stIS2_ESt4lessImESaIS2_EE11equal_rangeERS1_
FNDA:0,_ZNSt8_Rb_treeImSt4pairIKmmESt10_Select1stIS2_ESt4lessImESaIS2_EE11equal_rangeERS1_
FN:2061,_ZNSt8_Rb_treeImSt4pairIKmmESt10_Select1stIS2_ESt4lessImESaIS2_EE24_M_get_insert_unique_posERS1_
FNDA:6,_ZNSt8_Rb_treeImSt4pairIKmmESt10_Select1stIS2_ESt4lessImESaIS2_EE24_M_get_insert_unique_posERS1_
FN:2061,_ZNSt8_Rb_treeIiSt4pairIKi6VertexESt10_Select1stIS3_ESt4lessIiESaIS3_EE24_M_get_insert_unique_posERS1_
FNDA:3,_ZNSt8_Rb_treeIiSt4pairIKi6VertexESt10_Select1stIS3_ESt4lessIiESaIS3_EE24_M_get_insert_unique_posERS1_
FN:2163,_ZNSt8_Rb_treeImSt4pairIKmmESt10_Select1stIS2_ESt4lessImESaIS2_EE29_M_get_insert_hint_unique_posESt23_Rb_tree_const_iteratorIS2_ERS1_
FNDA:8,_ZNSt8_Rb_treeImSt4pairIKmmESt10_Select1stIS2_ESt4lessImESaIS2_EE29_M_get_insert_hint_unique_posESt23_Rb_tree_const_iteratorIS2_ERS1_
FN:2163,_ZNSt8_Rb_treeIiSt4pairIKi6VertexESt10_Select1stIS3_ESt4lessIiESaIS3_EE29_M_get_insert_hint_unique_posESt23_Rb_tree_const_iteratorIS3_ERS1_
FNDA:7,_ZNSt8_Rb_treeIiSt4pairIKi6VertexESt10_Select1stIS3_ESt4lessIiESaIS3_EE29_M_get_insert_hint_unique_posESt23_Rb_tree_const_iteratorIS3_ERS1_
FN:2330,_ZNSt8_Rb_treeIiSt4pairIKi6VertexESt10_Select1stIS3_ESt4lessIiESaIS3_EE14_M_insert_nodeEPSt18_Rb_tree_node_baseSB_PSt13_Rb_tree_nodeIS3_E
FNDA:7,_ZNSt8_Rb_treeIiSt4pairIKi6VertexESt10_Select1stIS3_ESt4lessIiESaIS3_EE14_M_insert_nodeEPSt18_Rb_tree_node_baseSB_PSt13_Rb_tree_nodeIS3_E
FN:2330,_ZNSt8_Rb_treeImSt4pairIKmmESt10_Select1stIS2_ESt4lessImESaIS2_EE14_M_insert_nodeEPSt18_Rb_tree_node_baseSA_PSt13_Rb_tree_nodeIS2_E
FNDA:8,_ZNSt8_Rb_treeImSt4pairIKmmESt10_Select1stIS2_ESt4lessImESaIS2_EE14_M_insert_nodeEPSt18_Rb_tree_node_baseSA_PSt13_Rb_tree_nodeIS2_E
FN:2428,_ZNSt8_Rb_treeIiSt4pairIKi6VertexESt10_Select1stIS3_ESt4lessIiESaIS3_EE22_M_emplace_hint_uniqueIJRKSt21piecewise_construct_tSt5tupleIJOiEESE_IJEEEEESt17_Rb_tree_iteratorIS3_ESt23_Rb_tree_const_iteratorIS3_EDpOT_
FNDA:4,_ZNSt8_Rb_treeIiSt4pairIKi6VertexESt10_Select1stIS3_ESt4lessIiESaIS3_EE22_M_emplace_hint_uniqueIJRKSt21piecewise_construct_tSt5tupleIJOiEESE_IJEEEEESt17_Rb_tree_iteratorIS3_ESt23_Rb_tree_const_iteratorIS3_EDpOT_
FN:2428,_ZNSt8_Rb_treeImSt4pairIKmmESt10_Select1stIS2_ESt4lessImESaIS2_EE22_M_emplace_hint_uniqueIJRKSt21piecewise_construct_tSt5tupleIJRS1_EESD_IJEEEEESt17_Rb_tree_iteratorIS2_ESt23_Rb_tree_const_iteratorIS2_EDpOT_
FNDA:8,_ZNSt8_Rb_treeImSt4pairIKmmESt10_Select1stIS2_ESt4lessImESaIS2_EE22_M_emplace_hint_uniqueIJRKSt21piecewise_construct_tSt5tupleIJRS1_EESD_IJEEEEESt17_Rb_tree_iteratorIS2_ESt23_Rb_tree_const_iteratorIS2_EDpOT_
FN:2428,_ZNSt8_Rb_treeIiSt4pairIKi6VertexESt10_Select1stIS3_ESt4lessIiESaIS3_EE22_M_emplace_hint_uniqueIJRKSt21piecewise_construct_tSt5tupleIJRS1_EESE_IJEEEEESt17_Rb_tree_iteratorIS3_ESt23_Rb_tree_const_iteratorIS3_EDpOT_
FNDA:3,_ZNSt8_Rb_treeIiSt4pairIKi6VertexESt10_Select1stIS3_ESt4lessIiESaIS3_EE22_M_emplace_hint_uniqueIJRKSt21piecewise_construct_tSt5tupleIJRS1_EESE_IJEEEEESt17_Rb_tree_iteratorIS3_ESt23_Rb_tree_const_iteratorIS3_EDpOT_
FN:2480,_ZNSt8_Rb_treeImSt4pairIKmmESt10_Select1stIS2_ESt4lessImESaIS2_EE12_M_erase_auxESt23_Rb_tree_const_iteratorIS2_E
FNDA:0,_ZNSt8_Rb_treeImSt4pairIKmmESt10_Select1stIS2_ESt4lessImESaIS2_EE12_M_erase_auxESt23_Rb_tree_const_iteratorIS2_E
FN:2494,_ZNSt8_Rb_treeImSt4pairIKmmESt10_Select1stIS2_ESt4lessImESaIS2_EE12_M_erase_auxESt23_Rb_tree_const_iteratorIS2_ESA_
FNDA:0,_ZNSt8_Rb_treeImSt4pairIKmmESt10_Select1stIS2_ESt4lessImESaIS2_EE12_M_erase_auxESt23_Rb_tree_const_iteratorIS2_ESA_
FN:2507,_ZNSt8_Rb_treeImSt4pairIKmmESt10_Select1stIS2_ESt4lessImESaIS2_EE5eraseERS1_
FNDA:0,_ZNSt8_Rb_treeImSt4pairIKmmESt10_Select1stIS2_ESt4lessImESaIS2_EE5eraseERS1_
FN:2533,_ZNKSt8_Rb_treeIiSt4pairIKi6VertexESt10_Select1stIS3_ESt4lessIiESaIS3_EE4findERS1_
FNDA:0,_ZNKSt8_Rb_treeIiSt4pairIKi6VertexESt10_Select1stIS3_ESt4lessIiESaIS3_EE4findERS1_
DA:112,0
DA:114,0
DA:115,0
DA:126,0
DA:128,0
DA:129,0
DA:146,11
DA:150,11
DA:146,5
DA:150,5
DA:152,0
DA:154,0
DA:173,0
DA:174,0
DA:175,0
DA:176,0
DA:177,0
DA:206,0
DA:208,0
DA:209,0
DA:210,0
DA:211,0
DA:212,0
DA:234,0
DA:235,0
DA:234,113
DA:235,113
DA:238,16
DA:239,16
DA:238,108
DA:239,108
DA:273,54
DA:274,54
DA:273,122
DA:274,122
DA:277,8
DA:278,8
DA:277,99
DA:278,99
DA:285,0
DA:287,0
DA:288,0
DA:285,6
DA:287,6
DA:288,6
DA:300,0
DA:302,0
DA:303,0
DA:300,0
DA:302,0
DA:303,0
DA:315,14
DA:316,14
DA:315,52
DA:316,52
DA:320,8
DA:321,8
DA:347,2
DA:348,2
DA:350,8
DA:351,8
DA:350,7
DA:351,7
DA:354,8
DA:355,8
DA:354,7
DA:355,7
DA:358,3
DA:359,3
DA:366,3
DA:368,3
DA:369,3
DA:373,0
DA:375,0
DA:376,0
DA:377,0
DA:396,0
DA:397,0
DA:396,0
DA:397,0
DA:401,0
DA:402,0
DA:401,4
DA:402,4
DA:523,0
DA:524,0
DA:528,0
DA:529,0
DA:547,0
DA:548,0
DA:547,28
DA:548,28
DA:560,0
DA:561,0
DA:560,7
DA:561,7
DA:564,0
DA:565,0
DA:564,7
DA:565,7
DA:590,0
DA:594,0
DA:595,0
DA:605,0
DA:590,8
DA:594,8
DA:595,8
DA:599,0
DA:601,0
DA:602,0
DA:603,0
DA:605,8
DA:590,3
DA:594,3
DA:595,3
DA:599,0
DA:601,0
DA:602,0
DA:603,0
DA:605,3
DA:590,4
DA:594,4
DA:595,4
DA:599,0
DA:601,0
DA:602,0
DA:603,0
DA:605,4
DA:609,0
DA:611,0
DA:612,0
DA:613,0
DA:609,8
DA:611,8
DA:612,8
DA:613,8
DA:609,3
DA:611,3
DA:612,3
DA:613,3
DA:609,4
DA:611,4
DA:612,4
DA:613,4
DA:618,0
DA:623,0
DA:624,0
DA:626,0
DA:618,7
DA:623,7
DA:624,7
DA:626,7
DA:629,0
DA:631,0
DA:632,0
DA:633,0
DA:629,7
DA:631,7
DA:632,7
DA:633,7
DA:637,0
DA:645,0
DA:646,0
DA:647,0
DA:648,0
DA:649,0
DA:667,11
DA:671,11
DA:672,11
DA:667,3
DA:671,3
DA:672,3
DA:674,0
DA:676,0
DA:677,0
DA:678,0
DA:710,0
DA:711,0
DA:714,0
DA:715,0
DA:718,6
DA:719,6
DA:718,0
DA:719,0
DA:726,4
DA:727,4
DA:726,0
DA:727,0
DA:734,0
DA:735,0
DA:734,55
DA:735,55
DA:738,0
DA:739,0
DA:738,55
DA:739,55
DA:742,0
DA:745,0
DA:749,64
DA:750,64
DA:749,0
DA:750,0
DA:753,0
DA:754,0
DA:757,16
DA:775,16
DA:757,105
DA:775,105
DA:779,0
DA:780,0
DA:779,72
DA:780,72
DA:783,0
DA:784,0
DA:787,0
DA:788,0
DA:787,32
DA:788,32
DA:791,0
DA:792,0
DA:795,4
DA:796,4
DA:795,6
DA:796,6
DA:799,0
DA:800,0
DA:807,0
DA:808,0
DA:887,0
DA:890,0
DA:891,0
DA:892,0
DA:893,0
DA:894,0
DA:898,0
DA:900,0
DA:901,0
DA:928,11
DA:928,3
DA:935,0
DA:936,0
DA:938,0
DA:939,0
DA:940,0
DA:983,0
DA:984,0
DA:983,3
DA:984,3
DA:991,0
DA:992,0
DA:991,44
DA:992,44
DA:995,9
DA:996,9
DA:995,5
DA:996,5
DA:999,1
DA:1000,1
DA:1003,15
DA:1004,15
DA:1003,51
DA:1004,51
DA:1007,1
DA:1008,1
DA:1031,8
DA:1032,8
DA:1031,18
DA:1032,18
DA:1252,6
DA:1254,6
DA:1255,6
DA:1256,6
DA:1269,8
DA:1270,8
DA:1269,49
DA:1270,49
DA:1273,0
DA:1274,0
DA:1845,0
DA:1849,0
DA:1850,0
DA:1854,0
DA:1855,0
DA:1856,0
DA:1857,0
DA:1858,0
DA:1860,0
DA:1862,0
DA:1863,0
DA:1864,0
DA:1865,0
DA:1866,0
DA:1868,0
DA:1869,0
DA:1872,0
DA:1874,0
DA:1875,0
DA:1877,0
DA:1883,0
DA:1887,0
DA:1889,0
DA:1890,0
DA:1891,0
DA:1892,0
DA:1894,0
DA:1883,10
DA:1887,17
DA:1889,7
DA:1890,7
DA:1891,7
DA:1892,7
DA:1894,10
DA:1900,8
DA:1904,10
DA:1905,2
DA:1906,0
DA:1908,2
DA:1909,8
DA:1900,49
DA:1904,139
DA:1905,90
DA:1906,65
DA:1908,25
DA:1909,49
DA:1916,0
DA:1920,0
DA:1921,0
DA:1922,0
DA:1924,0
DA:1925,0
DA:1932,0
DA:1936,0
DA:1937,0
DA:1938,0
DA:1940,0
DA:1941,0
DA:1966,0
DA:1969,0
DA:1970,0
DA:1971,0
DA:1973,0
DA:1974,0
DA:1975,0
DA:1976,0
DA:1979,0
DA:1980,0
DA:1981,0
DA:1982,0
DA:1983,0
DA:1984,0
DA:1985,0
DA:1988,0
DA:1989,0
DA:2061,6
DA:2065,6
DA:2066,6
DA:2067,6
DA:2068,6
DA:2070,0
DA:2071,0
DA:2072,0
DA:2074,6
DA:2075,6
DA:2077,6
DA:2078,6
DA:2080,0
DA:2082,0
DA:2083,0
DA:2084,0
DA:2061,3
DA:2065,3
DA:2066,3
DA:2067,3
DA:2068,3
DA:2070,0
DA:2071,0
DA:2072,0
DA:2074,3
DA:2075,3
DA:2077,3
DA:2078,3
DA:2080,0
DA:2082,0
DA:2083,0
DA:2084,0
DA:2163,8
DA:2167,8
DA:2171,8
DA:2173,8
DA:2174,8
DA:2175,2
DA:2177,6
DA:2179,0
DA:2182,0
DA:2183,0
DA:2184,0
DA:2185,0
DA:2187,0
DA:2188,0
DA:2190,0
DA:2193,0
DA:2195,0
DA:2198,0
DA:2199,0
DA:2200,0
DA:2201,0
DA:2203,0
DA:2204,0
DA:2206,0
DA:2209,0
DA:2213,0
DA:2163,7
DA:2167,7
DA:2171,7
DA:2173,5
DA:2174,5
DA:2175,2
DA:2177,3
DA:2179,2
DA:2182,2
DA:2183,2
DA:2184,2
DA:2185,0
DA:2187,0
DA:2188,0
DA:2190,0
DA:2193,0
DA:2195,0
DA:2198,0
DA:2199,0
DA:2200,0
DA:2201,0
DA:2203,0
DA:2204,0
DA:2206,0
DA:2209,0
DA:2213,0
DA:2330,8
DA:2333,8
DA:2334,16
DA:2337,8
DA:2338,8
DA:2339,8
DA:2340,8
DA:2330,7
DA:2333,5
DA:2334,12
DA:2337,7
DA:2338,7
DA:2339,7
DA:2340,7
DA:2428,8
DA:2431,8
DA:2435,8
DA:2437,8
DA:2438,8
DA:2440,0
DA:2441,0
DA:2443,0
DA:2445,0
DA:2446,0
DA:2428,3
DA:2431,3
DA:2435,3
DA:2437,3
DA:2438,3
DA:2440,0
DA:2441,0
DA:2443,0
DA:2445,0
DA:2446,0
DA:2428,4
DA:2431,4
DA:2435,4
DA:2437,4
DA:2438,4
DA:2440,0
DA:2441,0
DA:2443,0
DA:2445,0
DA:2446,0
DA:2480,0
DA:2485,0
DA:2486,0
DA:2487,0
DA:2488,0
DA:2489,0
DA:2494,0
DA:2497,0
DA:2498,0
DA:2500,0
DA:2501,0
DA:2502,0
DA:2507,0
DA:2510,0
DA:2511,0
DA:2512,0
DA:2513,0
DA:2533,0
DA:2536,0
DA:2537,0
DA:2538,0
DA:2539,0
end_of_record
SF:/usr/include/c++/11/iostream
end_of_record
SF:/usr/include/c++/11/bits/ptr_traits.h
FN:149,_ZNSt14pointer_traitsIPNSt8__detail10_Hash_nodeI4EdgeLb1EEEE10pointer_toERS3_
FNDA:4,_ZNSt14pointer_traitsIPNSt8__detail10_Hash_nodeI4EdgeLb1EEEE10pointer_toERS3_
FN:149,_ZNSt14pointer_traitsIPPNSt8__detail15_Hash_node_baseEE10pointer_toERS2_
FNDA:6,_ZNSt14pointer_traitsIPPNSt8__detail15_Hash_node_baseEE10pointer_toERS2_
FN:159,_ZSt12__to_addressIPNSt8__detail15_Hash_node_baseEEPT_S4_
FNDA:6,_ZSt12__to_addressIPNSt8__detail15_Hash_node_baseEEPT_S4_
FN:159,_ZSt12__to_addressINSt8__detail10_Hash_nodeI4EdgeLb1EEEEPT_S5_
FNDA:4,_ZSt12__to_addressINSt8__detail10_Hash_nodeI4EdgeLb1EEEEPT_S5_
DA:149,4
DA:150,4
DA:149,6
DA:150,6
DA:159,6
DA:162,6
DA:159,4
DA:162,4
end_of_record
SF:/usr/include/c++/11/bits/allocator.h
FN:156,_ZNSaI4EdgeEC2Ev
FNDA:11,_ZNSaI4EdgeEC2Ev
FN:156,_ZNSaIbEC2Ev
FNDA:2,_ZNSaIbEC2Ev
FN:156,_ZNSaImEC2Ev
FNDA:4,_ZNSaImEC2Ev
FN:156,_ZNSaISt6vectorImSaImEEEC2Ev
FNDA:11,_ZNSaISt6vectorImSaImEEEC2Ev
FN:156,_ZNSaISt13_Rb_tree_nodeISt4pairIKi6VertexEEEC2Ev
FNDA:3,_ZNSaISt13_Rb_tree_nodeISt4pairIKi6VertexEEEC2Ev
FN:156,_ZNSaINSt8__detail10_Hash_nodeI4EdgeLb1EEEEC2Ev
FNDA:3,_ZNSaINSt8__detail10_Hash_nodeI4EdgeLb1EEEEC2Ev
FN:156,_ZNSaIiEC2Ev
FNDA:5,_ZNSaIiEC2Ev
FN:156,_ZNSaISt13_Rb_tree_nodeISt4pairIKmmEEEC2Ev
FNDA:11,_ZNSaISt13_Rb_tree_nodeISt4pairIKmmEEEC2Ev
FN:159,_ZNSaISt13_Rb_tree_nodeISt4pairIKmmEEEC2ERKS4_
FNDA:0,_ZNSaISt13_Rb_tree_nodeISt4pairIKmmEEEC2ERKS4_
FN:159,_ZNSaI4EdgeEC2ERKS0_
FNDA:0,_ZNSaI4EdgeEC2ERKS0_
FN:159,_ZNSaISt6vectorImSaImEEEC2ERKS2_
FNDA:22,_ZNSaISt6vectorImSaImEEEC2ERKS2_
FN:159,_ZNSaImEC2ERKS_
FNDA:50,_ZNSaImEC2ERKS_
FN:169,_ZNSaImEC2IbEERKSaIT_E
FNDA:2,_ZNSaImEC2IbEERKSaIT_E
FN:169,_ZNSaIPmEC2ImEERKSaIT_E
FNDA:2,_ZNSaIPmEC2ImEERKSaIT_E
FN:169,_ZNSaIPNSt8__detail15_Hash_node_baseEEC2INS_10_Hash_nodeI4EdgeLb1EEEEERKSaIT_E
FNDA:4,_ZNSaIPNSt8__detail15_Hash_node_baseEEC2INS_10_Hash_nodeI4EdgeLb1EEEEERKSaIT_E
FN:174,_ZNSaIPmED2Ev
FNDA:2,_ZNSaIPmED2Ev
FN:174,_ZNSaISt13_Rb_tree_nodeISt4pairIKmmEEED2Ev
FNDA:0,_ZNSaISt13_Rb_tree_nodeISt4pairIKmmEEED2Ev
FN:174,_ZNSaI4EdgeED2Ev
FNDA:0,_ZNSaI4EdgeED2Ev
FN:174,_ZNSaIiED2Ev
FNDA:9,_ZNSaIiED2Ev
FN:174,_ZNSaImED2Ev
FNDA:56,_ZNSaImED2Ev
FN:174,_ZNSaIPNSt8__detail15_Hash_node_baseEED2Ev
FNDA:12,_ZNSaIPNSt8__detail15_Hash_node_baseEED2Ev
FN:174,_ZNSaISt6vectorImSaImEEED2Ev
FNDA:33,_ZNSaISt6vectorImSaImEEED2Ev
FN:174,_ZNSaINSt8__detail10_Hash_nodeI4EdgeLb1EEEED2Ev
FNDA:3,_ZNSaINSt8__detail10_Hash_nodeI4EdgeLb1EEEED2Ev
FN:174,_ZNSaISt13_Rb_tree_nodeISt4pairIKi6VertexEEED2Ev
FNDA:3,_ZNSaISt13_Rb_tree_nodeISt4pairIKi6VertexEEED2Ev
FN:174,_ZNSaIbED2Ev
FNDA:2,_ZNSaIbED2Ev
DA:156,11
DA:156,11
DA:156,5
DA:156,3
DA:156,3
DA:156,11
DA:156,4
DA:156,2
DA:159,0
DA:160,0
DA:159,50
DA:160,50
DA:159,0
DA:160,0
DA:159,22
DA:160,22
DA:169,4
DA:169,2
DA:169,2
DA:174,12
DA:174,2
DA:174,0
DA:174,0
DA:174,9
DA:174,56
DA:174,33
DA:174,3
DA:174,3
DA:174,2
end_of_record
SF:/usr/include/c++/11/bits/move.h
FN:49,_ZSt11__addressofINSt8__detail10_Hash_nodeI4EdgeLb1EEEEPT_RS4_
FNDA:4,_ZSt11__addressofINSt8__detail10_Hash_nodeI4EdgeLb1EEEEPT_RS4_
FN:49,_ZSt11__addressofISt6vectorImSaImEEEPT_RS3_
FNDA:42,_ZSt11__addressofISt6vectorImSaImEEEPT_RS3_
FN:49,_ZSt11__addressofI4EdgeEPT_RS1_
FNDA:0,_ZSt11__addressofI4EdgeEPT_RS1_
FN:49,_ZSt11__addressofIPNSt8__detail15_Hash_node_baseEEPT_RS3_
FNDA:6,_ZSt11__addressofIPNSt8__detail15_Hash_node_baseEEPT_RS3_
FN:49,_ZSt11__addressofImEPT_RS0_
FNDA:6,_ZSt11__addressofImEPT_RS0_
FN:77,_ZSt7forwardIRKiEOT_RNSt16remove_referenceIS2_E4typeE
FNDA:8,_ZSt7forwardIRKiEOT_RNSt16remove_referenceIS2_E4typeE
FN:77,_ZSt7forwardIRKmEOT_RNSt16remove_referenceIS2_E4typeE
FNDA:12,_ZSt7forwardIRKmEOT_RNSt16remove_referenceIS2_E4typeE
FN:77,_ZSt7forwardISt5tupleIJRKmEEEOT_RNSt16remove_referenceIS4_E4typeE
FNDA:40,_ZSt7forwardISt5tupleIJRKmEEEOT_RNSt16remove_referenceIS4_E4typeE
FN:77,_ZSt7forwardISt5tupleIJRKiEEEOT_RNSt16remove_referenceIS4_E4typeE
FNDA:25,_ZSt7forwardISt5tupleIJRKiEEEOT_RNSt16remove_referenceIS4_E4typeE
FN:77,_ZSt7forwardISt5tupleIJEEEOT_RNSt16remove_referenceIS2_E4typeE
FNDA:110,_ZSt7forwardISt5tupleIJEEEOT_RNSt16remove_referenceIS2_E4typeE
FN:77,_ZSt7forwardISt5tupleIJOiEEEOT_RNSt16remove_referenceIS3_E4typeE
FNDA:20,_ZSt7forwardISt5tupleIJOiEEEOT_RNSt16remove_referenceIS3_E4typeE
FN:77,_ZSt7forwardIRKSt21piecewise_construct_tEOT_RNSt16remove_referenceIS3_E4typeE
FNDA:110,_ZSt7forwardIRKSt21piecewise_construct_tEOT_RNSt16remove_referenceIS3_E4typeE
FN:77,_ZSt7forwardISt6vectorIS0_ImSaImEESaIS2_EEEOT_RNSt16remove_referenceIS5_E4typeE
FNDA:2,_ZSt7forwardISt6vectorIS0_ImSaImEESaIS2_EEEOT_RNSt16remove_referenceIS5_E4typeE
FN:77,_ZSt7forwardIRSt6vectorIS0_ImSaImEESaIS2_EEEOT_RNSt16remove_referenceIS6_E4typeE
FNDA:2,_ZSt7forwardIRSt6vectorIS0_ImSaImEESaIS2_EEEOT_RNSt16remove_referenceIS6_E4typeE
FN:77,_ZSt7forwardIRKSt6vectorIS0_ImSaImEESaIS2_EEEOT_RNSt16remove_referenceIS7_E4typeE
FNDA:0,_ZSt7forwardIRKSt6vectorIS0_ImSaImEESaIS2_EEEOT_RNSt16remove_referenceIS7_E4typeE
FN:77,_ZSt7forwardImEOT_RNSt16remove_referenceIS0_E4typeE
FNDA:3,_ZSt7forwardImEOT_RNSt16remove_referenceIS0_E4typeE
FN:77,_ZSt7forwardIbEOT_RNSt16remove_referenceIS0_E4typeE
FNDA:8,_ZSt7forwardIbEOT_RNSt16remove_referenceIS0_E4typeE
FN:77,_ZSt7forwardIiEOT_RNSt16remove_referenceIS0_E4typeE
FNDA:44,_ZSt7forwardIiEOT_RNSt16remove_referenceIS0_E4typeE
FN:77,_ZSt7forwardIRK4EdgeEOT_RNSt16remove_referenceIS3_E4typeE
FNDA:0,_ZSt7forwardIRK4EdgeEOT_RNSt16remove_referenceIS3_E4typeE
FN:77,_ZSt7forwardIRPSt18_Rb_tree_node_baseEOT_RNSt16remove_referenceIS3_E4typeE
FNDA:34,_ZSt7forwardIRPSt18_Rb_tree_node_baseEOT_RNSt16remove_referenceIS3_E4typeE
FN:77,_ZSt7forwardINSt8__detail14_Node_iteratorI4EdgeLb1ELb1EEEEOT_RNSt16remove_referenceIS4_E4typeE
FNDA:0,_ZSt7forwardINSt8__detail14_Node_iteratorI4EdgeLb1ELb1EEEEOT_RNSt16remove_referenceIS4_E4typeE
FN:77,_ZSt7forwardIRNSt8__detail14_Node_iteratorI4EdgeLb1ELb1EEEEOT_RNSt16remove_referenceIS5_E4typeE
FNDA:4,_ZSt7forwardIRNSt8__detail14_Node_iteratorI4EdgeLb1ELb1EEEEOT_RNSt16remove_referenceIS5_E4typeE
FN:77,_ZSt7forwardISt17_Rb_tree_iteratorISt4pairIKmmEEEOT_RNSt16remove_referenceIS5_E4typeE
FNDA:0,_ZSt7forwardISt17_Rb_tree_iteratorISt4pairIKmmEEEOT_RNSt16remove_referenceIS5_E4typeE
FN:77,_ZSt7forwardIOiEOT_RNSt16remove_referenceIS1_E4typeE
FNDA:4,_ZSt7forwardIOiEOT_RNSt16remove_referenceIS1_E4typeE
FN:77,_ZSt7forwardIRKSt4pairIKmmEEOT_RNSt16remove_referenceIS5_E4typeE
FNDA:0,_ZSt7forwardIRKSt4pairIKmmEEOT_RNSt16remove_referenceIS5_E4typeE
FN:77,_ZSt7forwardIRPSt13_Rb_tree_nodeISt4pairIKi6VertexEEEOT_RNSt16remove_referenceIS8_E4typeE
FNDA:3,_ZSt7forwardIRPSt13_Rb_tree_nodeISt4pairIKi6VertexEEEOT_RNSt16remove_referenceIS8_E4typeE
FN:77,_ZSt7forwardIRPSt13_Rb_tree_nodeISt4pairIKmmEEEOT_RNSt16remove_referenceIS7_E4typeE
FNDA:6,_ZSt7forwardIRPSt13_Rb_tree_nodeISt4pairIKmmEEEOT_RNSt16remove_referenceIS7_E4typeE
FN:77,_ZSt7forwardIRKSt6vectorImSaImEEEOT_RNSt16remove_referenceIS5_E4typeE
FNDA:21,_ZSt7forwardIRKSt6vectorImSaImEEEOT_RNSt16remove_referenceIS5_E4typeE
FN:77,_ZSt7forwardIRK6VertexEOT_RNSt16remove_referenceIS3_E4typeE
FNDA:16,_ZSt7forwardIRK6VertexEOT_RNSt16remove_referenceIS3_E4typeE
FN:104,_ZSt4moveIRSaISt6vectorImSaImEEEEONSt16remove_referenceIT_E4typeEOS6_
FNDA:4,_ZSt4moveIRSaISt6vectorImSaImEEEEONSt16remove_referenceIT_E4typeEOS6_
FN:104,_ZSt4moveIRSt6vectorIS0_ImSaImEESaIS2_EEEONSt16remove_referenceIT_E4typeEOS7_
FNDA:6,_ZSt4moveIRSt6vectorIS0_ImSaImEESaIS2_EEEONSt16remove_referenceIT_E4typeEOS7_
FN:104,_ZSt4moveIRSaIcEEONSt16remove_referenceIT_E4typeEOS3_
FNDA:0,_ZSt4moveIRSaIcEEONSt16remove_referenceIT_E4typeEOS3_
FN:104,_ZSt4moveIRNSt7__cxx1112basic_stringIcSt11char_traitsIcESaIcEEEEONSt16remove_referenceIT_E4typeEOS8_
FNDA:65,_ZSt4moveIRNSt7__cxx1112basic_stringIcSt11char_traitsIcESaIcEEEEONSt16remove_referenceIT_E4typeEOS8_
FN:104,_ZSt4moveIRmEONSt16remove_referenceIT_E4typeEOS2_
FNDA:14,_ZSt4moveIRmEONSt16remove_referenceIT_E4typeEOS2_
FN:104,_ZSt4moveIRiEONSt16remove_referenceIT_E4typeEOS2_
FNDA:23,_ZSt4moveIRiEONSt16remove_referenceIT_E4typeEOS2_
FN:104,_ZSt4moveIRNSt12_Vector_baseISt6vectorImSaImEESaIS3_EE12_Vector_implEEONSt16remove_referenceIT_E4typeEOS9_
FNDA:0,_ZSt4moveIRNSt12_Vector_baseISt6vectorImSaImEESaIS3_EE12_Vector_implEEONSt16remove_referenceIT_E4typeEOS9_
FN:145,_ZSt9addressofINSt8__detail10_Hash_nodeI4EdgeLb1EEEEPT_RS4_
FNDA:4,_ZSt9addressofINSt8__detail10_Hash_nodeI4EdgeLb1EEEEPT_RS4_
FN:145,_ZSt9addressofIPNSt8__detail15_Hash_node_baseEEPT_RS3_
FNDA:6,_ZSt9addressofIPNSt8__detail15_Hash_node_baseEEPT_RS3_
DA:49,4
DA:50,4
DA:49,6
DA:50,6
DA:49,0
DA:50,0
DA:49,42
DA:50,42
DA:49,6
DA:50,6
DA:77,12
DA:78,12
DA:77,44
DA:78,44
DA:77,8
DA:78,8
DA:77,3
DA:78,3
DA:77,0
DA:78,0
DA:77,2
DA:78,2
DA:77,2
DA:78,2
DA:77,110
DA:78,110
DA:77,20
DA:78,20
DA:77,110
DA:78,110
DA:77,25
DA:78,25
DA:77,40
DA:78,40
DA:77,8
DA:78,8
DA:77,0
DA:78,0
DA:77,34
DA:78,34
DA:77,0
DA:78,0
DA:77,4
DA:78,4
DA:77,0
DA:78,0
DA:77,0
DA:78,0
DA:77,3
DA:78,3
DA:77,6
DA:78,6
DA:77,16
DA:78,16
DA:77,21
DA:78,21
DA:77,4
DA:78,4
DA:104,4
DA:105,4
DA:104,0
DA:105,0
DA:104,23
DA:105,23
DA:104,14
DA:105,14
DA:104,65
DA:105,65
DA:104,0
DA:105,0
DA:104,6
DA:105,6
DA:145,4
DA:146,4
DA:145,6
DA:146,6
end_of_record
SF:/usr/include/c++/11/bits/stl_algobase.h
FN:230,_ZSt3minImERKT_S2_S2_
FNDA:96,_ZSt3minImERKT_S2_S2_
FN:254,_ZSt3maxImERKT_S2_S2_
FNDA:80,_ZSt3maxImERKT_S2_S2_
FN:313,_ZSt12__niter_baseIPmET_S1_
FNDA:21,_ZSt12__niter_baseIPmET_S1_
FN:313,_ZSt12__niter_baseIPiET_S1_
FNDA:42,_ZSt12__niter_baseIPiET_S1_
FN:313,_ZSt12__niter_baseIPPmET_S2_
FNDA:0,_ZSt12__niter_baseIPPmET_S2_
FN:335,_ZSt12__niter_wrapIPmET_RKS1_S1_
FNDA:21,_ZSt12__niter_wrapIPmET_RKS1_S1_
FN:335,_ZSt12__niter_wrapIPPmET_RKS2_S2_
FNDA:0,_ZSt12__niter_wrapIPPmET_RKS2_S2_
FN:420,_ZNSt11__copy_moveILb0ELb1ESt26random_access_iterator_tagE8__copy_mIPmEEPT_PKS4_S7_S5_
FNDA:0,_ZNSt11__copy_moveILb0ELb1ESt26random_access_iterator_tagE8__copy_mIPmEEPT_PKS4_S7_S5_
FN:420,_ZNSt11__copy_moveILb0ELb1ESt26random_access_iterator_tagE8__copy_mImEEPT_PKS3_S6_S4_
FNDA:21,_ZNSt11__copy_moveILb0ELb1ESt26random_access_iterator_tagE8__copy_mImEEPT_PKS3_S6_S4_
FN:486,_ZSt14__copy_move_a2ILb0EPKmPmET1_T0_S4_S3_
FNDA:21,_ZSt14__copy_move_a2ILb0EPKmPmET1_T0_S4_S3_
FN:486,_ZSt14__copy_move_a2ILb0EPPmS1_ET1_T0_S3_S2_
FNDA:0,_ZSt14__copy_move_a2ILb0EPPmS1_ET1_T0_S3_S2_
FN:521,_ZSt14__copy_move_a1ILb0EPKmPmET1_T0_S4_S3_
FNDA:21,_ZSt14__copy_move_a1ILb0EPKmPmET1_T0_S4_S3_
FN:521,_ZSt14__copy_move_a1ILb0EPPmS1_ET1_T0_S3_S2_
FNDA:0,_ZSt14__copy_move_a1ILb0EPPmS1_ET1_T0_S3_S2_
FN:527,_ZSt13__copy_move_aILb0EPPmS1_ET1_T0_S3_S2_
FNDA:0,_ZSt13__copy_move_aILb0EPPmS1_ET1_T0_S3_S2_
FN:527,_ZSt13__copy_move_aILb0EN9__gnu_cxx17__normal_iteratorIPKmSt6vectorImSaImEEEEPmET1_T0_SA_S9_
FNDA:21,_ZSt13__copy_move_aILb0EN9__gnu_cxx17__normal_iteratorIPKmSt6vectorImSaImEEEEPmET1_T0_SA_S9_
FN:611,_ZSt4copyIN9__gnu_cxx17__normal_iteratorIPKmSt6vectorImSaImEEEEPmET0_T_SA_S9_
FNDA:21,_ZSt4copyIN9__gnu_cxx17__normal_iteratorIPKmSt6vectorImSaImEEEEPmET0_T_SA_S9_
FN:611,_ZSt4copyIPPmS1_ET0_T_S3_S2_
FNDA:0,_ZSt4copyIPPmS1_ET0_T_S3_S2_
FN:731,_ZNSt20__copy_move_backwardILb0ELb1ESt26random_access_iterator_tagE13__copy_move_bIPmEEPT_PKS4_S7_S5_
FNDA:0,_ZNSt20__copy_move_backwardILb0ELb1ESt26random_access_iterator_tagE13__copy_move_bIPmEEPT_PKS4_S7_S5_
FN:750,_ZSt23__copy_move_backward_a2ILb0EPPmS1_ET1_T0_S3_S2_
FNDA:0,_ZSt23__copy_move_backward_a2ILb0EPPmS1_ET1_T0_S3_S2_
FN:768,_ZSt23__copy_move_backward_a1ILb0EPPmS1_ET1_T0_S3_S2_
FNDA:0,_ZSt23__copy_move_backward_a1ILb0EPPmS1_ET1_T0_S3_S2_
FN:796,_ZSt22__copy_move_backward_aILb0EPPmS1_ET1_T0_S3_S2_
FNDA:0,_ZSt22__copy_move_backward_aILb0EPPmS1_ET1_T0_S3_S2_
FN:848,_ZSt13copy_backwardIPPmS1_ET0_T_S3_S2_
FNDA:0,_ZSt13copy_backwardIPPmS1_ET0_T_S3_S2_
FN:919,_ZSt9__fill_a1IPmmEN9__gnu_cxx11__enable_ifIXsrSt11__is_scalarIT0_E7__valueEvE6__typeET_S8_RKS4_
FNDA:3,_ZSt9__fill_a1IPmmEN9__gnu_cxx11__enable_ifIXsrSt11__is_scalarIT0_E7__valueEvE6__typeET_S8_RKS4_
FN:968,_ZSt8__fill_aIPmmEvT_S1_RKT0_
FNDA:3,_ZSt8__fill_aIPmmEvT_S1_RKT0_
FN:1010,_ZSt17__size_to_integerm
FNDA:5,_ZSt17__size_to_integerm
FN:1109,_ZSt10__fill_n_aIPmmmET_S1_T0_RKT1_St26random_access_iterator_tag
FNDA:3,_ZSt10__fill_n_aIPmmmET_S1_T0_RKT1_St26random_access_iterator_tag
FN:1144,_ZSt6fill_nIPmmmET_S1_T0_RKT1_
FNDA:3,_ZSt6fill_nIPmmmET_S1_T0_RKT1_
DA:230,96
DA:235,96
DA:236,0
DA:237,96
DA:254,80
DA:259,80
DA:260,18
DA:261,62
DA:313,21
DA:315,21
DA:313,0
DA:315,0
DA:313,42
DA:315,42
DA:335,21
DA:336,21
DA:335,0
DA:336,0
DA:420,21
DA:429,21
DA:430,21
DA:431,21
DA:432,21
DA:420,0
DA:429,0
DA:430,0
DA:431,0
DA:432,0
DA:486,21
DA:495,21
DA:486,0
DA:495,0
DA:521,21
DA:522,21
DA:521,0
DA:522,0
DA:527,21
DA:529,21
DA:532,21
DA:527,0
DA:529,0
DA:532,0
DA:611,21
DA:620,21
DA:611,0
DA:620,0
DA:731,0
DA:740,0
DA:741,0
DA:742,0
DA:743,0
DA:750,0
DA:760,0
DA:762,0
DA:768,0
DA:769,0
DA:796,0
DA:798,0
DA:801,0
DA:848,0
DA:859,0
DA:919,3
DA:922,3
DA:923,12
DA:924,9
DA:925,3
DA:968,3
DA:969,3
DA:1010,5
DA:1109,3
DA:1115,3
DA:1116,0
DA:1120,3
DA:1121,3
DA:1144,3
DA:1149,3
DA:1150,6
end_of_record
SF:/home/imri/OS-FinalProject/GraphObj/vertex.hpp
FN:29,_ZN6VertexC2Ev
FNDA:7,_ZN6VertexC2Ev
FN:78,_ZNKSt4hashI6VertexEclERKS0_
FNDA:12,_ZNKSt4hashI6VertexEclERKS0_
DA:29,7
DA:78,12
DA:80,12
end_of_record
SF:/usr/include/c++/11/bits/vector.tcc
FN:109,_ZNSt6vectorIiSaIiEE12emplace_backIJiEEERiDpOT_
FNDA:7,_ZNSt6vectorIiSaIiEE12emplace_backIJiEEERiDpOT_
FN:426,_ZNSt6vectorIiSaIiEE17_M_realloc_insertIJiEEEvN9__gnu_cxx17__normal_iteratorIPiS1_EEDpOT_
FNDA:7,_ZNSt6vectorIiSaIiEE17_M_realloc_insertIJiEEEvN9__gnu_cxx17__normal_iteratorIPiS1_EEDpOT_
DA:109,7
DA:112,7
DA:115,0
DA:117,0
DA:121,7
DA:123,7
DA:426,7
DA:436,7
DA:437,7
DA:438,7
DA:439,7
DA:440,7
DA:441,7
DA:449,7
DA:450,7
DA:456,7
DA:461,7
DA:462,7
DA:464,7
DA:466,7
DA:467,7
DA:500,7
DA:501,7
DA:502,7
DA:503,7
DA:504,7
DA:505,7
end_of_record
SF:/usr/include/c++/11/tuple
FN:192,_ZNSt10_Head_baseILm0ERSt6vectorIS0_ImSaImEESaIS2_EELb0EEC2ES5_
FNDA:1,_ZNSt10_Head_baseILm0ERSt6vectorIS0_ImSaImEESaIS2_EELb0EEC2ES5_
FN:192,_ZNSt10_Head_baseILm1ERSt6vectorIS0_ImSaImEESaIS2_EELb0EEC2ES5_
FNDA:1,_ZNSt10_Head_baseILm1ERSt6vectorIS0_ImSaImEESaIS2_EELb0EEC2ES5_
FN:192,_ZNSt10_Head_baseILm0ERKmLb0EEC2ES1_
FNDA:8,_ZNSt10_Head_baseILm0ERKmLb0EEC2ES1_
FN:192,_ZNSt10_Head_baseILm0ERKiLb0EEC2ES1_
FNDA:5,_ZNSt10_Head_baseILm0ERKiLb0EEC2ES1_
FN:199,_ZNSt10_Head_baseILm0EOiLb0EEC2IiEEOT_
FNDA:4,_ZNSt10_Head_baseILm0EOiLb0EEC2IiEEOT_
FN:233,_ZNSt10_Head_baseILm0ERKiLb0EE7_M_headERS2_
FNDA:5,_ZNSt10_Head_baseILm0ERKiLb0EE7_M_headERS2_
FN:233,_ZNSt10_Head_baseILm0EOiLb0EE7_M_headERS1_
FNDA:4,_ZNSt10_Head_baseILm0EOiLb0EE7_M_headERS1_
FN:233,_ZNSt10_Head_baseILm0ERKmLb0EE7_M_headERS2_
FNDA:8,_ZNSt10_Head_baseILm0ERKmLb0EE7_M_headERS2_
FN:233,_ZNSt10_Head_baseILm1ERSt6vectorIS0_ImSaImEESaIS2_EELb0EE7_M_headERS6_
FNDA:1,_ZNSt10_Head_baseILm1ERSt6vectorIS0_ImSaImEESaIS2_EELb0EE7_M_headERS6_
FN:233,_ZNSt10_Head_baseILm0ERSt6vectorIS0_ImSaImEESaIS2_EELb0EE7_M_headERS6_
FNDA:1,_ZNSt10_Head_baseILm0ERSt6vectorIS0_ImSaImEESaIS2_EELb0EE7_M_headERS6_
FN:268,_ZNSt11_Tuple_implILm0EJRSt6vectorIS0_ImSaImEESaIS2_EES5_EE7_M_headERS6_
FNDA:1,_ZNSt11_Tuple_implILm0EJRSt6vectorIS0_ImSaImEESaIS2_EES5_EE7_M_headERS6_
FN:274,_ZNSt11_Tuple_implILm0EJRSt6vectorIS0_ImSaImEESaIS2_EES5_EE7_M_tailERS6_
FNDA:1,_ZNSt11_Tuple_implILm0EJRSt6vectorIS0_ImSaImEESaIS2_EES5_EE7_M_tailERS6_
FN:283,_ZNSt11_Tuple_implILm0EJRSt6vectorIS0_ImSaImEESaIS2_EES5_EEC2ES5_S5_
FNDA:1,_ZNSt11_Tuple_implILm0EJRSt6vectorIS0_ImSaImEESaIS2_EES5_EEC2ES5_S5_
FN:424,_ZNSt11_Tuple_implILm1EJRSt6vectorIS0_ImSaImEESaIS2_EEEE7_M_headERS6_
FNDA:1,_ZNSt11_Tuple_implILm1EJRSt6vectorIS0_ImSaImEESaIS2_EEEE7_M_headERS6_
FN:424,_ZNSt11_Tuple_implILm0EJOiEE7_M_headERS1_
FNDA:4,_ZNSt11_Tuple_implILm0EJOiEE7_M_headERS1_
FN:424,_ZNSt11_Tuple_implILm0EJRKiEE7_M_headERS2_
FNDA:5,_ZNSt11_Tuple_implILm0EJRKiEE7_M_headERS2_
FN:424,_ZNSt11_Tuple_implILm0EJRKmEE7_M_headERS2_
FNDA:8,_ZNSt11_Tuple_implILm0EJRKmEE7_M_headERS2_
FN:434,_ZNSt11_Tuple_implILm0EJRKmEEC2ES1_
FNDA:8,_ZNSt11_Tuple_implILm0EJRKmEEC2ES1_
FN:434,_ZNSt11_Tuple_implILm0EJRKiEEC2ES1_
FNDA:5,_ZNSt11_Tuple_implILm0EJRKiEEC2ES1_
FN:434,_ZNSt11_Tuple_implILm1EJRSt6vectorIS0_ImSaImEESaIS2_EEEEC2ES5_
FNDA:1,_ZNSt11_Tuple_implILm1EJRSt6vectorIS0_ImSaImEESaIS2_EEEEC2ES5_
FN:440,_ZNSt11_Tuple_implILm0EJOiEEC2IiEEOT_
FNDA:4,_ZNSt11_Tuple_implILm0EJOiEEC2IiEEOT_
FN:454,_ZNSt11_Tuple_implILm0EJRKmEEC2EOS2_
FNDA:8,_ZNSt11_Tuple_implILm0EJRKmEEC2EOS2_
FN:454,_ZNSt11_Tuple_implILm0EJRKiEEC2EOS2_
FNDA:5,_ZNSt11_Tuple_implILm0EJRKiEEC2EOS2_
FN:454,_ZNSt11_Tuple_implILm0EJOiEEC2EOS1_
FNDA:4,_ZNSt11_Tuple_implILm0EJOiEEC2EOS1_
FN:727,_ZNSt5tupleIJRKmEEC2ILb1ELb1EEES1_
FNDA:8,_ZNSt5tupleIJRKmEEC2ILb1ELb1EEES1_
FN:727,_ZNSt5tupleIJRKiEEC2ILb1ELb1EEES1_
FNDA:5,_ZNSt5tupleIJRKiEEC2ILb1ELb1EEES1_
FN:742,_ZNSt5tupleIJOiEEC2IJiELb1ELb1EEEDpOT_
FNDA:4,_ZNSt5tupleIJOiEEC2IJiELb1ELb1EEEDpOT_
FN:756,_ZNSt5tupleIJOiEEC2EOS1_
FNDA:4,_ZNSt5tupleIJOiEEC2EOS1_
FN:756,_ZNSt5tupleIJRKmEEC2EOS2_
FNDA:8,_ZNSt5tupleIJRKmEEC2EOS2_
FN:756,_ZNSt5tupleIJRKiEEC2EOS2_
FNDA:5,_ZNSt5tupleIJRKiEEC2EOS2_
FN:1063,_ZNSt5tupleIJRSt6vectorIS0_ImSaImEESaIS2_EES5_EEC2ILb1ELb1EEES5_S5_
FNDA:1,_ZNSt5tupleIJRSt6vectorIS0_ImSaImEESaIS2_EES5_EEC2ILb1ELb1EEES5_S5_
FN:1321,_ZNSt5tupleIJRSt6vectorIS0_ImSaImEESaIS2_EES5_EEaSIS4_S4_EENSt9enable_ifIXcl12__assignableIT_T0_EEERS6_E4typeEOSt4pairIS9_SA_E
FNDA:1,_ZNSt5tupleIJRSt6vectorIS0_ImSaImEESaIS2_EES5_EEaSIS4_S4_EENSt9enable_ifIXcl12__assignableIT_T0_EEERS6_E4typeEOSt4pairIS9_SA_E
FN:1377,_ZSt12__get_helperILm0ERKmJEERT0_RSt11_Tuple_implIXT_EJS2_DpT1_EE
FNDA:8,_ZSt12__get_helperILm0ERKmJEERT0_RSt11_Tuple_implIXT_EJS2_DpT1_EE
FN:1377,_ZSt12__get_helperILm0ERKiJEERT0_RSt11_Tuple_implIXT_EJS2_DpT1_EE
FNDA:5,_ZSt12__get_helperILm0ERKiJEERT0_RSt11_Tuple_implIXT_EJS2_DpT1_EE
FN:1377,_ZSt12__get_helperILm0EOiJEERT0_RSt11_Tuple_implIXT_EJS1_DpT1_EE
FNDA:4,_ZSt12__get_helperILm0EOiJEERT0_RSt11_Tuple_implIXT_EJS1_DpT1_EE
FN:1393,_ZSt3getILm0EJRKiEERNSt13tuple_elementIXT_ESt5tupleIJDpT0_EEE4typeERS6_
FNDA:5,_ZSt3getILm0EJRKiEERNSt13tuple_elementIXT_ESt5tupleIJDpT0_EEE4typeERS6_
FN:1393,_ZSt3getILm0EJRKmEERNSt13tuple_elementIXT_ESt5tupleIJDpT0_EEE4typeERS6_
FNDA:8,_ZSt3getILm0EJRKmEERNSt13tuple_elementIXT_ESt5tupleIJDpT0_EEE4typeERS6_
FN:1393,_ZSt3getILm0EJOiEERNSt13tuple_elementIXT_ESt5tupleIJDpT0_EEE4typeERS5_
FNDA:4,_ZSt3getILm0EJOiEERNSt13tuple_elementIXT_ESt5tupleIJDpT0_EEE4typeERS5_
FN:1617,_ZSt16forward_as_tupleIJiEESt5tupleIJDpOT_EES3_
FNDA:4,_ZSt16forward_as_tupleIJiEESt5tupleIJDpOT_EES3_
FN:1746,_ZSt3tieIJSt6vectorIS0_ImSaImEESaIS2_EES4_EESt5tupleIJDpRT_EES8_
FNDA:1,_ZSt3tieIJSt6vectorIS0_ImSaImEESaIS2_EES4_EESt5tupleIJDpRT_EES8_
FN:1804,_ZNSt4pairIKmmEC2IJRS0_EJEEESt21piecewise_construct_tSt5tupleIJDpT_EES5_IJDpT0_EE
FNDA:8,_ZNSt4pairIKmmEC2IJRS0_EJEEESt21piecewise_construct_tSt5tupleIJDpT_EES5_IJDpT0_EE
FN:1804,_ZNSt4pairIKi6VertexEC2IJRS0_EJEEESt21piecewise_construct_tSt5tupleIJDpT_EES6_IJDpT0_EE
FNDA:3,_ZNSt4pairIKi6VertexEC2IJRS0_EJEEESt21piecewise_construct_tSt5tupleIJDpT_EES6_IJDpT0_EE
FN:1804,_ZNSt4pairIKi6VertexEC2IJOiEJEEESt21piecewise_construct_tSt5tupleIJDpT_EES6_IJDpT0_EE
FNDA:4,_ZNSt4pairIKi6VertexEC2IJOiEJEEESt21piecewise_construct_tSt5tupleIJDpT_EES6_IJDpT0_EE
FN:1816,_ZNSt4pairIKmmEC2IJRS0_EJLm0EEJEJEEERSt5tupleIJDpT_EERS4_IJDpT1_EESt12_Index_tupleIJXspT0_EEESD_IJXspT2_EEE
FNDA:8,_ZNSt4pairIKmmEC2IJRS0_EJLm0EEJEJEEERSt5tupleIJDpT_EERS4_IJDpT1_EESt12_Index_tupleIJXspT0_EEESD_IJXspT2_EEE
FN:1816,_ZNSt4pairIKi6VertexEC2IJRS0_EJLm0EEJEJEEERSt5tupleIJDpT_EERS5_IJDpT1_EESt12_Index_tupleIJXspT0_EEESE_IJXspT2_EEE
FNDA:3,_ZNSt4pairIKi6VertexEC2IJRS0_EJLm0EEJEJEEERSt5tupleIJDpT_EERS5_IJDpT1_EESt12_Index_tupleIJXspT0_EEESE_IJXspT2_EEE
FN:1816,_ZNSt4pairIKi6VertexEC2IJOiEJLm0EEJEJEEERSt5tupleIJDpT_EERS5_IJDpT1_EESt12_Index_tupleIJXspT0_EEESE_IJXspT2_EEE
FNDA:4,_ZNSt4pairIKi6VertexEC2IJOiEJLm0EEJEJEEERSt5tupleIJDpT_EERS5_IJDpT1_EESt12_Index_tupleIJXspT0_EEESE_IJXspT2_EEE
DA:192,1
DA:193,1
DA:192,1
DA:193,1
DA:192,8
DA:193,8
DA:192,5
DA:193,5
DA:199,4
DA:200,4
DA:233,8
DA:233,5
DA:233,4
DA:233,1
DA:233,1
DA:268,1
DA:274,1
DA:283,1
DA:284,1
DA:285,1
DA:424,8
DA:424,5
DA:424,4
DA:424,1
DA:434,1
DA:435,1
DA:436,1
DA:434,8
DA:435,8
DA:436,8
DA:434,5
DA:435,5
DA:436,5
DA:440,4
DA:441,4
DA:442,4
DA:454,8
DA:456,8
DA:457,8
DA:454,5
DA:456,5
DA:457,5
DA:454,4
DA:456,4
DA:457,4
DA:727,8
DA:729,8
DA:727,5
DA:729,5
DA:742,4
DA:744,4
DA:756,8
DA:756,5
DA:756,4
DA:1063,1
DA:1065,1
DA:1321,1
DA:1324,1
DA:1325,1
DA:1326,1
DA:1377,8
DA:1378,8
DA:1377,5
DA:1378,5
DA:1377,4
DA:1378,4
DA:1393,8
DA:1394,8
DA:1393,5
DA:1394,5
DA:1393,4
DA:1394,4
DA:1617,4
DA:1618,4
DA:1746,1
DA:1747,1
DA:1804,8
DA:1809,8
DA:1810,8
DA:1804,3
DA:1809,3
DA:1810,3
DA:1804,4
DA:1809,4
DA:1810,4
DA:1816,8
DA:1819,8
DA:1820,8
DA:1821,8
DA:1816,3
DA:1819,3
DA:1820,3
DA:1821,3
DA:1816,4
DA:1819,4
DA:1820,4
DA:1821,4
end_of_record
SF:/usr/include/c++/11/ext/type_traits.h
FN:152,_ZN9__gnu_cxx17__is_null_pointerIcEEbPT_
FNDA:60,_ZN9__gnu_cxx17__is_null_pointerIcEEbPT_
FN:152,_ZN9__gnu_cxx17__is_null_pointerIKcEEbPT_
FNDA:41,_ZN9__gnu_cxx17__is_null_pointerIKcEEbPT_
DA:152,60
DA:153,60
DA:152,41
DA:153,41
end_of_record
SF:/usr/include/c++/11/ext/aligned_buffer.h
FN:64,_ZN9__gnu_cxx16__aligned_membufISt4pairIKmmEE7_M_addrEv
FNDA:0,_ZN9__gnu_cxx16__aligned_membufISt4pairIKmmEE7_M_addrEv
FN:64,_ZN9__gnu_cxx16__aligned_membufISt4pairIKi6VertexEE7_M_addrEv
FNDA:113,_ZN9__gnu_cxx16__aligned_membufISt4pairIKi6VertexEE7_M_addrEv
FN:68,_ZNK9__gnu_cxx16__aligned_membufISt4pairIKmmEE7_M_addrEv
FNDA:16,_ZNK9__gnu_cxx16__aligned_membufISt4pairIKmmEE7_M_addrEv
FN:68,_ZNK9__gnu_cxx16__aligned_membufISt4pairIKi6VertexEE7_M_addrEv
FNDA:108,_ZNK9__gnu_cxx16__aligned_membufISt4pairIKi6VertexEE7_M_addrEv
FN:72,_ZN9__gnu_cxx16__aligned_membufISt4pairIKmmEE6_M_ptrEv
FNDA:0,_ZN9__gnu_cxx16__aligned_membufISt4pairIKmmEE6_M_ptrEv
FN:72,_ZN9__gnu_cxx16__aligned_membufISt4pairIKi6VertexEE6_M_ptrEv
FNDA:113,_ZN9__gnu_cxx16__aligned_membufISt4pairIKi6VertexEE6_M_ptrEv
FN:76,_ZNK9__gnu_cxx16__aligned_membufISt4pairIKmmEE6_M_ptrEv
FNDA:16,_ZNK9__gnu_cxx16__aligned_membufISt4pairIKmmEE6_M_ptrEv
FN:76,_ZNK9__gnu_cxx16__aligned_membufISt4pairIKi6VertexEE6_M_ptrEv
FNDA:108,_ZNK9__gnu_cxx16__aligned_membufISt4pairIKi6VertexEE6_M_ptrEv
FN:102,_ZN9__gnu_cxx16__aligned_bufferI4EdgeE7_M_addrEv
FNDA:14,_ZN9__gnu_cxx16__aligned_bufferI4EdgeE7_M_addrEv
FN:102,_ZN9__gnu_cxx16__aligned_bufferI6VertexE7_M_addrEv
FNDA:28,_ZN9__gnu_cxx16__aligned_bufferI6VertexE7_M_addrEv
FN:108,_ZNK9__gnu_cxx16__aligned_bufferI4EdgeE7_M_addrEv
FNDA:0,_ZNK9__gnu_cxx16__aligned_bufferI4EdgeE7_M_addrEv
FN:108,_ZNK9__gnu_cxx16__aligned_bufferI6VertexE7_M_addrEv
FNDA:0,_ZNK9__gnu_cxx16__aligned_bufferI6VertexE7_M_addrEv
FN:114,_ZN9__gnu_cxx16__aligned_bufferI4EdgeE6_M_ptrEv
FNDA:14,_ZN9__gnu_cxx16__aligned_bufferI4EdgeE6_M_ptrEv
FN:114,_ZN9__gnu_cxx16__aligned_bufferI6VertexE6_M_ptrEv
FNDA:28,_ZN9__gnu_cxx16__aligned_bufferI6VertexE6_M_ptrEv
FN:118,_ZNK9__gnu_cxx16__aligned_bufferI4EdgeE6_M_ptrEv
FNDA:0,_ZNK9__gnu_cxx16__aligned_bufferI4EdgeE6_M_ptrEv
FN:118,_ZNK9__gnu_cxx16__aligned_bufferI6VertexE6_M_ptrEv
FNDA:0,_ZNK9__gnu_cxx16__aligned_bufferI6VertexE6_M_ptrEv
DA:64,0
DA:65,0
DA:64,113
DA:65,113
DA:68,16
DA:69,16
DA:68,108
DA:69,108
DA:72,0
DA:73,0
DA:72,113
DA:73,113
DA:76,16
DA:77,16
DA:76,108
DA:77,108
DA:102,14
DA:104,14
DA:102,28
DA:104,28
DA:108,0
DA:110,0
DA:108,0
DA:110,0
DA:114,14
DA:115,14
DA:114,28
DA:115,28
DA:118,0
DA:119,0
DA:118,0
DA:119,0
end_of_record
SF:/usr/include/c++/11/bits/basic_string.tcc
FN:206,_ZNSt7__cxx1112basic_stringIcSt11char_traitsIcESaIcEE12_M_constructIPcEEvT_S7_St20forward_iterator_tag
FNDA:60,_ZNSt7__cxx1112basic_stringIcSt11char_traitsIcESaIcEE12_M_constructIPcEEvT_S7_St20forward_iterator_tag
FN:206,_ZNSt7__cxx1112basic_stringIcSt11char_traitsIcESaIcEE12_M_constructIPKcEEvT_S8_St20forward_iterator_tag
FNDA:41,_ZNSt7__cxx1112basic_stringIcSt11char_traitsIcESaIcEE12_M_constructIPKcEEvT_S8_St20forward_iterator_tag
DA:206,60
DA:211,60
DA:212,0
DA:215,60
DA:217,60
DA:219,5
DA:220,5
DA:225,60
DA:226,0
DA:228,0
DA:229,0
DA:232,60
DA:233,60
DA:206,41
DA:211,41
DA:212,0
DA:215,41
DA:217,41
DA:219,3
DA:220,3
DA:225,41
DA:226,0
DA:228,0
DA:229,0
DA:232,41
DA:233,41
end_of_record
SF:/usr/include/c++/11/ext/alloc_traits.h
FN:97,_ZN9__gnu_cxx14__alloc_traitsISaImEmE17_S_select_on_copyERKS1_
FNDA:21,_ZN9__gnu_cxx14__alloc_traitsISaImEmE17_S_select_on_copyERKS1_
FN:97,_ZN9__gnu_cxx14__alloc_traitsISaISt6vectorImSaImEEES3_E17_S_select_on_copyERKS4_
FNDA:4,_ZN9__gnu_cxx14__alloc_traitsISaISt6vectorImSaImEEES3_E17_S_select_on_copyERKS4_
FN:97,_ZN9__gnu_cxx14__alloc_traitsISaISt13_Rb_tree_nodeISt4pairIKmmEEES5_E17_S_select_on_copyERKS6_
FNDA:0,_ZN9__gnu_cxx14__alloc_traitsISaISt13_Rb_tree_nodeISt4pairIKmmEEES5_E17_S_select_on_copyERKS6_
FN:97,_ZN9__gnu_cxx14__alloc_traitsISaIcEcE17_S_select_on_copyERKS1_
FNDA:0,_ZN9__gnu_cxx14__alloc_traitsISaIcEcE17_S_select_on_copyERKS1_
FN:97,_ZN9__gnu_cxx14__alloc_traitsISaI4EdgeES1_E17_S_select_on_copyERKS2_
FNDA:0,_ZN9__gnu_cxx14__alloc_traitsISaI4EdgeES1_E17_S_select_on_copyERKS2_
DA:97,21
DA:98,21
DA:97,4
DA:98,4
DA:97,0
DA:98,0
DA:97,0
DA:98,0
DA:97,0
DA:98,0
end_of_record
SF:/usr/include/c++/11/bits/hashtable_policy.h
FN:85,_ZNKSt8__detail9_IdentityclIRK4EdgeEEOT_S6_
FNDA:4,_ZNKSt8__detail9_IdentityclIRK4EdgeEEOT_S6_
FN:85,_ZNKSt8__detail9_IdentityclIRK6VertexEEOT_S6_
FNDA:0,_ZNKSt8__detail9_IdentityclIRK6VertexEEOT_S6_
FN:162,_ZNSt8__detail10_AllocNodeISaINS_10_Hash_nodeI4EdgeLb1EEEEEC2ERNS_16_Hashtable_allocIS4_EE
FNDA:4,_ZNSt8__detail10_AllocNodeISaINS_10_Hash_nodeI4EdgeLb1EEEEEC2ERNS_16_Hashtable_allocIS4_EE
FN:167,_ZNKSt8__detail10_AllocNodeISaINS_10_Hash_nodeI4EdgeLb1EEEEEclIRKS2_EEPS3_OT_
FNDA:4,_ZNKSt8__detail10_AllocNodeISaINS_10_Hash_nodeI4EdgeLb1EEEEEclIRKS2_EEPS3_OT_
FN:219,_ZNSt8__detail15_Hash_node_baseC2Ev
FNDA:19,_ZNSt8__detail15_Hash_node_baseC2Ev
FN:237,_ZNSt8__detail21_Hash_node_value_baseI6VertexE9_M_valptrEv
FNDA:28,_ZNSt8__detail21_Hash_node_value_baseI6VertexE9_M_valptrEv
FN:237,_ZNSt8__detail21_Hash_node_value_baseI4EdgeE9_M_valptrEv
FNDA:14,_ZNSt8__detail21_Hash_node_value_baseI4EdgeE9_M_valptrEv
FN:241,_ZNKSt8__detail21_Hash_node_value_baseI4EdgeE9_M_valptrEv
FNDA:0,_ZNKSt8__detail21_Hash_node_value_baseI4EdgeE9_M_valptrEv
FN:241,_ZNKSt8__detail21_Hash_node_value_baseI6VertexE9_M_valptrEv
FNDA:0,_ZNKSt8__detail21_Hash_node_value_baseI6VertexE9_M_valptrEv
FN:245,_ZNSt8__detail21_Hash_node_value_baseI4EdgeE4_M_vEv
FNDA:6,_ZNSt8__detail21_Hash_node_value_baseI4EdgeE4_M_vEv
FN:245,_ZNSt8__detail21_Hash_node_value_baseI6VertexE4_M_vEv
FNDA:12,_ZNSt8__detail21_Hash_node_value_baseI6VertexE4_M_vEv
FN:249,_ZNKSt8__detail21_Hash_node_value_baseI6VertexE4_M_vEv
FNDA:0,_ZNKSt8__detail21_Hash_node_value_baseI6VertexE4_M_vEv
FN:249,_ZNKSt8__detail21_Hash_node_value_baseI4EdgeE4_M_vEv
FNDA:0,_ZNKSt8__detail21_Hash_node_value_baseI4EdgeE4_M_vEv
FN:282,_ZNKSt8__detail10_Hash_nodeI4EdgeLb1EE7_M_nextEv
FNDA:12,_ZNKSt8__detail10_Hash_nodeI4EdgeLb1EE7_M_nextEv
FN:282,_ZNKSt8__detail10_Hash_nodeI6VertexLb1EE7_M_nextEv
FNDA:22,_ZNKSt8__detail10_Hash_nodeI6VertexLb1EE7_M_nextEv
FN:295,_ZNSt8__detail19_Node_iterator_baseI6VertexLb1EEC2EPNS_10_Hash_nodeIS1_Lb1EEE
FNDA:12,_ZNSt8__detail19_Node_iterator_baseI6VertexLb1EEC2EPNS_10_Hash_nodeIS1_Lb1EEE
FN:295,_ZNSt8__detail19_Node_iterator_baseI4EdgeLb1EEC2EPNS_10_Hash_nodeIS1_Lb1EEE
FNDA:10,_ZNSt8__detail19_Node_iterator_baseI4EdgeLb1EEC2EPNS_10_Hash_nodeIS1_Lb1EEE
FN:299,_ZNSt8__detail19_Node_iterator_baseI6VertexLb1EE7_M_incrEv
FNDA:8,_ZNSt8__detail19_Node_iterator_baseI6VertexLb1EE7_M_incrEv
FN:299,_ZNSt8__detail19_Node_iterator_baseI4EdgeLb1EE7_M_incrEv
FNDA:6,_ZNSt8__detail19_Node_iterator_baseI4EdgeLb1EE7_M_incrEv
FN:309,_ZNSt8__detailneERKNS_19_Node_iterator_baseI4EdgeLb1EEES4_
FNDA:9,_ZNSt8__detailneERKNS_19_Node_iterator_baseI4EdgeLb1EEES4_
FN:309,_ZNSt8__detailneERKNS_19_Node_iterator_baseI6VertexLb1EEES4_
FNDA:12,_ZNSt8__detailneERKNS_19_Node_iterator_baseI6VertexLb1EEES4_
FN:338,_ZNSt8__detail14_Node_iteratorI4EdgeLb1ELb1EEC2EPNS_10_Hash_nodeIS1_Lb1EEE
FNDA:4,_ZNSt8__detail14_Node_iteratorI4EdgeLb1ELb1EEC2EPNS_10_Hash_nodeIS1_Lb1EEE
FN:338,_ZNSt8__detail14_Node_iteratorI6VertexLb1ELb1EEC2EPNS_10_Hash_nodeIS1_Lb1EEE
FNDA:12,_ZNSt8__detail14_Node_iteratorI6VertexLb1ELb1EEC2EPNS_10_Hash_nodeIS1_Lb1EEE
FN:342,_ZNKSt8__detail14_Node_iteratorI6VertexLb1ELb1EEdeEv
FNDA:8,_ZNKSt8__detail14_Node_iteratorI6VertexLb1ELb1EEdeEv
FN:350,_ZNSt8__detail14_Node_iteratorI6VertexLb1ELb1EEppEv
FNDA:8,_ZNSt8__detail14_Node_iteratorI6VertexLb1ELb1EEppEv
FN:385,_ZNSt8__detail20_Node_const_iteratorI4EdgeLb1ELb1EEC2EPNS_10_Hash_nodeIS1_Lb1EEE
FNDA:6,_ZNSt8__detail20_Node_const_iteratorI4EdgeLb1ELb1EEC2EPNS_10_Hash_nodeIS1_Lb1EEE
FN:393,_ZNKSt8__detail20_Node_const_iteratorI4EdgeLb1ELb1EEdeEv
FNDA:6,_ZNKSt8__detail20_Node_const_iteratorI4EdgeLb1ELb1EEdeEv
FN:401,_ZNSt8__detail20_Node_const_iteratorI4EdgeLb1ELb1EEppEv
FNDA:6,_ZNSt8__detail20_Node_const_iteratorI4EdgeLb1ELb1EEppEv
FN:428,_ZNKSt8__detail18_Mod_range_hashingclEmm
FNDA:20,_ZNKSt8__detail18_Mod_range_hashingclEmm
FN:446,_ZNSt8__detail20_Prime_rehash_policyC2Ef
FNDA:5,_ZNSt8__detail20_Prime_rehash_policyC2Ef
FN:473,_ZNKSt8__detail20_Prime_rehash_policy8_M_stateEv
FNDA:8,_ZNKSt8__detail20_Prime_rehash_policy8_M_stateEv
FN:481,_ZNSt8__detail20_Prime_rehash_policy8_M_resetEm
FNDA:0,_ZNSt8__detail20_Prime_rehash_policy8_M_resetEm
FN:815,_ZNSt8__detail12_Insert_baseI4EdgeS1_SaIS1_ENS_9_IdentityESt8equal_toIS1_ESt4hashIS1_ENS_18_Mod_range_hashingENS_20_Default_ranged_hashENS_20_Prime_rehash_policyENS_17_Hashtable_traitsILb1ELb1ELb1EEEE20_M_conjure_hashtableEv
FNDA:4,_ZNSt8__detail12_Insert_baseI4EdgeS1_SaIS1_ENS_9_IdentityESt8equal_toIS1_ESt4hashIS1_ENS_18_Mod_range_hashingENS_20_Default_ranged_hashENS_20_Prime_rehash_policyENS_17_Hashtable_traitsILb1ELb1ELb1EEEE20_M_conjure_hashtableEv
FN:840,_ZNSt8__detail12_Insert_baseI4EdgeS1_SaIS1_ENS_9_IdentityESt8equal_toIS1_ESt4hashIS1_ENS_18_Mod_range_hashingENS_20_Default_ranged_hashENS_20_Prime_rehash_policyENS_17_Hashtable_traitsILb1ELb1ELb1EEEE6insertERKS1_
FNDA:4,_ZNSt8__detail12_Insert_baseI4EdgeS1_SaIS1_ENS_9_IdentityESt8equal_toIS1_ESt4hashIS1_ENS_18_Mod_range_hashingENS_20_Default_ranged_hashENS_20_Prime_rehash_policyENS_17_Hashtable_traitsILb1ELb1ELb1EEEE6insertERKS1_
FN:1127,_ZNSt8__detail21_Hashtable_ebo_helperILi1ESt4hashI4EdgeELb1EEC2Ev
FNDA:3,_ZNSt8__detail21_Hashtable_ebo_helperILi1ESt4hashI4EdgeELb1EEC2Ev
FN:1127,_ZNSt8__detail21_Hashtable_ebo_helperILi0ESt8equal_toI4EdgeELb1EEC2Ev
FNDA:3,_ZNSt8__detail21_Hashtable_ebo_helperILi0ESt8equal_toI4EdgeELb1EEC2Ev
FN:1127,_ZNSt8__detail21_Hashtable_ebo_helperILi0ESaINS_10_Hash_nodeI4EdgeLb1EEEELb1EEC2Ev
FNDA:3,_ZNSt8__detail21_Hashtable_ebo_helperILi0ESaINS_10_Hash_nodeI4EdgeLb1EEEELb1EEC2Ev
FN:1134,_ZNKSt8__detail21_Hashtable_ebo_helperILi0ESt8equal_toI4EdgeELb1EE7_M_cgetEv
FNDA:0,_ZNKSt8__detail21_Hashtable_ebo_helperILi0ESt8equal_toI4EdgeELb1EE7_M_cgetEv
FN:1134,_ZNKSt8__detail21_Hashtable_ebo_helperILi1ESt4hashI4EdgeELb1EE7_M_cgetEv
FNDA:4,_ZNKSt8__detail21_Hashtable_ebo_helperILi1ESt4hashI4EdgeELb1EE7_M_cgetEv
FN:1134,_ZNKSt8__detail21_Hashtable_ebo_helperILi0ESt8equal_toI6VertexELb1EE7_M_cgetEv
FNDA:0,_ZNKSt8__detail21_Hashtable_ebo_helperILi0ESt8equal_toI6VertexELb1EE7_M_cgetEv
FN:1134,_ZNKSt8__detail21_Hashtable_ebo_helperILi1ESt4hashI6VertexELb1EE7_M_cgetEv
FNDA:4,_ZNKSt8__detail21_Hashtable_ebo_helperILi1ESt4hashI6VertexELb1EE7_M_cgetEv
FN:1135,_ZNSt8__detail21_Hashtable_ebo_helperILi0ESaINS_10_Hash_nodeI4EdgeLb1EEEELb1EE6_M_getEv
FNDA:20,_ZNSt8__detail21_Hashtable_ebo_helperILi0ESaINS_10_Hash_nodeI4EdgeLb1EEEELb1EE6_M_getEv
FN:1210,_ZNSt8__detail15_Hash_code_baseI4EdgeS1_NS_9_IdentityESt4hashIS1_ENS_18_Mod_range_hashingENS_20_Default_ranged_hashELb1EEC2Ev
FNDA:3,_ZNSt8__detail15_Hash_code_baseI4EdgeS1_NS_9_IdentityESt4hashIS1_ENS_18_Mod_range_hashingENS_20_Default_ranged_hashELb1EEC2Ev
FN:1215,_ZNKSt8__detail15_Hash_code_baseI6VertexS1_NS_9_IdentityESt4hashIS1_ENS_18_Mod_range_hashingENS_20_Default_ranged_hashELb1EE12_M_hash_codeERKS1_
FNDA:4,_ZNKSt8__detail15_Hash_code_baseI6VertexS1_NS_9_IdentityESt4hashIS1_ENS_18_Mod_range_hashingENS_20_Default_ranged_hashELb1EE12_M_hash_codeERKS1_
FN:1215,_ZNKSt8__detail15_Hash_code_baseI4EdgeS1_NS_9_IdentityESt4hashIS1_ENS_18_Mod_range_hashingENS_20_Default_ranged_hashELb1EE12_M_hash_codeERKS1_
FNDA:4,_ZNKSt8__detail15_Hash_code_baseI4EdgeS1_NS_9_IdentityESt4hashIS1_ENS_18_Mod_range_hashingENS_20_Default_ranged_hashELb1EE12_M_hash_codeERKS1_
FN:1232,_ZNKSt8__detail15_Hash_code_baseI4EdgeS1_NS_9_IdentityESt4hashIS1_ENS_18_Mod_range_hashingENS_20_Default_ranged_hashELb1EE15_M_bucket_indexEmm
FNDA:6,_ZNKSt8__detail15_Hash_code_baseI4EdgeS1_NS_9_IdentityESt4hashIS1_ENS_18_Mod_range_hashingENS_20_Default_ranged_hashELb1EE15_M_bucket_indexEmm
FN:1232,_ZNKSt8__detail15_Hash_code_baseI6VertexS1_NS_9_IdentityESt4hashIS1_ENS_18_Mod_range_hashingENS_20_Default_ranged_hashELb1EE15_M_bucket_indexEmm
FNDA:6,_ZNKSt8__detail15_Hash_code_baseI6VertexS1_NS_9_IdentityESt4hashIS1_ENS_18_Mod_range_hashingENS_20_Default_ranged_hashELb1EE15_M_bucket_indexEmm
FN:1247,_ZNKSt8__detail15_Hash_code_baseI6VertexS1_NS_9_IdentityESt4hashIS1_ENS_18_Mod_range_hashingENS_20_Default_ranged_hashELb1EE15_M_bucket_indexERKNS_16_Hash_node_valueIS1_Lb1EEEm
FNDA:6,_ZNKSt8__detail15_Hash_code_baseI6VertexS1_NS_9_IdentityESt4hashIS1_ENS_18_Mod_range_hashingENS_20_Default_ranged_hashELb1EE15_M_bucket_indexERKNS_16_Hash_node_valueIS1_Lb1EEEm
FN:1247,_ZNKSt8__detail15_Hash_code_baseI4EdgeS1_NS_9_IdentityESt4hashIS1_ENS_18_Mod_range_hashingENS_20_Default_ranged_hashELb1EE15_M_bucket_indexERKNS_16_Hash_node_valueIS1_Lb1EEEm
FNDA:2,_ZNKSt8__detail15_Hash_code_baseI4EdgeS1_NS_9_IdentityESt4hashIS1_ENS_18_Mod_range_hashingENS_20_Default_ranged_hashELb1EE15_M_bucket_indexERKNS_16_Hash_node_valueIS1_Lb1EEEm
FN:1263,_ZNKSt8__detail15_Hash_code_baseI4EdgeS1_NS_9_IdentityESt4hashIS1_ENS_18_Mod_range_hashingENS_20_Default_ranged_hashELb1EE13_M_store_codeERNS_21_Hash_node_code_cacheILb1EEEm
FNDA:4,_ZNKSt8__detail15_Hash_code_baseI4EdgeS1_NS_9_IdentityESt4hashIS1_ENS_18_Mod_range_hashingENS_20_Default_ranged_hashELb1EE13_M_store_codeERNS_21_Hash_node_code_cacheILb1EEEm
FN:1276,_ZNKSt8__detail15_Hash_code_baseI4EdgeS1_NS_9_IdentityESt4hashIS1_ENS_18_Mod_range_hashingENS_20_Default_ranged_hashELb1EE7_M_hashEv
FNDA:4,_ZNKSt8__detail15_Hash_code_baseI4EdgeS1_NS_9_IdentityESt4hashIS1_ENS_18_Mod_range_hashingENS_20_Default_ranged_hashELb1EE7_M_hashEv
FN:1276,_ZNKSt8__detail15_Hash_code_baseI6VertexS1_NS_9_IdentityESt4hashIS1_ENS_18_Mod_range_hashingENS_20_Default_ranged_hashELb1EE7_M_hashEv
FNDA:4,_ZNKSt8__detail15_Hash_code_baseI6VertexS1_NS_9_IdentityESt4hashIS1_ENS_18_Mod_range_hashingENS_20_Default_ranged_hashELb1EE7_M_hashEv
FN:1595,_ZNSt8__detail15_Hashtable_baseI4EdgeS1_NS_9_IdentityESt8equal_toIS1_ESt4hashIS1_ENS_18_Mod_range_hashingENS_20_Default_ranged_hashENS_17_Hashtable_traitsILb1ELb1ELb1EEEE9_S_equalsEmRKNS_21_Hash_node_code_cacheILb1EEE
FNDA:0,_ZNSt8__detail15_Hashtable_baseI4EdgeS1_NS_9_IdentityESt8equal_toIS1_ESt4hashIS1_ENS_18_Mod_range_hashingENS_20_Default_ranged_hashENS_17_Hashtable_traitsILb1ELb1ELb1EEEE9_S_equalsEmRKNS_21_Hash_node_code_cacheILb1EEE
FN:1595,_ZNSt8__detail15_Hashtable_baseI6VertexS1_NS_9_IdentityESt8equal_toIS1_ESt4hashIS1_ENS_18_Mod_range_hashingENS_20_Default_ranged_hashENS_17_Hashtable_traitsILb1ELb1ELb1EEEE9_S_equalsEmRKNS_21_Hash_node_code_cacheILb1EEE
FNDA:0,_ZNSt8__detail15_Hashtable_baseI6VertexS1_NS_9_IdentityESt8equal_toIS1_ESt4hashIS1_ENS_18_Mod_range_hashingENS_20_Default_ranged_hashENS_17_Hashtable_traitsILb1ELb1ELb1EEEE9_S_equalsEmRKNS_21_Hash_node_code_cacheILb1EEE
FN:1604,_ZNSt8__detail15_Hashtable_baseI4EdgeS1_NS_9_IdentityESt8equal_toIS1_ESt4hashIS1_ENS_18_Mod_range_hashingENS_20_Default_ranged_hashENS_17_Hashtable_traitsILb1ELb1ELb1EEEEC2Ev
FNDA:3,_ZNSt8__detail15_Hashtable_baseI4EdgeS1_NS_9_IdentityESt8equal_toIS1_ESt4hashIS1_ENS_18_Mod_range_hashingENS_20_Default_ranged_hashENS_17_Hashtable_traitsILb1ELb1ELb1EEEEC2Ev
FN:1611,_ZNKSt8__detail15_Hashtable_baseI4EdgeS1_NS_9_IdentityESt8equal_toIS1_ESt4hashIS1_ENS_18_Mod_range_hashingENS_20_Default_ranged_hashENS_17_Hashtable_traitsILb1ELb1ELb1EEEE9_M_equalsERKS1_mRKNS_16_Hash_node_valueIS1_Lb1EEE
FNDA:0,_ZNKSt8__detail15_Hashtable_baseI4EdgeS1_NS_9_IdentityESt8equal_toIS1_ESt4hashIS1_ENS_18_Mod_range_hashingENS_20_Default_ranged_hashENS_17_Hashtable_traitsILb1ELb1ELb1EEEE9_M_equalsERKS1_mRKNS_16_Hash_node_valueIS1_Lb1EEE
FN:1611,_ZNKSt8__detail15_Hashtable_baseI6VertexS1_NS_9_IdentityESt8equal_toIS1_ESt4hashIS1_ENS_18_Mod_range_hashingENS_20_Default_ranged_hashENS_17_Hashtable_traitsILb1ELb1ELb1EEEE9_M_equalsERKS1_mRKNS_16_Hash_node_valueIS1_Lb1EEE
FNDA:0,_ZNKSt8__detail15_Hashtable_baseI6VertexS1_NS_9_IdentityESt8equal_toIS1_ESt4hashIS1_ENS_18_Mod_range_hashingENS_20_Default_ranged_hashENS_17_Hashtable_traitsILb1ELb1ELb1EEEE9_M_equalsERKS1_mRKNS_16_Hash_node_valueIS1_Lb1EEE
FN:1650,_ZNKSt8__detail15_Hashtable_baseI6VertexS1_NS_9_IdentityESt8equal_toIS1_ESt4hashIS1_ENS_18_Mod_range_hashingENS_20_Default_ranged_hashENS_17_Hashtable_traitsILb1ELb1ELb1EEEE5_M_eqEv
FNDA:0,_ZNKSt8__detail15_Hashtable_baseI6VertexS1_NS_9_IdentityESt8equal_toIS1_ESt4hashIS1_ENS_18_Mod_range_hashingENS_20_Default_ranged_hashENS_17_Hashtable_traitsILb1ELb1ELb1EEEE5_M_eqEv
FN:1650,_ZNKSt8__detail15_Hashtable_baseI4EdgeS1_NS_9_IdentityESt8equal_toIS1_ESt4hashIS1_ENS_18_Mod_range_hashingENS_20_Default_ranged_hashENS_17_Hashtable_traitsILb1ELb1ELb1EEEE5_M_eqEv
FNDA:0,_ZNKSt8__detail15_Hashtable_baseI4EdgeS1_NS_9_IdentityESt8equal_toIS1_ESt4hashIS1_ENS_18_Mod_range_hashingENS_20_Default_ranged_hashENS_17_Hashtable_traitsILb1ELb1ELb1EEEE5_M_eqEv
FN:1823,_ZNSt8__detail16_Hashtable_allocISaINS_10_Hash_nodeI4EdgeLb1EEEEEC2Ev
FNDA:3,_ZNSt8__detail16_Hashtable_allocISaINS_10_Hash_nodeI4EdgeLb1EEEEEC2Ev
FN:1833,_ZNSt8__detail16_Hashtable_allocISaINS_10_Hash_nodeI4EdgeLb1EEEEE17_M_node_allocatorEv
FNDA:20,_ZNSt8__detail16_Hashtable_allocISaINS_10_Hash_nodeI4EdgeLb1EEEEE17_M_node_allocatorEv
FN:1870,_ZNSt8__detail16_Hashtable_allocISaINS_10_Hash_nodeI4EdgeLb1EEEEE16_M_allocate_nodeIJRKS2_EEEPS3_DpOT_
FNDA:4,_ZNSt8__detail16_Hashtable_allocISaINS_10_Hash_nodeI4EdgeLb1EEEEE16_M_allocate_nodeIJRKS2_EEEPS3_DpOT_
FN:1892,_ZNSt8__detail16_Hashtable_allocISaINS_10_Hash_nodeI4EdgeLb1EEEEE18_M_deallocate_nodeEPS3_
FNDA:4,_ZNSt8__detail16_Hashtable_allocISaINS_10_Hash_nodeI4EdgeLb1EEEEE18_M_deallocate_nodeEPS3_
FN:1900,_ZNSt8__detail16_Hashtable_allocISaINS_10_Hash_nodeI4EdgeLb1EEEEE22_M_deallocate_node_ptrEPS3_
FNDA:4,_ZNSt8__detail16_Hashtable_allocISaINS_10_Hash_nodeI4EdgeLb1EEEEE22_M_deallocate_node_ptrEPS3_
FN:1910,_ZNSt8__detail16_Hashtable_allocISaINS_10_Hash_nodeI4EdgeLb1EEEEE19_M_deallocate_nodesEPS3_
FNDA:3,_ZNSt8__detail16_Hashtable_allocISaINS_10_Hash_nodeI4EdgeLb1EEEEE19_M_deallocate_nodesEPS3_
FN:1922,_ZNSt8__detail16_Hashtable_allocISaINS_10_Hash_nodeI4EdgeLb1EEEEE19_M_allocate_bucketsEm
FNDA:2,_ZNSt8__detail16_Hashtable_allocISaINS_10_Hash_nodeI4EdgeLb1EEEEE19_M_allocate_bucketsEm
FN:1935,_ZNSt8__detail16_Hashtable_allocISaINS_10_Hash_nodeI4EdgeLb1EEEEE21_M_deallocate_bucketsEPPNS_15_Hash_node_baseEm
FNDA:2,_ZNSt8__detail16_Hashtable_allocISaINS_10_Hash_nodeI4EdgeLb1EEEEE21_M_deallocate_bucketsEPPNS_15_Hash_node_baseEm
DA:85,0
DA:86,0
DA:85,4
DA:86,4
DA:162,4
DA:163,4
DA:167,4
DA:168,4
DA:219,19
DA:237,14
DA:238,14
DA:237,28
DA:238,28
DA:241,0
DA:242,0
DA:241,0
DA:242,0
DA:245,6
DA:246,6
DA:245,12
DA:246,12
DA:249,0
DA:250,0
DA:249,0
DA:250,0
DA:282,12
DA:283,12
DA:282,22
DA:283,22
DA:295,10
DA:296,10
DA:295,12
DA:296,12
DA:299,6
DA:300,6
DA:299,8
DA:300,8
DA:309,9
DA:311,9
DA:309,12
DA:311,12
DA:338,4
DA:339,4
DA:338,12
DA:339,12
DA:342,8
DA:343,8
DA:350,8
DA:352,8
DA:353,8
DA:385,6
DA:386,6
DA:393,6
DA:394,6
DA:401,6
DA:403,6
DA:404,6
DA:428,20
DA:430,20
DA:446,5
DA:447,5
DA:473,8
DA:474,8
DA:481,0
DA:482,0
DA:815,4
DA:816,4
DA:840,4
DA:842,4
DA:843,4
DA:844,8
DA:1127,3
DA:1127,3
DA:1127,3
DA:1134,0
DA:1134,0
DA:1134,4
DA:1134,4
DA:1135,20
DA:1210,3
DA:1215,4
DA:1219,4
DA:1215,4
DA:1219,4
DA:1232,6
DA:1233,6
DA:1232,6
DA:1233,6
DA:1247,2
DA:1251,2
DA:1247,6
DA:1251,6
DA:1263,4
DA:1264,4
DA:1276,4
DA:1276,4
DA:1595,0
DA:1596,0
DA:1595,0
DA:1596,0
DA:1604,3
DA:1611,0
DA:1617,0
DA:1611,0
DA:1617,0
DA:1650,0
DA:1650,0
DA:1823,3
DA:1833,20
DA:1834,20
DA:1870,4
DA:1873,4
DA:1874,4
DA:1877,4
DA:1878,4
DA:1881,4
DA:1883,0
DA:1885,0
DA:1886,0
DA:1892,4
DA:1894,4
DA:1895,4
DA:1896,4
DA:1900,4
DA:1903,4
DA:1904,4
DA:1905,4
DA:1906,4
DA:1910,3
DA:1912,7
DA:1914,4
DA:1915,4
DA:1916,4
DA:1918,3
DA:1922,2
DA:1925,2
DA:1927,2
DA:1928,2
DA:1929,2
DA:1930,2
DA:1931,2
DA:1935,2
DA:1940,2
DA:1941,2
DA:1942,2
DA:1943,2
end_of_record
SF:/usr/include/c++/11/bits/stl_iterator_base_funcs.h
FN:98,_ZSt10__distanceIPcENSt15iterator_traitsIT_E15difference_typeES2_S2_St26random_access_iterator_tag
FNDA:60,_ZSt10__distanceIPcENSt15iterator_traitsIT_E15difference_typeES2_S2_St26random_access_iterator_tag
FN:98,_ZSt10__distanceIPKcENSt15iterator_traitsIT_E15difference_typeES3_S3_St26random_access_iterator_tag
FNDA:41,_ZSt10__distanceIPKcENSt15iterator_traitsIT_E15difference_typeES3_S3_St26random_access_iterator_tag
FN:138,_ZSt8distanceIPcENSt15iterator_traitsIT_E15difference_typeES2_S2_
FNDA:60,_ZSt8distanceIPcENSt15iterator_traitsIT_E15difference_typeES2_S2_
FN:138,_ZSt8distanceIPKcENSt15iterator_traitsIT_E15difference_typeES3_S3_
FNDA:41,_ZSt8distanceIPKcENSt15iterator_traitsIT_E15difference_typeES3_S3_
DA:98,60
DA:104,60
DA:98,41
DA:104,41
DA:138,60
DA:141,60
DA:142,120
DA:138,41
DA:141,41
DA:142,82
end_of_record
SF:/usr/include/c++/11/bits/stl_queue.h
FN:166,_ZNSt5queueImSt5dequeImSaImEEEC2IS2_vEEv
FNDA:1,_ZNSt5queueImSt5dequeImSaImEEEC2IS2_vEEv
FN:203,_ZNKSt5queueImSt5dequeImSaImEEE5emptyEv
FNDA:4,_ZNKSt5queueImSt5dequeImSaImEEE5emptyEv
FN:216,_ZNSt5queueImSt5dequeImSaImEEE5frontEv
FNDA:3,_ZNSt5queueImSt5dequeImSaImEEE5frontEv
FN:265,_ZNSt5queueImSt5dequeImSaImEEE4pushERKm
FNDA:2,_ZNSt5queueImSt5dequeImSaImEEE4pushERKm
FN:270,_ZNSt5queueImSt5dequeImSaImEEE4pushEOm
FNDA:1,_ZNSt5queueImSt5dequeImSaImEEE4pushEOm
FN:298,_ZNSt5queueImSt5dequeImSaImEEE3popEv
FNDA:3,_ZNSt5queueImSt5dequeImSaImEEE3popEv
DA:166,1
DA:167,1
DA:203,4
DA:204,4
DA:216,3
DA:219,3
DA:265,2
DA:266,2
DA:270,1
DA:271,1
DA:298,3
DA:301,3
DA:302,3
end_of_record
SF:/home/imri/OS-FinalProject/GraphObj/graph.cpp
FN:4,_ZNK5Graph11isConnectedEv
FNDA:1,_ZNK5Graph11isConnectedEv
FN:31,_ZN5GraphC2Ev
FNDA:0,_ZN5GraphC2Ev
FN:36,_ZN5GraphC2ESt13unordered_setI6VertexSt4hashIS1_ESt8equal_toIS1_ESaIS1_EE
FNDA:2,_ZN5GraphC2ESt13unordered_setI6VertexSt4hashIS1_ESt8equal_toIS1_ESaIS1_EE
FN:56,_ZN5GraphC2ERKS_b
FNDA:1,_ZN5GraphC2ERKS_b
FN:117,_ZNK5Graph11numVerticesEv
FNDA:13,_ZNK5Graph11numVerticesEv
FN:123,_ZNK5Graph8numEdgesEv
FNDA:0,_ZNK5Graph8numEdgesEv
FN:129,_ZNK5Graph9hasVertexE6Vertex
FNDA:0,_ZNK5Graph9hasVertexE6Vertex
FN:135,_ZN5Graph10edgesBeginEv
FNDA:0,_ZN5Graph10edgesBeginEv
FN:141,_ZN5Graph8edgesEndEv
FNDA:0,_ZN5Graph8edgesEndEv
FN:151,_ZN5Graph7addEdgeE4Edge
FNDA:4,_ZN5Graph7addEdgeE4Edge
FN:162,_ZN5Graph10removeEdgeE4Edge
FNDA:0,_ZN5Graph10removeEdgeE4Edge
FN:174,_ZN5Graph7addEdgeER6VertexS1_m
FNDA:2,_ZN5Graph7addEdgeER6VertexS1_m
FN:181,_ZN5Graph5beginEv
FNDA:1,_ZN5Graph5beginEv
FN:187,_ZN5Graph3endEv
FNDA:1,_ZN5Graph3endEv
FN:193,_ZNK5Graph15adjacencyMatrixEv
FNDA:2,_ZNK5Graph15adjacencyMatrixEv
FN:210,_ZN5Graph9getVertexEi
FNDA:18,_ZN5Graph9getVertexEi
FN:215,_ZNK5Graph9getVertexEi
FNDA:0,_ZNK5Graph9getVertexEi
FN:220,_ZNK5Graph11totalWeightEv
FNDA:1,_ZNK5Graph11totalWeightEv
FN:230,_ZNK5Graph11longestPathB5cxx11ERKSt6vectorIS0_ImSaImEESaIS2_EE
FNDA:1,_ZNK5Graph11longestPathB5cxx11ERKSt6vectorIS0_ImSaImEESaIS2_EE
FN:251,_ZNK5Graph12getDistancesEv
FNDA:0,_ZNK5Graph12getDistancesEv
FN:260,_ZNK5Graph11avgDistanceERKSt6vectorIS0_ImSaImEESaIS2_EE
FNDA:1,_ZNK5Graph11avgDistanceERKSt6vectorIS0_ImSaImEESaIS2_EE
FN:277,_ZNK5Graph12shortestPathB5cxx11EmmRKSt6vectorIS0_ImSaImEESaIS2_EES6_
FNDA:3,_ZNK5Graph12shortestPathB5cxx11EmmRKSt6vectorIS0_ImSaImEESaIS2_EES6_
FN:313,_ZNK5Graph16allShortestPathsB5cxx11ERKSt6vectorIS0_ImSaImEESaIS2_EES6_
FNDA:1,_ZNK5Graph16allShortestPathsB5cxx11ERKSt6vectorIS0_ImSaImEESaIS2_EES6_
FN:327,_ZNK5Graph13floydWarshallEv
FNDA:1,_ZNK5Graph13floydWarshallEv
FN:362,_ZNK5Graph11longestPathB5cxx11Ev
FNDA:1,_ZNK5Graph11longestPathB5cxx11Ev
FN:371,_ZNK5Graph11avgDistanceEv
FNDA:1,_ZNK5Graph11avgDistanceEv
FN:380,_ZNK5Graph16allShortestPathsB5cxx11Ev
FNDA:1,_ZNK5Graph16allShortestPathsB5cxx11Ev
FN:394,_ZNK5Graph5statsB5cxx11Ev
FNDA:0,_ZNK5Graph5statsB5cxx11Ev
FN:414,_ZN5Graph12setDistancesESt6vectorIS0_ImSaImEESaIS2_EE
FNDA:1,_ZN5Graph12setDistancesESt6vectorIS0_ImSaImEESaIS2_EE
FN:419,_ZN5Graph9setParentESt6vectorIS0_ImSaImEESaIS2_EE
FNDA:1,_ZN5Graph9setParentESt6vectorIS0_ImSaImEESaIS2_EE
FN:424,_ZN5Graph15cleanDistParentEv
FNDA:4,_ZN5Graph15cleanDistParentEv
DA:4,1
DA:6,1
DA:7,1
DA:8,1
DA:9,1
DA:10,1
DA:11,1
DA:12,1
DA:13,4
DA:15,3
DA:16,3
DA:17,12
DA:19,9
DA:21,2
DA:22,2
DA:23,2
DA:27,1
DA:28,1
DA:31,0
DA:36,2
DA:39,6
DA:40,4
DA:42,6
DA:44,4
DA:46,0
DA:47,0
DA:48,0
DA:49,4
DA:51,2
DA:56,1
DA:59,4
DA:61,3
DA:64,1
DA:67,0
DA:69,0
DA:74,0
DA:77,0
DA:78,0
DA:79,0
DA:81,0
DA:83,0
DA:89,0
DA:92,0
DA:93,0
DA:94,0
DA:96,0
DA:98,0
DA:106,4
DA:108,3
DA:109,3
DA:112,1
DA:117,13
DA:119,13
DA:123,0
DA:125,0
DA:129,0
DA:131,0
DA:135,0
DA:137,0
DA:141,0
DA:143,0
DA:151,4
DA:153,4
DA:154,4
DA:155,4
DA:156,4
DA:157,4
DA:158,4
DA:159,4
DA:162,0
DA:164,0
DA:165,0
DA:166,0
DA:167,0
DA:168,0
DA:169,0
DA:170,0
DA:172,0
DA:174,2
DA:176,4
DA:177,2
DA:178,2
DA:181,1
DA:183,1
DA:187,1
DA:189,1
DA:193,2
DA:195,2
DA:196,4
DA:197,6
DA:199,4
DA:200,4
DA:201,4
DA:202,8
DA:204,6
DA:206,2
DA:207,0
DA:210,18
DA:212,18
DA:215,0
DA:217,0
DA:220,1
DA:222,1
DA:223,3
DA:225,2
DA:227,1
DA:230,1
DA:232,1
DA:233,1
DA:234,1
DA:235,4
DA:237,12
DA:239,9
DA:241,3
DA:242,3
DA:243,3
DA:247,2
DA:251,0
DA:253,0
DA:254,0
DA:255,0
DA:256,0
DA:257,0
DA:260,1
DA:262,1
DA:263,1
DA:264,1
DA:265,4
DA:267,9
DA:269,6
DA:270,6
DA:273,1
DA:274,1
DA:277,3
DA:280,3
DA:282,0
DA:285,3
DA:287,0
DA:290,6
DA:292,3
DA:293,3
DA:294,3
DA:295,7
DA:297,4
DA:298,4
DA:301,10
DA:303,7
DA:305,3
DA:306,3
DA:307,3
DA:309,6
DA:310,3
DA:313,1
DA:315,1
DA:316,1
DA:317,4
DA:319,6
DA:321,3
DA:324,1
DA:325,0
DA:327,1
DA:329,1
DA:330,1
DA:331,2
DA:333,4
DA:335,12
DA:337,9
DA:339,7
DA:344,4
DA:346,12
DA:348,36
DA:350,27
DA:352,2
DA:353,2
DA:359,2
DA:360,1
DA:362,1
DA:364,1
DA:366,0
DA:367,0
DA:368,0
DA:369,1
DA:371,1
DA:373,1
DA:375,0
DA:376,0
DA:377,0
DA:378,1
DA:380,1
DA:383,1
DA:386,0
DA:387,0
DA:388,0
DA:389,0
DA:390,1
DA:394,0
DA:396,0
DA:398,0
DA:400,0
DA:404,0
DA:406,0
DA:407,0
DA:408,0
DA:409,0
DA:410,0
DA:411,0
DA:412,0
DA:414,1
DA:416,1
DA:417,1
DA:419,1
DA:421,1
DA:422,1
DA:424,4
DA:427,4
DA:428,0
DA:430,4
DA:431,0
DA:433,4
DA:434,4
DA:435,4
end_of_record
TN:
SF:/usr/include/c++/11/new
FN:174,_ZnwmPv
FNDA:659,_ZnwmPv
FN:180,_ZdlPvS_
FNDA:0,_ZdlPvS_
DA:174,659
DA:175,659
DA:180,0
end_of_record
SF:/usr/include/c++/11/bits/stl_vector.h
FN:97,_ZNSt12_Vector_baseI4EdgeSaIS0_EE17_Vector_impl_dataC2Ev
FNDA:398,_ZNSt12_Vector_baseI4EdgeSaIS0_EE17_Vector_impl_dataC2Ev
FN:136,_ZNSt12_Vector_baseI4EdgeSaIS0_EE12_Vector_implC2ERKS1_
FNDA:387,_ZNSt12_Vector_baseI4EdgeSaIS0_EE12_Vector_implC2ERKS1_
FN:276,_ZNSt12_Vector_baseI4EdgeSaIS0_EE19_M_get_Tp_allocatorEv
FNDA:812,_ZNSt12_Vector_baseI4EdgeSaIS0_EE19_M_get_Tp_allocatorEv
FN:280,_ZNKSt12_Vector_baseI4EdgeSaIS0_EE19_M_get_Tp_allocatorEv
FNDA:403,_ZNKSt12_Vector_baseI4EdgeSaIS0_EE19_M_get_Tp_allocatorEv
FN:303,_ZNSt12_Vector_baseI4EdgeSaIS0_EEC2EmRKS1_
FNDA:387,_ZNSt12_Vector_baseI4EdgeSaIS0_EEC2EmRKS1_
FN:333,_ZNSt12_Vector_baseI4EdgeSaIS0_EED2Ev
FNDA:398,_ZNSt12_Vector_baseI4EdgeSaIS0_EED2Ev
FN:343,_ZNSt12_Vector_baseI4EdgeSaIS0_EE11_M_allocateEm
FNDA:395,_ZNSt12_Vector_baseI4EdgeSaIS0_EE11_M_allocateEm
FN:350,_ZNSt12_Vector_baseI4EdgeSaIS0_EE13_M_deallocateEPS0_m
FNDA:406,_ZNSt12_Vector_baseI4EdgeSaIS0_EE13_M_deallocateEPS0_m
FN:359,_ZNSt12_Vector_baseI4EdgeSaIS0_EE17_M_create_storageEm
FNDA:387,_ZNSt12_Vector_baseI4EdgeSaIS0_EE17_M_create_storageEm
FN:553,_ZNSt6vectorI4EdgeSaIS0_EEC2ERKS2_
FNDA:387,_ZNSt6vectorI4EdgeSaIS0_EEC2ERKS2_
FN:678,_ZNSt6vectorI4EdgeSaIS0_EED2Ev
FNDA:398,_ZNSt6vectorI4EdgeSaIS0_EED2Ev
FN:820,_ZNKSt6vectorI4EdgeSaIS0_EE5beginEv
FNDA:394,_ZNKSt6vectorI4EdgeSaIS0_EE5beginEv
FN:838,_ZNKSt6vectorI4EdgeSaIS0_EE3endEv
FNDA:394,_ZNKSt6vectorI4EdgeSaIS0_EE3endEv
FN:918,_ZNKSt6vectorI4EdgeSaIS0_EE4sizeEv
FNDA:419,_ZNKSt6vectorI4EdgeSaIS0_EE4sizeEv
DA:97,398
DA:98,398
DA:99,398
DA:136,387
DA:137,387
DA:138,387
DA:276,812
DA:277,812
DA:280,403
DA:281,403
DA:303,387
DA:304,387
DA:305,387
DA:333,398
DA:335,398
DA:336,398
DA:337,398
DA:343,395
DA:346,395
DA:350,406
DA:353,406
DA:354,116
DA:355,406
DA:359,387
DA:361,387
DA:362,387
DA:363,387
DA:364,387
DA:553,387
DA:555,387
DA:557,387
DA:558,387
DA:560,387
DA:561,387
DA:678,398
DA:680,398
DA:681,398
DA:683,398
DA:820,394
DA:821,394
DA:838,394
DA:839,394
DA:918,419
DA:919,419
end_of_record
SF:/usr/include/c++/11/bits/stl_uninitialized.h
FN:85,_ZNSt20__uninitialized_copyILb0EE13__uninit_copyIN9__gnu_cxx17__normal_iteratorIPK4EdgeSt6vectorIS4_SaIS4_EEEEPS4_EET0_T_SD_SC_
FNDA:387,_ZNSt20__uninitialized_copyILb0EE13__uninit_copyIN9__gnu_cxx17__normal_iteratorIPK4EdgeSt6vectorIS4_SaIS4_EEEEPS4_EET0_T_SD_SC_
FN:126,_ZSt18uninitialized_copyIN9__gnu_cxx17__normal_iteratorIPK4EdgeSt6vectorIS2_SaIS2_EEEEPS2_ET0_T_SB_SA_
FNDA:387,_ZSt18uninitialized_copyIN9__gnu_cxx17__normal_iteratorIPK4EdgeSt6vectorIS2_SaIS2_EEEEPS2_ET0_T_SB_SA_
FN:331,_ZSt22__uninitialized_copy_aIN9__gnu_cxx17__normal_iteratorIPK4EdgeSt6vectorIS2_SaIS2_EEEEPS2_S2_ET0_T_SB_SA_RSaIT1_E
FNDA:387,_ZSt22__uninitialized_copy_aIN9__gnu_cxx17__normal_iteratorIPK4EdgeSt6vectorIS2_SaIS2_EEEEPS2_S2_ET0_T_SB_SA_RSaIT1_E
DA:85,387
DA:88,387
DA:91,521
DA:92,134
DA:93,387
DA:95,0
DA:97,0
DA:98,0
DA:126,387
DA:145,387
DA:151,387
DA:331,387
DA:333,387
end_of_record
SF:/usr/include/c++/11/bits/stl_construct.h
FN:109,_ZSt10_ConstructI4EdgeJRKS0_EEvPT_DpOT0_
FNDA:136,_ZSt10_ConstructI4EdgeJRKS0_EEvPT_DpOT0_
FN:146,_ZSt8_DestroyI4EdgeEvPT_
FNDA:148,_ZSt8_DestroyI4EdgeEvPT_
FN:160,_ZNSt12_Destroy_auxILb0EE9__destroyIP4EdgeEEvT_S4_
FNDA:409,_ZNSt12_Destroy_auxILb0EE9__destroyIP4EdgeEEvT_S4_
FN:182,_ZSt8_DestroyIP4EdgeEvT_S2_
FNDA:409,_ZSt8_DestroyIP4EdgeEvT_S2_
DA:109,136
DA:119,136
DA:120,136
DA:146,148
DA:151,148
DA:153,148
DA:160,409
DA:162,557
DA:163,148
DA:164,409
DA:182,409
DA:196,409
DA:197,409
end_of_record
SF:/usr/include/c++/11/bits/alloc_traits.h
FN:463,_ZNSt16allocator_traitsISaISt13_Rb_tree_nodeISt4pairIKmmEEEE8allocateERS5_m
FNDA:134,_ZNSt16allocator_traitsISaISt13_Rb_tree_nodeISt4pairIKmmEEEE8allocateERS5_m
FN:463,_ZNSt16allocator_traitsISaI4EdgeEE8allocateERS1_m
FNDA:116,_ZNSt16allocator_traitsISaI4EdgeEE8allocateERS1_m
FN:495,_ZNSt16allocator_traitsISaISt13_Rb_tree_nodeISt4pairIKmmEEEE10deallocateERS5_PS4_m
FNDA:134,_ZNSt16allocator_traitsISaISt13_Rb_tree_nodeISt4pairIKmmEEEE10deallocateERS5_PS4_m
FN:495,_ZNSt16allocator_traitsISaI4EdgeEE10deallocateERS1_PS0_m
FNDA:116,_ZNSt16allocator_traitsISaI4EdgeEE10deallocateERS1_PS0_m
FN:511,_ZNSt16allocator_traitsISaISt13_Rb_tree_nodeISt4pairIKmmEEEE9constructIS3_JRKS3_EEEvRS5_PT_DpOT0_
FNDA:126,_ZNSt16allocator_traitsISaISt13_Rb_tree_nodeISt4pairIKmmEEEE9constructIS3_JRKS3_EEEvRS5_PT_DpOT0_
FN:531,_ZNSt16allocator_traitsISaISt13_Rb_tree_nodeISt4pairIKmmEEEE7destroyIS3_EEvRS5_PT_
FNDA:134,_ZNSt16allocator_traitsISaISt13_Rb_tree_nodeISt4pairIKmmEEEE7destroyIS3_EEvRS5_PT_
FN:562,_ZNSt16allocator_traitsISaISt13_Rb_tree_nodeISt4pairIKmmEEEE37select_on_container_copy_constructionERKS5_
FNDA:387,_ZNSt16allocator_traitsISaISt13_Rb_tree_nodeISt4pairIKmmEEEE37select_on_container_copy_constructionERKS5_
FN:562,_ZNSt16allocator_traitsISaI4EdgeEE37select_on_container_copy_constructionERKS1_
FNDA:387,_ZNSt16allocator_traitsISaI4EdgeEE37select_on_container_copy_constructionERKS1_
FN:845,_ZSt8_DestroyIP4EdgeS0_EvT_S2_RSaIT0_E
FNDA:409,_ZSt8_DestroyIP4EdgeS0_EvT_S2_RSaIT0_E
DA:463,134
DA:464,134
DA:463,116
DA:464,116
DA:495,134
DA:496,134
DA:495,116
DA:496,116
DA:511,126
DA:516,126
DA:520,126
DA:531,134
DA:535,134
DA:539,134
DA:562,387
DA:563,387
DA:562,387
DA:563,387
DA:845,409
DA:848,409
DA:849,409
end_of_record
SF:/usr/include/c++/11/bits/stl_iterator.h
FN:1027,_ZN9__gnu_cxx17__normal_iteratorIPK4EdgeSt6vectorIS1_SaIS1_EEEC2ERKS3_
FNDA:788,_ZN9__gnu_cxx17__normal_iteratorIPK4EdgeSt6vectorIS1_SaIS1_EEEC2ERKS3_
FN:1042,_ZNK9__gnu_cxx17__normal_iteratorIPK4EdgeSt6vectorIS1_SaIS1_EEEdeEv
FNDA:138,_ZNK9__gnu_cxx17__normal_iteratorIPK4EdgeSt6vectorIS1_SaIS1_EEEdeEv
FN:1052,_ZN9__gnu_cxx17__normal_iteratorIPK4EdgeSt6vectorIS1_SaIS1_EEEppEv
FNDA:138,_ZN9__gnu_cxx17__normal_iteratorIPK4EdgeSt6vectorIS1_SaIS1_EEEppEv
FN:1105,_ZNK9__gnu_cxx17__normal_iteratorIPK4EdgeSt6vectorIS1_SaIS1_EEE4baseEv
FNDA:1064,_ZNK9__gnu_cxx17__normal_iteratorIPK4EdgeSt6vectorIS1_SaIS1_EEE4baseEv
FN:1179,_ZN9__gnu_cxxneIPK4EdgeSt6vectorIS1_SaIS1_EEEEbRKNS_17__normal_iteratorIT_T0_EESC_
FNDA:532,_ZN9__gnu_cxxneIPK4EdgeSt6vectorIS1_SaIS1_EEEEbRKNS_17__normal_iteratorIT_T0_EESC_
DA:1027,788
DA:1028,788
DA:1042,138
DA:1043,138
DA:1052,138
DA:1054,138
DA:1055,138
DA:1105,1064
DA:1106,1064
DA:1179,532
DA:1182,532
end_of_record
SF:/home/imri/OS-FinalProject/GraphObj/edge.hpp
end_of_record
SF:/usr/include/c++/11/ext/new_allocator.h
FN:82,_ZN9__gnu_cxx13new_allocatorI4EdgeEC2ERKS2_
FNDA:774,_ZN9__gnu_cxx13new_allocatorI4EdgeEC2ERKS2_
FN:82,_ZN9__gnu_cxx13new_allocatorISt13_Rb_tree_nodeISt4pairIKmmEEEC2ERKS6_
FNDA:774,_ZN9__gnu_cxx13new_allocatorISt13_Rb_tree_nodeISt4pairIKmmEEEC2ERKS6_
FN:89,_ZN9__gnu_cxx13new_allocatorISt13_Rb_tree_nodeISt4pairIKmmEEED2Ev
FNDA:785,_ZN9__gnu_cxx13new_allocatorISt13_Rb_tree_nodeISt4pairIKmmEEED2Ev
FN:89,_ZN9__gnu_cxx13new_allocatorI4EdgeED2Ev
FNDA:785,_ZN9__gnu_cxx13new_allocatorI4EdgeED2Ev
FN:103,_ZN9__gnu_cxx13new_allocatorISt13_Rb_tree_nodeISt4pairIKmmEEE8allocateEmPKv
FNDA:134,_ZN9__gnu_cxx13new_allocatorISt13_Rb_tree_nodeISt4pairIKmmEEE8allocateEmPKv
FN:103,_ZN9__gnu_cxx13new_allocatorI4EdgeE8allocateEmPKv
FNDA:116,_ZN9__gnu_cxx13new_allocatorI4EdgeE8allocateEmPKv
FN:132,_ZN9__gnu_cxx13new_allocatorISt13_Rb_tree_nodeISt4pairIKmmEEE10deallocateEPS5_m
FNDA:134,_ZN9__gnu_cxx13new_allocatorISt13_Rb_tree_nodeISt4pairIKmmEEE10deallocateEPS5_m
FN:132,_ZN9__gnu_cxx13new_allocatorI4EdgeE10deallocateEPS1_m
FNDA:116,_ZN9__gnu_cxx13new_allocatorI4EdgeE10deallocateEPS1_m
FN:160,_ZN9__gnu_cxx13new_allocatorISt13_Rb_tree_nodeISt4pairIKmmEEE9constructIS4_JRKS4_EEEvPT_DpOT0_
FNDA:126,_ZN9__gnu_cxx13new_allocatorISt13_Rb_tree_nodeISt4pairIKmmEEE9constructIS4_JRKS4_EEEvPT_DpOT0_
FN:166,_ZN9__gnu_cxx13new_allocatorISt13_Rb_tree_nodeISt4pairIKmmEEE7destroyIS4_EEvPT_
FNDA:134,_ZN9__gnu_cxx13new_allocatorISt13_Rb_tree_nodeISt4pairIKmmEEE7destroyIS4_EEvPT_
FN:197,_ZNK9__gnu_cxx13new_allocatorISt13_Rb_tree_nodeISt4pairIKmmEEE11_M_max_sizeEv
FNDA:134,_ZNK9__gnu_cxx13new_allocatorISt13_Rb_tree_nodeISt4pairIKmmEEE11_M_max_sizeEv
FN:197,_ZNK9__gnu_cxx13new_allocatorI4EdgeE11_M_max_sizeEv
FNDA:132,_ZNK9__gnu_cxx13new_allocatorI4EdgeE11_M_max_sizeEv
DA:82,774
DA:82,774
DA:89,785
DA:89,785
DA:103,134
DA:111,134
DA:115,0
DA:116,0
DA:117,0
DA:127,134
DA:103,116
DA:111,116
DA:115,0
DA:116,0
DA:117,0
DA:127,116
DA:132,134
DA:145,134
DA:132,116
DA:145,116
DA:160,126
DA:162,126
DA:166,134
DA:168,134
DA:197,134
DA:200,134
DA:197,132
DA:200,132
end_of_record
SF:/usr/include/c++/11/bits/stl_map.h
FN:207,_ZNSt3mapImmSt4lessImESaISt4pairIKmmEEEC2ERKS6_
FNDA:387,_ZNSt3mapImmSt4lessImESaISt4pairIKmmEEEC2ERKS6_
FN:302,_ZNSt3mapImmSt4lessImESaISt4pairIKmmEEED2Ev
FNDA:398,_ZNSt3mapImmSt4lessImESaISt4pairIKmmEEED2Ev
DA:207,387
DA:302,398
end_of_record
SF:/home/imri/OS-FinalProject/GraphObj/edge.cpp
FN:5,_ZN4EdgeC2E6VertexS0_m
FNDA:4,_ZN4EdgeC2E6VertexS0_m
FN:8,_ZN4EdgeC2ERKS_
FNDA:172,_ZN4EdgeC2ERKS_
FN:11,_ZN4Edge8getStartEv
FNDA:20,_ZN4Edge8getStartEv
FN:12,_ZNK4Edge8getStartEv
FNDA:4,_ZNK4Edge8getStartEv
FN:13,_ZN4Edge6getEndEv
FNDA:20,_ZN4Edge6getEndEv
FN:14,_ZNK4Edge6getEndEv
FNDA:4,_ZNK4Edge6getEndEv
FN:16,_ZN4Edge9getWeightEv
FNDA:16,_ZN4Edge9getWeightEv
FN:17,_ZNK4Edge9getWeightEv
FNDA:2,_ZNK4Edge9getWeightEv
FN:20,_ZN4Edge8getOtherE6Vertex
FNDA:8,_ZN4Edge8getOtherE6Vertex
FN:25,_ZNK4Edge8getOtherE6Vertex
FNDA:0,_ZNK4Edge8getOtherE6Vertex
FN:31,_ZNK4Edge8containsER6Vertex
FNDA:0,_ZNK4Edge8containsER6Vertex
FN:37,_ZNK4EdgeeqERKS_
FNDA:2,_ZNK4EdgeeqERKS_
FN:43,_ZN4EdgeaSERKS_
FNDA:0,_ZN4EdgeaSERKS_
FN:51,_ZNK4EdgeltERKS_
FNDA:0,_ZNK4EdgeltERKS_
FN:56,_ZlsRSoRK4Edge
FNDA:0,_ZlsRSoRK4Edge
DA:5,4
DA:8,172
DA:11,20
DA:12,4
DA:13,20
DA:14,4
DA:16,16
DA:17,2
DA:20,8
DA:22,8
DA:25,0
DA:27,0
DA:31,0
DA:33,0
DA:37,2
DA:39,2
DA:43,0
DA:45,0
DA:46,0
DA:47,0
DA:48,0
DA:51,0
DA:53,0
DA:56,0
DA:58,0
DA:59,0
end_of_record
SF:/home/imri/OS-FinalProject/GraphObj/vertex.hpp
end_of_record
SF:/usr/include/c++/11/bits/move.h
FN:49,_ZSt11__addressofI4EdgeEPT_RS1_
FNDA:284,_ZSt11__addressofI4EdgeEPT_RS1_
FN:77,_ZSt7forwardIRKSt4pairIKmmEEOT_RNSt16remove_referenceIS5_E4typeE
FNDA:756,_ZSt7forwardIRKSt4pairIKmmEEOT_RNSt16remove_referenceIS5_E4typeE
FN:77,_ZSt7forwardIRK4EdgeEOT_RNSt16remove_referenceIS3_E4typeE
FNDA:192,_ZSt7forwardIRK4EdgeEOT_RNSt16remove_referenceIS3_E4typeE
DA:49,284
DA:50,284
DA:77,756
DA:78,756
DA:77,192
DA:78,192
end_of_record
SF:/usr/include/c++/11/bits/allocator.h
FN:159,_ZNSaI4EdgeEC2ERKS0_
FNDA:774,_ZNSaI4EdgeEC2ERKS0_
FN:159,_ZNSaISt13_Rb_tree_nodeISt4pairIKmmEEEC2ERKS4_
FNDA:774,_ZNSaISt13_Rb_tree_nodeISt4pairIKmmEEEC2ERKS4_
FN:174,_ZNSaISt13_Rb_tree_nodeISt4pairIKmmEEED2Ev
FNDA:785,_ZNSaISt13_Rb_tree_nodeISt4pairIKmmEEED2Ev
FN:174,_ZNSaI4EdgeED2Ev
FNDA:785,_ZNSaI4EdgeED2Ev
DA:159,774
DA:160,774
DA:159,774
DA:160,774
DA:174,785
DA:174,785
end_of_record
SF:/usr/include/c++/11/bits/stl_tree.h
FN:112,_ZNSt18_Rb_tree_node_base10_S_minimumEPS_
FNDA:102,_ZNSt18_Rb_tree_node_base10_S_minimumEPS_
FN:126,_ZNSt18_Rb_tree_node_base10_S_maximumEPS_
FNDA:102,_ZNSt18_Rb_tree_node_base10_S_maximumEPS_
FN:152,_ZNSt20_Rb_tree_key_compareISt4lessImEEC2ERKS1_
FNDA:387,_ZNSt20_Rb_tree_key_compareISt4lessImEEC2ERKS1_
FN:173,_ZNSt15_Rb_tree_headerC2Ev
FNDA:406,_ZNSt15_Rb_tree_headerC2Ev
FN:206,_ZNSt15_Rb_tree_header8_M_resetEv
FNDA:413,_ZNSt15_Rb_tree_header8_M_resetEv
FN:234,_ZNSt13_Rb_tree_nodeISt4pairIKmmEE9_M_valptrEv
FNDA:410,_ZNSt13_Rb_tree_nodeISt4pairIKmmEE9_M_valptrEv
FN:523,_ZNSt8_Rb_treeImSt4pairIKmmESt10_Select1stIS2_ESt4lessImESaIS2_EE11_Alloc_nodeC2ERS8_
FNDA:102,_ZNSt8_Rb_treeImSt4pairIKmmESt10_Select1stIS2_ESt4lessImESaIS2_EE11_Alloc_nodeC2ERS8_
FN:528,_ZNKSt8_Rb_treeImSt4pairIKmmESt10_Select1stIS2_ESt4lessImESaIS2_EE11_Alloc_nodeclIRKS2_EEPSt13_Rb_tree_nodeIS2_EOT_
FNDA:126,_ZNKSt8_Rb_treeImSt4pairIKmmESt10_Select1stIS2_ESt4lessImESaIS2_EE11_Alloc_nodeclIRKS2_EEPSt13_Rb_tree_nodeIS2_EOT_
FN:547,_ZNSt8_Rb_treeImSt4pairIKmmESt10_Select1stIS2_ESt4lessImESaIS2_EE21_M_get_Node_allocatorEv
FNDA:536,_ZNSt8_Rb_treeImSt4pairIKmmESt10_Select1stIS2_ESt4lessImESaIS2_EE21_M_get_Node_allocatorEv
FN:560,_ZNSt8_Rb_treeImSt4pairIKmmESt10_Select1stIS2_ESt4lessImESaIS2_EE11_M_get_nodeEv
FNDA:134,_ZNSt8_Rb_treeImSt4pairIKmmESt10_Select1stIS2_ESt4lessImESaIS2_EE11_M_get_nodeEv
FN:564,_ZNSt8_Rb_treeImSt4pairIKmmESt10_Select1stIS2_ESt4lessImESaIS2_EE11_M_put_nodeEPSt13_Rb_tree_nodeIS2_E
FNDA:134,_ZNSt8_Rb_treeImSt4pairIKmmESt10_Select1stIS2_ESt4lessImESaIS2_EE11_M_put_nodeEPSt13_Rb_tree_nodeIS2_E
FN:590,_ZNSt8_Rb_treeImSt4pairIKmmESt10_Select1stIS2_ESt4lessImESaIS2_EE17_M_construct_nodeIJRKS2_EEEvPSt13_Rb_tree_nodeIS2_EDpOT_
FNDA:126,_ZNSt8_Rb_treeImSt4pairIKmmESt10_Select1stIS2_ESt4lessImESaIS2_EE17_M_construct_nodeIJRKS2_EEEvPSt13_Rb_tree_nodeIS2_EDpOT_
FN:609,_ZNSt8_Rb_treeImSt4pairIKmmESt10_Select1stIS2_ESt4lessImESaIS2_EE14_M_create_nodeIJRKS2_EEEPSt13_Rb_tree_nodeIS2_EDpOT_
FNDA:126,_ZNSt8_Rb_treeImSt4pairIKmmESt10_Select1stIS2_ESt4lessImESaIS2_EE14_M_create_nodeIJRKS2_EEEPSt13_Rb_tree_nodeIS2_EDpOT_
FN:618,_ZNSt8_Rb_treeImSt4pairIKmmESt10_Select1stIS2_ESt4lessImESaIS2_EE15_M_destroy_nodeEPSt13_Rb_tree_nodeIS2_E
FNDA:134,_ZNSt8_Rb_treeImSt4pairIKmmESt10_Select1stIS2_ESt4lessImESaIS2_EE15_M_destroy_nodeEPSt13_Rb_tree_nodeIS2_E
FN:629,_ZNSt8_Rb_treeImSt4pairIKmmESt10_Select1stIS2_ESt4lessImESaIS2_EE12_M_drop_nodeEPSt13_Rb_tree_nodeIS2_E
FNDA:134,_ZNSt8_Rb_treeImSt4pairIKmmESt10_Select1stIS2_ESt4lessImESaIS2_EE12_M_drop_nodeEPSt13_Rb_tree_nodeIS2_E
FN:637,_ZNSt8_Rb_treeImSt4pairIKmmESt10_Select1stIS2_ESt4lessImESaIS2_EE13_M_clone_nodeILb0ENS8_11_Alloc_nodeEEEPSt13_Rb_tree_nodeIS2_ESD_RT0_
FNDA:126,_ZNSt8_Rb_treeImSt4pairIKmmESt10_Select1stIS2_ESt4lessImESaIS2_EE13_M_clone_nodeILb0ENS8_11_Alloc_nodeEEEPSt13_Rb_tree_nodeIS2_ESD_RT0_
FN:674,_ZNSt8_Rb_treeImSt4pairIKmmESt10_Select1stIS2_ESt4lessImESaIS2_EE13_Rb_tree_implIS6_Lb1EEC2ERKSA_
FNDA:387,_ZNSt8_Rb_treeImSt4pairIKmmESt10_Select1stIS2_ESt4lessImESaIS2_EE13_Rb_tree_implIS6_Lb1EEC2ERKSA_
FN:710,_ZNSt8_Rb_treeImSt4pairIKmmESt10_Select1stIS2_ESt4lessImESaIS2_EE7_M_rootEv
FNDA:102,_ZNSt8_Rb_treeImSt4pairIKmmESt10_Select1stIS2_ESt4lessImESaIS2_EE7_M_rootEv
FN:714,_ZNKSt8_Rb_treeImSt4pairIKmmESt10_Select1stIS2_ESt4lessImESaIS2_EE7_M_rootEv
FNDA:387,_ZNKSt8_Rb_treeImSt4pairIKmmESt10_Select1stIS2_ESt4lessImESaIS2_EE7_M_rootEv
FN:718,_ZNSt8_Rb_treeImSt4pairIKmmESt10_Select1stIS2_ESt4lessImESaIS2_EE11_M_leftmostEv
FNDA:102,_ZNSt8_Rb_treeImSt4pairIKmmESt10_Select1stIS2_ESt4lessImESaIS2_EE11_M_leftmostEv
FN:726,_ZNSt8_Rb_treeImSt4pairIKmmESt10_Select1stIS2_ESt4lessImESaIS2_EE12_M_rightmostEv
FNDA:106,_ZNSt8_Rb_treeImSt4pairIKmmESt10_Select1stIS2_ESt4lessImESaIS2_EE12_M_rightmostEv
FN:734,_ZNKSt8_Rb_treeImSt4pairIKmmESt10_Select1stIS2_ESt4lessImESaIS2_EE9_M_mbeginEv
FNDA:520,_ZNKSt8_Rb_treeImSt4pairIKmmESt10_Select1stIS2_ESt4lessImESaIS2_EE9_M_mbeginEv
FN:738,_ZNSt8_Rb_treeImSt4pairIKmmESt10_Select1stIS2_ESt4lessImESaIS2_EE8_M_beginEv
FNDA:418,_ZNSt8_Rb_treeImSt4pairIKmmESt10_Select1stIS2_ESt4lessImESaIS2_EE8_M_beginEv
FN:749,_ZNSt8_Rb_treeImSt4pairIKmmESt10_Select1stIS2_ESt4lessImESaIS2_EE6_M_endEv
FNDA:132,_ZNSt8_Rb_treeImSt4pairIKmmESt10_Select1stIS2_ESt4lessImESaIS2_EE6_M_endEv
FN:779,_ZNSt8_Rb_treeImSt4pairIKmmESt10_Select1stIS2_ESt4lessImESaIS2_EE7_S_leftEPSt18_Rb_tree_node_base
FNDA:260,_ZNSt8_Rb_treeImSt4pairIKmmESt10_Select1stIS2_ESt4lessImESaIS2_EE7_S_leftEPSt18_Rb_tree_node_base
FN:787,_ZNSt8_Rb_treeImSt4pairIKmmESt10_Select1stIS2_ESt4lessImESaIS2_EE8_S_rightEPSt18_Rb_tree_node_base
FNDA:160,_ZNSt8_Rb_treeImSt4pairIKmmESt10_Select1stIS2_ESt4lessImESaIS2_EE8_S_rightEPSt18_Rb_tree_node_base
FN:799,_ZNSt8_Rb_treeImSt4pairIKmmESt10_Select1stIS2_ESt4lessImESaIS2_EE10_S_minimumEPSt18_Rb_tree_node_base
FNDA:102,_ZNSt8_Rb_treeImSt4pairIKmmESt10_Select1stIS2_ESt4lessImESaIS2_EE10_S_minimumEPSt18_Rb_tree_node_base
FN:807,_ZNSt8_Rb_treeImSt4pairIKmmESt10_Select1stIS2_ESt4lessImESaIS2_EE10_S_maximumEPSt18_Rb_tree_node_base
FNDA:102,_ZNSt8_Rb_treeImSt4pairIKmmESt10_Select1stIS2_ESt4lessImESaIS2_EE10_S_maximumEPSt18_Rb_tree_node_base
FN:887,_ZNSt8_Rb_treeImSt4pairIKmmESt10_Select1stIS2_ESt4lessImESaIS2_EE7_M_copyILb0ENS8_11_Alloc_nodeEEEPSt13_Rb_tree_nodeIS2_ERKS8_RT0_
FNDA:102,_ZNSt8_Rb_treeImSt4pairIKmmESt10_Select1stIS2_ESt4lessImESaIS2_EE7_M_copyILb0ENS8_11_Alloc_nodeEEEPSt13_Rb_tree_nodeIS2_ERKS8_RT0_
FN:898,_ZNSt8_Rb_treeImSt4pairIKmmESt10_Select1stIS2_ESt4lessImESaIS2_EE7_M_copyERKS8_
FNDA:102,_ZNSt8_Rb_treeImSt4pairIKmmESt10_Select1stIS2_ESt4lessImESaIS2_EE7_M_copyERKS8_
FN:935,_ZNSt8_Rb_treeImSt4pairIKmmESt10_Select1stIS2_ESt4lessImESaIS2_EEC2ERKS8_
FNDA:387,_ZNSt8_Rb_treeImSt4pairIKmmESt10_Select1stIS2_ESt4lessImESaIS2_EEC2ERKS8_
FN:983,_ZNSt8_Rb_treeImSt4pairIKmmESt10_Select1stIS2_ESt4lessImESaIS2_EED2Ev
FNDA:398,_ZNSt8_Rb_treeImSt4pairIKmmESt10_Select1stIS2_ESt4lessImESaIS2_EED2Ev
FN:1845,_ZNSt8_Rb_treeImSt4pairIKmmESt10_Select1stIS2_ESt4lessImESaIS2_EE7_M_copyILb0ENS8_11_Alloc_nodeEEEPSt13_Rb_tree_nodeIS2_ESD_PSt18_Rb_tree_node_baseRT0_
FNDA:126,_ZNSt8_Rb_treeImSt4pairIKmmESt10_Select1stIS2_ESt4lessImESaIS2_EE7_M_copyILb0ENS8_11_Alloc_nodeEEEPSt13_Rb_tree_nodeIS2_ESD_PSt18_Rb_tree_node_baseRT0_
FN:1883,_ZNSt8_Rb_treeImSt4pairIKmmESt10_Select1stIS2_ESt4lessImESaIS2_EE8_M_eraseEPSt13_Rb_tree_nodeIS2_E
FNDA:538,_ZNSt8_Rb_treeImSt4pairIKmmESt10_Select1stIS2_ESt4lessImESaIS2_EE8_M_eraseEPSt13_Rb_tree_nodeIS2_E
DA:112,102
DA:114,102
DA:115,102
DA:126,102
DA:128,126
DA:129,102
DA:152,387
DA:154,387
DA:173,406
DA:174,406
DA:175,406
DA:176,406
DA:177,406
DA:206,413
DA:208,413
DA:209,413
DA:210,413
DA:211,413
DA:212,413
DA:234,410
DA:235,410
DA:523,102
DA:524,102
DA:528,126
DA:529,126
DA:547,536
DA:548,536
DA:560,134
DA:561,134
DA:564,134
DA:565,134
DA:590,126
DA:594,126
DA:595,126
DA:605,126
DA:609,126
DA:611,126
DA:612,126
DA:613,126
DA:618,134
DA:623,134
DA:624,134
DA:626,134
DA:629,134
DA:631,134
DA:632,134
DA:633,134
DA:637,126
DA:645,126
DA:646,126
DA:647,126
DA:648,126
DA:649,126
DA:674,387
DA:676,387
DA:677,387
DA:678,387
DA:710,102
DA:711,102
DA:714,387
DA:715,387
DA:718,102
DA:719,102
DA:726,106
DA:727,106
DA:734,520
DA:735,520
DA:738,418
DA:739,418
DA:749,132
DA:750,132
DA:779,260
DA:780,260
DA:787,160
DA:788,160
DA:799,102
DA:800,102
DA:807,102
DA:808,102
DA:887,102
DA:890,102
DA:891,102
DA:892,102
DA:893,102
DA:894,102
DA:898,102
DA:900,102
DA:901,204
DA:935,387
DA:936,387
DA:938,387
DA:939,102
DA:940,387
DA:983,398
DA:984,398
DA:1845,126
DA:1849,126
DA:1850,126
DA:1854,126
DA:1855,24
DA:1856,24
DA:1857,126
DA:1858,126
DA:1860,126
DA:1862,0
DA:1863,0
DA:1864,0
DA:1865,0
DA:1866,0
DA:1868,0
DA:1869,0
DA:1872,0
DA:1874,0
DA:1875,0
DA:1877,126
DA:1883,538
DA:1887,672
DA:1889,134
DA:1890,134
DA:1891,134
DA:1892,134
DA:1894,538
end_of_record
SF:/usr/include/c++/11/iostream
end_of_record
SF:/usr/include/c++/11/ext/aligned_buffer.h
FN:64,_ZN9__gnu_cxx16__aligned_membufISt4pairIKmmEE7_M_addrEv
FNDA:410,_ZN9__gnu_cxx16__aligned_membufISt4pairIKmmEE7_M_addrEv
FN:72,_ZN9__gnu_cxx16__aligned_membufISt4pairIKmmEE6_M_ptrEv
FNDA:410,_ZN9__gnu_cxx16__aligned_membufISt4pairIKmmEE6_M_ptrEv
DA:64,410
DA:65,410
DA:72,410
DA:73,410
end_of_record
SF:/usr/include/c++/11/ext/alloc_traits.h
FN:97,_ZN9__gnu_cxx14__alloc_traitsISaISt13_Rb_tree_nodeISt4pairIKmmEEES5_E17_S_select_on_copyERKS6_
FNDA:387,_ZN9__gnu_cxx14__alloc_traitsISaISt13_Rb_tree_nodeISt4pairIKmmEEES5_E17_S_select_on_copyERKS6_
FN:97,_ZN9__gnu_cxx14__alloc_traitsISaI4EdgeES1_E17_S_select_on_copyERKS2_
FNDA:387,_ZN9__gnu_cxx14__alloc_traitsISaI4EdgeES1_E17_S_select_on_copyERKS2_
DA:97,387
DA:98,387
DA:97,387
DA:98,387
end_of_record
TN:
SF:/usr/include/c++/11/ext/type_traits.h
FN:152,_ZN9__gnu_cxx17__is_null_pointerIcEEbPT_
FNDA:0,_ZN9__gnu_cxx17__is_null_pointerIcEEbPT_
FN:152,_ZN9__gnu_cxx17__is_null_pointerIKcEEbPT_
FNDA:0,_ZN9__gnu_cxx17__is_null_pointerIKcEEbPT_
DA:152,0
DA:153,0
DA:152,0
DA:153,0
end_of_record
SF:/usr/include/c++/11/tuple
FN:192,_ZNSt10_Head_baseILm0ERKiLb0EEC2ES1_
FNDA:0,_ZNSt10_Head_baseILm0ERKiLb0EEC2ES1_
FN:233,_ZNSt10_Head_baseILm0ERKiLb0EE7_M_headERS2_
FNDA:0,_ZNSt10_Head_baseILm0ERKiLb0EE7_M_headERS2_
FN:424,_ZNSt11_Tuple_implILm0EJRKiEE7_M_headERS2_
FNDA:0,_ZNSt11_Tuple_implILm0EJRKiEE7_M_headERS2_
FN:434,_ZNSt11_Tuple_implILm0EJRKiEEC2ES1_
FNDA:0,_ZNSt11_Tuple_implILm0EJRKiEEC2ES1_
FN:454,_ZNSt11_Tuple_implILm0EJRKiEEC2EOS2_
FNDA:0,_ZNSt11_Tuple_implILm0EJRKiEEC2EOS2_
FN:727,_ZNSt5tupleIJRKiEEC2ILb1ELb1EEES1_
FNDA:0,_ZNSt5tupleIJRKiEEC2ILb1ELb1EEES1_
FN:756,_ZNSt5tupleIJRKiEEC2EOS2_
FNDA:0,_ZNSt5tupleIJRKiEEC2EOS2_
FN:1377,_ZSt12__get_helperILm0ERKiJEERT0_RSt11_Tuple_implIXT_EJS2_DpT1_EE
FNDA:0,_ZSt12__get_helperILm0ERKiJEERT0_RSt11_Tuple_implIXT_EJS2_DpT1_EE
FN:1393,_ZSt3getILm0EJRKiEERNSt13tuple_elementIXT_ESt5tupleIJDpT0_EEE4typeERS6_
FNDA:0,_ZSt3getILm0EJRKiEERNSt13tuple_elementIXT_ESt5tupleIJDpT0_EEE4typeERS6_
FN:1804,_ZNSt4pairIKiS_IP5GraphP6TripleEEC2IJRS0_EJEEESt21piecewise_construct_tSt5tupleIJDpT_EESA_IJDpT0_EE
FNDA:2,_ZNSt4pairIKiS_IP5GraphP6TripleEEC2IJRS0_EJEEESt21piecewise_construct_tSt5tupleIJDpT_EESA_IJDpT0_EE
FN:1816,_ZNSt4pairIKiS_IP5GraphP6TripleEEC2IJRS0_EJLm0EEJEJEEERSt5tupleIJDpT_EERS9_IJDpT1_EESt12_Index_tupleIJXspT0_EEESI_IJXspT2_EEE
FNDA:2,_ZNSt4pairIKiS_IP5GraphP6TripleEEC2IJRS0_EJLm0EEJEJEEERSt5tupleIJDpT_EERS9_IJDpT1_EESt12_Index_tupleIJXspT0_EEESI_IJXspT2_EEE
DA:192,0
DA:193,0
DA:233,0
DA:424,0
DA:434,0
DA:435,0
DA:436,0
DA:454,0
DA:456,0
DA:457,0
DA:727,0
DA:729,0
DA:756,0
DA:1377,0
DA:1378,0
DA:1393,0
DA:1394,0
DA:1804,2
DA:1809,2
DA:1810,2
DA:1816,2
DA:1819,2
DA:1820,2
DA:1821,2
end_of_record
SF:/usr/include/c++/11/ext/aligned_buffer.h
FN:64,_ZN9__gnu_cxx16__aligned_membufISt4pairIKmmEE7_M_addrEv
FNDA:0,_ZN9__gnu_cxx16__aligned_membufISt4pairIKmmEE7_M_addrEv
FN:64,_ZN9__gnu_cxx16__aligned_membufISt4pairIKi6VertexEE7_M_addrEv
FNDA:0,_ZN9__gnu_cxx16__aligned_membufISt4pairIKi6VertexEE7_M_addrEv
FN:64,_ZN9__gnu_cxx16__aligned_membufISt4pairIKiS1_IP5GraphP6TripleEEE7_M_addrEv
FNDA:45,_ZN9__gnu_cxx16__aligned_membufISt4pairIKiS1_IP5GraphP6TripleEEE7_M_addrEv
FN:68,_ZNK9__gnu_cxx16__aligned_membufISt4pairIKiS1_IP5GraphP6TripleEEE7_M_addrEv
FNDA:23,_ZNK9__gnu_cxx16__aligned_membufISt4pairIKiS1_IP5GraphP6TripleEEE7_M_addrEv
FN:72,_ZN9__gnu_cxx16__aligned_membufISt4pairIKmmEE6_M_ptrEv
FNDA:0,_ZN9__gnu_cxx16__aligned_membufISt4pairIKmmEE6_M_ptrEv
FN:72,_ZN9__gnu_cxx16__aligned_membufISt4pairIKi6VertexEE6_M_ptrEv
FNDA:0,_ZN9__gnu_cxx16__aligned_membufISt4pairIKi6VertexEE6_M_ptrEv
FN:72,_ZN9__gnu_cxx16__aligned_membufISt4pairIKiS1_IP5GraphP6TripleEEE6_M_ptrEv
FNDA:45,_ZN9__gnu_cxx16__aligned_membufISt4pairIKiS1_IP5GraphP6TripleEEE6_M_ptrEv
FN:76,_ZNK9__gnu_cxx16__aligned_membufISt4pairIKiS1_IP5GraphP6TripleEEE6_M_ptrEv
FNDA:23,_ZNK9__gnu_cxx16__aligned_membufISt4pairIKiS1_IP5GraphP6TripleEEE6_M_ptrEv
FN:102,_ZN9__gnu_cxx16__aligned_bufferI4EdgeE7_M_addrEv
FNDA:0,_ZN9__gnu_cxx16__aligned_bufferI4EdgeE7_M_addrEv
FN:114,_ZN9__gnu_cxx16__aligned_bufferI4EdgeE6_M_ptrEv
FNDA:0,_ZN9__gnu_cxx16__aligned_bufferI4EdgeE6_M_ptrEv
DA:64,0
DA:65,0
DA:64,0
DA:65,0
DA:64,45
DA:65,45
DA:68,23
DA:69,23
DA:72,0
DA:73,0
DA:72,0
DA:73,0
DA:72,45
DA:73,45
DA:76,23
DA:77,23
DA:102,0
DA:104,0
DA:114,0
DA:115,0
end_of_record
SF:/usr/include/c++/11/ext/alloc_traits.h
FN:97,_ZN9__gnu_cxx14__alloc_traitsISaIcEcE17_S_select_on_copyERKS1_
FNDA:1,_ZN9__gnu_cxx14__alloc_traitsISaIcEcE17_S_select_on_copyERKS1_
DA:97,1
DA:98,1
end_of_record
SF:/usr/include/c++/11/bits/basic_string.tcc
FN:206,_ZNSt7__cxx1112basic_stringIcSt11char_traitsIcESaIcEE12_M_constructIPcEEvT_S7_St20forward_iterator_tag
FNDA:0,_ZNSt7__cxx1112basic_stringIcSt11char_traitsIcESaIcEE12_M_constructIPcEEvT_S7_St20forward_iterator_tag
FN:206,_ZNSt7__cxx1112basic_stringIcSt11char_traitsIcESaIcEE12_M_constructIPKcEEvT_S8_St20forward_iterator_tag
FNDA:0,_ZNSt7__cxx1112basic_stringIcSt11char_traitsIcESaIcEE12_M_constructIPKcEEvT_S8_St20forward_iterator_tag
FN:1169,_ZStplIcSt11char_traitsIcESaIcEENSt7__cxx1112basic_stringIT_T0_T1_EEPKS5_RKS8_
FNDA:1,_ZStplIcSt11char_traitsIcESaIcEENSt7__cxx1112basic_stringIT_T0_T1_EEPKS5_RKS8_
DA:206,0
DA:211,0
DA:212,0
DA:215,0
DA:217,0
DA:219,0
DA:220,0
DA:225,0
DA:226,0
DA:228,0
DA:229,0
DA:232,0
DA:233,0
DA:206,0
DA:211,0
DA:212,0
DA:215,0
DA:217,0
DA:219,0
DA:220,0
DA:225,0
DA:226,0
DA:228,0
DA:229,0
DA:232,0
DA:233,0
DA:1169,1
DA:1178,1
DA:1179,2
DA:1181,1
DA:1182,1
DA:1183,1
DA:1184,1
DA:1185,0
end_of_record
SF:/usr/include/c++/11/bits/hashtable_policy.h
FN:237,_ZNSt8__detail21_Hash_node_value_baseI4EdgeE9_M_valptrEv
FNDA:0,_ZNSt8__detail21_Hash_node_value_baseI4EdgeE9_M_valptrEv
FN:282,_ZNKSt8__detail10_Hash_nodeI4EdgeLb1EE7_M_nextEv
FNDA:0,_ZNKSt8__detail10_Hash_nodeI4EdgeLb1EE7_M_nextEv
FN:1135,_ZNSt8__detail21_Hashtable_ebo_helperILi0ESaINS_10_Hash_nodeI4EdgeLb1EEEELb1EE6_M_getEv
FNDA:0,_ZNSt8__detail21_Hashtable_ebo_helperILi0ESaINS_10_Hash_nodeI4EdgeLb1EEEELb1EE6_M_getEv
FN:1833,_ZNSt8__detail16_Hashtable_allocISaINS_10_Hash_nodeI4EdgeLb1EEEEE17_M_node_allocatorEv
FNDA:0,_ZNSt8__detail16_Hashtable_allocISaINS_10_Hash_nodeI4EdgeLb1EEEEE17_M_node_allocatorEv
FN:1892,_ZNSt8__detail16_Hashtable_allocISaINS_10_Hash_nodeI4EdgeLb1EEEEE18_M_deallocate_nodeEPS3_
FNDA:0,_ZNSt8__detail16_Hashtable_allocISaINS_10_Hash_nodeI4EdgeLb1EEEEE18_M_deallocate_nodeEPS3_
FN:1900,_ZNSt8__detail16_Hashtable_allocISaINS_10_Hash_nodeI4EdgeLb1EEEEE22_M_deallocate_node_ptrEPS3_
FNDA:0,_ZNSt8__detail16_Hashtable_allocISaINS_10_Hash_nodeI4EdgeLb1EEEEE22_M_deallocate_node_ptrEPS3_
FN:1910,_ZNSt8__detail16_Hashtable_allocISaINS_10_Hash_nodeI4EdgeLb1EEEEE19_M_deallocate_nodesEPS3_
FNDA:0,_ZNSt8__detail16_Hashtable_allocISaINS_10_Hash_nodeI4EdgeLb1EEEEE19_M_deallocate_nodesEPS3_
FN:1935,_ZNSt8__detail16_Hashtable_allocISaINS_10_Hash_nodeI4EdgeLb1EEEEE21_M_deallocate_bucketsEPPNS_15_Hash_node_baseEm
FNDA:0,_ZNSt8__detail16_Hashtable_allocISaINS_10_Hash_nodeI4EdgeLb1EEEEE21_M_deallocate_bucketsEPPNS_15_Hash_node_baseEm
DA:237,0
DA:238,0
DA:282,0
DA:283,0
DA:1135,0
DA:1833,0
DA:1834,0
DA:1892,0
DA:1894,0
DA:1895,0
DA:1896,0
DA:1900,0
DA:1903,0
DA:1904,0
DA:1905,0
DA:1906,0
DA:1910,0
DA:1912,0
DA:1914,0
DA:1915,0
DA:1916,0
DA:1918,0
DA:1935,0
DA:1940,0
DA:1941,0
DA:1942,0
DA:1943,0
end_of_record
SF:/home/imri/OS-FinalProject/GraphObj/graph.hpp
end_of_record
SF:/usr/include/c++/11/bits/stl_iterator_base_funcs.h
FN:98,_ZSt10__distanceIPcENSt15iterator_traitsIT_E15difference_typeES2_S2_St26random_access_iterator_tag
FNDA:0,_ZSt10__distanceIPcENSt15iterator_traitsIT_E15difference_typeES2_S2_St26random_access_iterator_tag
FN:98,_ZSt10__distanceIPKNSt7__cxx1112basic_stringIcSt11char_traitsIcESaIcEEEENSt15iterator_traitsIT_E15difference_typeES9_S9_St26random_access_iterator_tag
FNDA:4,_ZSt10__distanceIPKNSt7__cxx1112basic_stringIcSt11char_traitsIcESaIcEEEENSt15iterator_traitsIT_E15difference_typeES9_S9_St26random_access_iterator_tag
FN:98,_ZSt10__distanceIPKcENSt15iterator_traitsIT_E15difference_typeES3_S3_St26random_access_iterator_tag
FNDA:0,_ZSt10__distanceIPKcENSt15iterator_traitsIT_E15difference_typeES3_S3_St26random_access_iterator_tag
FN:98,_ZSt10__distanceIPKSt8functionIFvPvEEENSt15iterator_traitsIT_E15difference_typeES7_S7_St26random_access_iterator_tag
FNDA:2,_ZSt10__distanceIPKSt8functionIFvPvEEENSt15iterator_traitsIT_E15difference_typeES7_S7_St26random_access_iterator_tag
FN:138,_ZSt8distanceIPcENSt15iterator_traitsIT_E15difference_typeES2_S2_
FNDA:0,_ZSt8distanceIPcENSt15iterator_traitsIT_E15difference_typeES2_S2_
FN:138,_ZSt8distanceIPKNSt7__cxx1112basic_stringIcSt11char_traitsIcESaIcEEEENSt15iterator_traitsIT_E15difference_typeES9_S9_
FNDA:4,_ZSt8distanceIPKNSt7__cxx1112basic_stringIcSt11char_traitsIcESaIcEEEENSt15iterator_traitsIT_E15difference_typeES9_S9_
FN:138,_ZSt8distanceIPKcENSt15iterator_traitsIT_E15difference_typeES3_S3_
FNDA:0,_ZSt8distanceIPKcENSt15iterator_traitsIT_E15difference_typeES3_S3_
FN:138,_ZSt8distanceIPKSt8functionIFvPvEEENSt15iterator_traitsIT_E15difference_typeES7_S7_
FNDA:2,_ZSt8distanceIPKSt8functionIFvPvEEENSt15iterator_traitsIT_E15difference_typeES7_S7_
DA:98,0
DA:104,0
DA:98,4
DA:104,4
DA:98,0
DA:104,0
DA:98,2
DA:104,2
DA:138,0
DA:141,0
DA:142,0
DA:138,4
DA:141,4
DA:142,8
DA:138,0
DA:141,0
DA:142,0
DA:138,2
DA:141,2
DA:142,4
end_of_record
SF:/usr/include/c++/11/bits/invoke.h
FN:60,_ZSt13__invoke_implIvRZ4mainEUlPvE4_JS0_EET_St14__invoke_otherOT0_DpOT1_
FNDA:1,_ZSt13__invoke_implIvRZ4mainEUlPvE4_JS0_EET_St14__invoke_otherOT0_DpOT1_
FN:60,_ZSt13__invoke_implIvRZ4mainEUlPvE3_JS0_EET_St14__invoke_otherOT0_DpOT1_
FNDA:1,_ZSt13__invoke_implIvRZ4mainEUlPvE3_JS0_EET_St14__invoke_otherOT0_DpOT1_
FN:60,_ZSt13__invoke_implIvRZ4mainEUlPvE2_JS0_EET_St14__invoke_otherOT0_DpOT1_
FNDA:1,_ZSt13__invoke_implIvRZ4mainEUlPvE2_JS0_EET_St14__invoke_otherOT0_DpOT1_
FN:60,_ZSt13__invoke_implIvRZ4mainEUlPvE1_JS0_EET_St14__invoke_otherOT0_DpOT1_
FNDA:1,_ZSt13__invoke_implIvRZ4mainEUlPvE1_JS0_EET_St14__invoke_otherOT0_DpOT1_
FN:60,_ZSt13__invoke_implIvRZ4mainEUlPvE0_JS0_EET_St14__invoke_otherOT0_DpOT1_
FNDA:1,_ZSt13__invoke_implIvRZ4mainEUlPvE0_JS0_EET_St14__invoke_otherOT0_DpOT1_
FN:60,_ZSt13__invoke_implIvRZ4mainEUlPvE_JS0_EET_St14__invoke_otherOT0_DpOT1_
FNDA:1,_ZSt13__invoke_implIvRZ4mainEUlPvE_JS0_EET_St14__invoke_otherOT0_DpOT1_
FN:104,_ZSt10__invoke_rIvRZ4mainEUlPvE4_JS0_EENSt9enable_ifIX16is_invocable_r_vIT_T0_DpT1_EES4_E4typeEOS5_DpOS6_
FNDA:1,_ZSt10__invoke_rIvRZ4mainEUlPvE4_JS0_EENSt9enable_ifIX16is_invocable_r_vIT_T0_DpT1_EES4_E4typeEOS5_DpOS6_
FN:104,_ZSt10__invoke_rIvRZ4mainEUlPvE3_JS0_EENSt9enable_ifIX16is_invocable_r_vIT_T0_DpT1_EES4_E4typeEOS5_DpOS6_
FNDA:1,_ZSt10__invoke_rIvRZ4mainEUlPvE3_JS0_EENSt9enable_ifIX16is_invocable_r_vIT_T0_DpT1_EES4_E4typeEOS5_DpOS6_
FN:104,_ZSt10__invoke_rIvRZ4mainEUlPvE2_JS0_EENSt9enable_ifIX16is_invocable_r_vIT_T0_DpT1_EES4_E4typeEOS5_DpOS6_
FNDA:1,_ZSt10__invoke_rIvRZ4mainEUlPvE2_JS0_EENSt9enable_ifIX16is_invocable_r_vIT_T0_DpT1_EES4_E4typeEOS5_DpOS6_
FN:104,_ZSt10__invoke_rIvRZ4mainEUlPvE1_JS0_EENSt9enable_ifIX16is_invocable_r_vIT_T0_DpT1_EES4_E4typeEOS5_DpOS6_
FNDA:1,_ZSt10__invoke_rIvRZ4mainEUlPvE1_JS0_EENSt9enable_ifIX16is_invocable_r_vIT_T0_DpT1_EES4_E4typeEOS5_DpOS6_
FN:104,_ZSt10__invoke_rIvRZ4mainEUlPvE0_JS0_EENSt9enable_ifIX16is_invocable_r_vIT_T0_DpT1_EES4_E4typeEOS5_DpOS6_
FNDA:1,_ZSt10__invoke_rIvRZ4mainEUlPvE0_JS0_EENSt9enable_ifIX16is_invocable_r_vIT_T0_DpT1_EES4_E4typeEOS5_DpOS6_
FN:104,_ZSt10__invoke_rIvRZ4mainEUlPvE_JS0_EENSt9enable_ifIX16is_invocable_r_vIT_T0_DpT1_EES4_E4typeEOS5_DpOS6_
FNDA:1,_ZSt10__invoke_rIvRZ4mainEUlPvE_JS0_EENSt9enable_ifIX16is_invocable_r_vIT_T0_DpT1_EES4_E4typeEOS5_DpOS6_
DA:60,1
DA:61,1
DA:60,1
DA:61,1
DA:60,1
DA:61,1
DA:60,1
DA:61,1
DA:60,1
DA:61,1
DA:60,1
DA:61,1
DA:104,1
DA:111,1
DA:117,1
DA:104,1
DA:111,1
DA:117,1
DA:104,1
DA:111,1
DA:117,1
DA:104,1
DA:111,1
DA:117,1
DA:104,1
DA:111,1
DA:117,1
DA:104,1
DA:111,1
DA:117,1
end_of_record
SF:/usr/include/c++/11/bits/stl_algo.h
FN:3876,_ZSt4findIN9__gnu_cxx17__normal_iteratorIPKNSt7__cxx1112basic_stringIcSt11char_traitsIcESaIcEEESt6vectorIS7_SaIS7_EEEES7_ET_SE_SE_RKT0_
FNDA:7,_ZSt4findIN9__gnu_cxx17__normal_iteratorIPKNSt7__cxx1112basic_stringIcSt11char_traitsIcESaIcEEESt6vectorIS7_SaIS7_EEEES7_ET_SE_SE_RKT0_
DA:3876,7
DA:3884,7
DA:3885,7
end_of_record
SF:/usr/include/c++/11/bits/std_function.h
FN:85,_ZNSt9_Any_data9_M_accessEv
FNDA:88,_ZNSt9_Any_data9_M_accessEv
FN:86,_ZNKSt9_Any_data9_M_accessEv
FNDA:44,_ZNKSt9_Any_data9_M_accessEv
FN:90,_ZNSt9_Any_data9_M_accessIPZ4mainEUlPvE0_EERT_v
FNDA:0,_ZNSt9_Any_data9_M_accessIPZ4mainEUlPvE0_EERT_v
FN:90,_ZNSt9_Any_data9_M_accessIPZ4mainEUlPvE4_EERT_v
FNDA:0,_ZNSt9_Any_data9_M_accessIPZ4mainEUlPvE4_EERT_v
FN:90,_ZNSt9_Any_data9_M_accessIPZ4mainEUlPvE3_EERT_v
FNDA:0,_ZNSt9_Any_data9_M_accessIPZ4mainEUlPvE3_EERT_v
FN:90,_ZNSt9_Any_data9_M_accessIPZ4mainEUlPvE2_EERT_v
FNDA:0,_ZNSt9_Any_data9_M_accessIPZ4mainEUlPvE2_EERT_v
FN:90,_ZNSt9_Any_data9_M_accessIPZ4mainEUlPvE1_EERT_v
FNDA:0,_ZNSt9_Any_data9_M_accessIPZ4mainEUlPvE1_EERT_v
FN:90,_ZNSt9_Any_data9_M_accessIZ4mainEUlPvE_EERT_v
FNDA:10,_ZNSt9_Any_data9_M_accessIZ4mainEUlPvE_EERT_v
FN:90,_ZNSt9_Any_data9_M_accessIZ4mainEUlPvE0_EERT_v
FNDA:8,_ZNSt9_Any_data9_M_accessIZ4mainEUlPvE0_EERT_v
FN:90,_ZNSt9_Any_data9_M_accessIZ4mainEUlPvE1_EERT_v
FNDA:6,_ZNSt9_Any_data9_M_accessIZ4mainEUlPvE1_EERT_v
FN:90,_ZNSt9_Any_data9_M_accessIPZ4mainEUlPvE_EERT_v
FNDA:0,_ZNSt9_Any_data9_M_accessIPZ4mainEUlPvE_EERT_v
FN:90,_ZNSt9_Any_data9_M_accessIPKSt9type_infoEERT_v
FNDA:0,_ZNSt9_Any_data9_M_accessIPKSt9type_infoEERT_v
FN:90,_ZNSt9_Any_data9_M_accessIZ4mainEUlPvE2_EERT_v
FNDA:6,_ZNSt9_Any_data9_M_accessIZ4mainEUlPvE2_EERT_v
FN:90,_ZNSt9_Any_data9_M_accessIZ4mainEUlPvE4_EERT_v
FNDA:4,_ZNSt9_Any_data9_M_accessIZ4mainEUlPvE4_EERT_v
FN:90,_ZNSt9_Any_data9_M_accessIZ4mainEUlPvE3_EERT_v
FNDA:4,_ZNSt9_Any_data9_M_accessIZ4mainEUlPvE3_EERT_v
FN:95,_ZNKSt9_Any_data9_M_accessIZ4mainEUlPvE0_EERKT_v
FNDA:9,_ZNKSt9_Any_data9_M_accessIZ4mainEUlPvE0_EERKT_v
FN:95,_ZNKSt9_Any_data9_M_accessIZ4mainEUlPvE1_EERKT_v
FNDA:7,_ZNKSt9_Any_data9_M_accessIZ4mainEUlPvE1_EERKT_v
FN:95,_ZNKSt9_Any_data9_M_accessIZ4mainEUlPvE_EERKT_v
FNDA:11,_ZNKSt9_Any_data9_M_accessIZ4mainEUlPvE_EERKT_v
FN:95,_ZNKSt9_Any_data9_M_accessIZ4mainEUlPvE2_EERKT_v
FNDA:7,_ZNKSt9_Any_data9_M_accessIZ4mainEUlPvE2_EERKT_v
FN:95,_ZNKSt9_Any_data9_M_accessIZ4mainEUlPvE3_EERKT_v
FNDA:5,_ZNKSt9_Any_data9_M_accessIZ4mainEUlPvE3_EERKT_v
FN:95,_ZNKSt9_Any_data9_M_accessIZ4mainEUlPvE4_EERKT_v
FNDA:5,_ZNKSt9_Any_data9_M_accessIZ4mainEUlPvE4_EERKT_v
FN:134,_ZNSt14_Function_base13_Base_managerIZ4mainEUlPvE3_E14_M_get_pointerERKSt9_Any_data
FNDA:5,_ZNSt14_Function_base13_Base_managerIZ4mainEUlPvE3_E14_M_get_pointerERKSt9_Any_data
FN:134,_ZNSt14_Function_base13_Base_managerIZ4mainEUlPvE4_E14_M_get_pointerERKSt9_Any_data
FNDA:5,_ZNSt14_Function_base13_Base_managerIZ4mainEUlPvE4_E14_M_get_pointerERKSt9_Any_data
FN:134,_ZNSt14_Function_base13_Base_managerIZ4mainEUlPvE_E14_M_get_pointerERKSt9_Any_data
FNDA:11,_ZNSt14_Function_base13_Base_managerIZ4mainEUlPvE_E14_M_get_pointerERKSt9_Any_data
FN:134,_ZNSt14_Function_base13_Base_managerIZ4mainEUlPvE2_E14_M_get_pointerERKSt9_Any_data
FNDA:7,_ZNSt14_Function_base13_Base_managerIZ4mainEUlPvE2_E14_M_get_pointerERKSt9_Any_data
FN:134,_ZNSt14_Function_base13_Base_managerIZ4mainEUlPvE1_E14_M_get_pointerERKSt9_Any_data
FNDA:7,_ZNSt14_Function_base13_Base_managerIZ4mainEUlPvE1_E14_M_get_pointerERKSt9_Any_data
FN:134,_ZNSt14_Function_base13_Base_managerIZ4mainEUlPvE0_E14_M_get_pointerERKSt9_Any_data
FNDA:9,_ZNSt14_Function_base13_Base_managerIZ4mainEUlPvE0_E14_M_get_pointerERKSt9_Any_data
FN:150,_ZNSt14_Function_base13_Base_managerIZ4mainEUlPvE1_E9_M_createIRKS2_EEvRSt9_Any_dataOT_St17integral_constantIbLb1EE
FNDA:6,_ZNSt14_Function_base13_Base_managerIZ4mainEUlPvE1_E9_M_createIRKS2_EEvRSt9_Any_dataOT_St17integral_constantIbLb1EE
FN:150,_ZNSt14_Function_base13_Base_managerIZ4mainEUlPvE4_E9_M_createIRKS2_EEvRSt9_Any_dataOT_St17integral_constantIbLb1EE
FNDA:4,_ZNSt14_Function_base13_Base_managerIZ4mainEUlPvE4_E9_M_createIRKS2_EEvRSt9_Any_dataOT_St17integral_constantIbLb1EE
FN:150,_ZNSt14_Function_base13_Base_managerIZ4mainEUlPvE0_E9_M_createIS2_EEvRSt9_Any_dataOT_St17integral_constantIbLb1EE
FNDA:2,_ZNSt14_Function_base13_Base_managerIZ4mainEUlPvE0_E9_M_createIS2_EEvRSt9_Any_dataOT_St17integral_constantIbLb1EE
FN:150,_ZNSt14_Function_base13_Base_managerIZ4mainEUlPvE0_E9_M_createIRKS2_EEvRSt9_Any_dataOT_St17integral_constantIbLb1EE
FNDA:8,_ZNSt14_Function_base13_Base_managerIZ4mainEUlPvE0_E9_M_createIRKS2_EEvRSt9_Any_dataOT_St17integral_constantIbLb1EE
FN:150,_ZNSt14_Function_base13_Base_managerIZ4mainEUlPvE1_E9_M_createIS2_EEvRSt9_Any_dataOT_St17integral_constantIbLb1EE
FNDA:2,_ZNSt14_Function_base13_Base_managerIZ4mainEUlPvE1_E9_M_createIS2_EEvRSt9_Any_dataOT_St17integral_constantIbLb1EE
FN:150,_ZNSt14_Function_base13_Base_managerIZ4mainEUlPvE_E9_M_createIS2_EEvRSt9_Any_dataOT_St17integral_constantIbLb1EE
FNDA:2,_ZNSt14_Function_base13_Base_managerIZ4mainEUlPvE_E9_M_createIS2_EEvRSt9_Any_dataOT_St17integral_constantIbLb1EE
FN:150,_ZNSt14_Function_base13_Base_managerIZ4mainEUlPvE4_E9_M_createIS2_EEvRSt9_Any_dataOT_St17integral_constantIbLb1EE
FNDA:2,_ZNSt14_Function_base13_Base_managerIZ4mainEUlPvE4_E9_M_createIS2_EEvRSt9_Any_dataOT_St17integral_constantIbLb1EE
FN:150,_ZNSt14_Function_base13_Base_managerIZ4mainEUlPvE_E9_M_createIRKS2_EEvRSt9_Any_dataOT_St17integral_constantIbLb1EE
FNDA:10,_ZNSt14_Function_base13_Base_managerIZ4mainEUlPvE_E9_M_createIRKS2_EEvRSt9_Any_dataOT_St17integral_constantIbLb1EE
FN:150,_ZNSt14_Function_base13_Base_managerIZ4mainEUlPvE2_E9_M_createIS2_EEvRSt9_Any_dataOT_St17integral_constantIbLb1EE
FNDA:2,_ZNSt14_Function_base13_Base_managerIZ4mainEUlPvE2_E9_M_createIS2_EEvRSt9_Any_dataOT_St17integral_constantIbLb1EE
FN:150,_ZNSt14_Function_base13_Base_managerIZ4mainEUlPvE3_E9_M_createIRKS2_EEvRSt9_Any_dataOT_St17integral_constantIbLb1EE
FNDA:4,_ZNSt14_Function_base13_Base_managerIZ4mainEUlPvE3_E9_M_createIRKS2_EEvRSt9_Any_dataOT_St17integral_constantIbLb1EE
FN:150,_ZNSt14_Function_base13_Base_managerIZ4mainEUlPvE3_E9_M_createIS2_EEvRSt9_Any_dataOT_St17integral_constantIbLb1EE
FNDA:2,_ZNSt14_Function_base13_Base_managerIZ4mainEUlPvE3_E9_M_createIS2_EEvRSt9_Any_dataOT_St17integral_constantIbLb1EE
FN:150,_ZNSt14_Function_base13_Base_managerIZ4mainEUlPvE2_E9_M_createIRKS2_EEvRSt9_Any_dataOT_St17integral_constantIbLb1EE
FNDA:6,_ZNSt14_Function_base13_Base_managerIZ4mainEUlPvE2_E9_M_createIRKS2_EEvRSt9_Any_dataOT_St17integral_constantIbLb1EE
FN:166,_ZNSt14_Function_base13_Base_managerIZ4mainEUlPvE2_E10_M_destroyERSt9_Any_dataSt17integral_constantIbLb1EE
FNDA:6,_ZNSt14_Function_base13_Base_managerIZ4mainEUlPvE2_E10_M_destroyERSt9_Any_dataSt17integral_constantIbLb1EE
FN:166,_ZNSt14_Function_base13_Base_managerIZ4mainEUlPvE4_E10_M_destroyERSt9_Any_dataSt17integral_constantIbLb1EE
FNDA:4,_ZNSt14_Function_base13_Base_managerIZ4mainEUlPvE4_E10_M_destroyERSt9_Any_dataSt17integral_constantIbLb1EE
FN:166,_ZNSt14_Function_base13_Base_managerIZ4mainEUlPvE3_E10_M_destroyERSt9_Any_dataSt17integral_constantIbLb1EE
FNDA:4,_ZNSt14_Function_base13_Base_managerIZ4mainEUlPvE3_E10_M_destroyERSt9_Any_dataSt17integral_constantIbLb1EE
FN:166,_ZNSt14_Function_base13_Base_managerIZ4mainEUlPvE1_E10_M_destroyERSt9_Any_dataSt17integral_constantIbLb1EE
FNDA:6,_ZNSt14_Function_base13_Base_managerIZ4mainEUlPvE1_E10_M_destroyERSt9_Any_dataSt17integral_constantIbLb1EE
FN:166,_ZNSt14_Function_base13_Base_managerIZ4mainEUlPvE_E10_M_destroyERSt9_Any_dataSt17integral_constantIbLb1EE
FNDA:10,_ZNSt14_Function_base13_Base_managerIZ4mainEUlPvE_E10_M_destroyERSt9_Any_dataSt17integral_constantIbLb1EE
FN:166,_ZNSt14_Function_base13_Base_managerIZ4mainEUlPvE0_E10_M_destroyERSt9_Any_dataSt17integral_constantIbLb1EE
FNDA:8,_ZNSt14_Function_base13_Base_managerIZ4mainEUlPvE0_E10_M_destroyERSt9_Any_dataSt17integral_constantIbLb1EE
FN:180,_ZNSt14_Function_base13_Base_managerIZ4mainEUlPvE0_E10_M_managerERSt9_Any_dataRKS4_St18_Manager_operation
FNDA:16,_ZNSt14_Function_base13_Base_managerIZ4mainEUlPvE0_E10_M_managerERSt9_Any_dataRKS4_St18_Manager_operation
FN:180,_ZNSt14_Function_base13_Base_managerIZ4mainEUlPvE_E10_M_managerERSt9_Any_dataRKS4_St18_Manager_operation
FNDA:20,_ZNSt14_Function_base13_Base_managerIZ4mainEUlPvE_E10_M_managerERSt9_Any_dataRKS4_St18_Manager_operation
FN:180,_ZNSt14_Function_base13_Base_managerIZ4mainEUlPvE1_E10_M_managerERSt9_Any_dataRKS4_St18_Manager_operation
FNDA:12,_ZNSt14_Function_base13_Base_managerIZ4mainEUlPvE1_E10_M_managerERSt9_Any_dataRKS4_St18_Manager_operation
FN:180,_ZNSt14_Function_base13_Base_managerIZ4mainEUlPvE2_E10_M_managerERSt9_Any_dataRKS4_St18_Manager_operation
FNDA:12,_ZNSt14_Function_base13_Base_managerIZ4mainEUlPvE2_E10_M_managerERSt9_Any_dataRKS4_St18_Manager_operation
FN:180,_ZNSt14_Function_base13_Base_managerIZ4mainEUlPvE3_E10_M_managerERSt9_Any_dataRKS4_St18_Manager_operation
FNDA:8,_ZNSt14_Function_base13_Base_managerIZ4mainEUlPvE3_E10_M_managerERSt9_Any_dataRKS4_St18_Manager_operation
FN:180,_ZNSt14_Function_base13_Base_managerIZ4mainEUlPvE4_E10_M_managerERSt9_Any_dataRKS4_St18_Manager_operation
FNDA:8,_ZNSt14_Function_base13_Base_managerIZ4mainEUlPvE4_E10_M_managerERSt9_Any_dataRKS4_St18_Manager_operation
FN:211,_ZNSt14_Function_base13_Base_managerIZ4mainEUlPvE4_E15_M_init_functorIS2_EEvRSt9_Any_dataOT_
FNDA:2,_ZNSt14_Function_base13_Base_managerIZ4mainEUlPvE4_E15_M_init_functorIS2_EEvRSt9_Any_dataOT_
FN:211,_ZNSt14_Function_base13_Base_managerIZ4mainEUlPvE0_E15_M_init_functorIRKS2_EEvRSt9_Any_dataOT_
FNDA:8,_ZNSt14_Function_base13_Base_managerIZ4mainEUlPvE0_E15_M_init_functorIRKS2_EEvRSt9_Any_dataOT_
FN:211,_ZNSt14_Function_base13_Base_managerIZ4mainEUlPvE3_E15_M_init_functorIS2_EEvRSt9_Any_dataOT_
FNDA:2,_ZNSt14_Function_base13_Base_managerIZ4mainEUlPvE3_E15_M_init_functorIS2_EEvRSt9_Any_dataOT_
FN:211,_ZNSt14_Function_base13_Base_managerIZ4mainEUlPvE2_E15_M_init_functorIS2_EEvRSt9_Any_dataOT_
FNDA:2,_ZNSt14_Function_base13_Base_managerIZ4mainEUlPvE2_E15_M_init_functorIS2_EEvRSt9_Any_dataOT_
FN:211,_ZNSt14_Function_base13_Base_managerIZ4mainEUlPvE1_E15_M_init_functorIS2_EEvRSt9_Any_dataOT_
FNDA:2,_ZNSt14_Function_base13_Base_managerIZ4mainEUlPvE1_E15_M_init_functorIS2_EEvRSt9_Any_dataOT_
FN:211,_ZNSt14_Function_base13_Base_managerIZ4mainEUlPvE0_E15_M_init_functorIS2_EEvRSt9_Any_dataOT_
FNDA:2,_ZNSt14_Function_base13_Base_managerIZ4mainEUlPvE0_E15_M_init_functorIS2_EEvRSt9_Any_dataOT_
FN:211,_ZNSt14_Function_base13_Base_managerIZ4mainEUlPvE_E15_M_init_functorIS2_EEvRSt9_Any_dataOT_
FNDA:2,_ZNSt14_Function_base13_Base_managerIZ4mainEUlPvE_E15_M_init_functorIS2_EEvRSt9_Any_dataOT_
FN:211,_ZNSt14_Function_base13_Base_managerIZ4mainEUlPvE_E15_M_init_functorIRKS2_EEvRSt9_Any_dataOT_
FNDA:10,_ZNSt14_Function_base13_Base_managerIZ4mainEUlPvE_E15_M_init_functorIRKS2_EEvRSt9_Any_dataOT_
FN:211,_ZNSt14_Function_base13_Base_managerIZ4mainEUlPvE1_E15_M_init_functorIRKS2_EEvRSt9_Any_dataOT_
FNDA:6,_ZNSt14_Function_base13_Base_managerIZ4mainEUlPvE1_E15_M_init_functorIRKS2_EEvRSt9_Any_dataOT_
FN:211,_ZNSt14_Function_base13_Base_managerIZ4mainEUlPvE4_E15_M_init_functorIRKS2_EEvRSt9_Any_dataOT_
FNDA:4,_ZNSt14_Function_base13_Base_managerIZ4mainEUlPvE4_E15_M_init_functorIRKS2_EEvRSt9_Any_dataOT_
FN:211,_ZNSt14_Function_base13_Base_managerIZ4mainEUlPvE3_E15_M_init_functorIRKS2_EEvRSt9_Any_dataOT_
FNDA:4,_ZNSt14_Function_base13_Base_managerIZ4mainEUlPvE3_E15_M_init_functorIRKS2_EEvRSt9_Any_dataOT_
FN:211,_ZNSt14_Function_base13_Base_managerIZ4mainEUlPvE2_E15_M_init_functorIRKS2_EEvRSt9_Any_dataOT_
FNDA:6,_ZNSt14_Function_base13_Base_managerIZ4mainEUlPvE2_E15_M_init_functorIRKS2_EEvRSt9_Any_dataOT_
FN:235,_ZNSt14_Function_base13_Base_managerIZ4mainEUlPvE4_E21_M_not_empty_functionIS2_EEbRKT_
FNDA:2,_ZNSt14_Function_base13_Base_managerIZ4mainEUlPvE4_E21_M_not_empty_functionIS2_EEbRKT_
FN:235,_ZNSt14_Function_base13_Base_managerIZ4mainEUlPvE3_E21_M_not_empty_functionIS2_EEbRKT_
FNDA:2,_ZNSt14_Function_base13_Base_managerIZ4mainEUlPvE3_E21_M_not_empty_functionIS2_EEbRKT_
FN:235,_ZNSt14_Function_base13_Base_managerIZ4mainEUlPvE_E21_M_not_empty_functionIS2_EEbRKT_
FNDA:2,_ZNSt14_Function_base13_Base_managerIZ4mainEUlPvE_E21_M_not_empty_functionIS2_EEbRKT_
FN:235,_ZNSt14_Function_base13_Base_managerIZ4mainEUlPvE2_E21_M_not_empty_functionIS2_EEbRKT_
FNDA:2,_ZNSt14_Function_base13_Base_managerIZ4mainEUlPvE2_E21_M_not_empty_functionIS2_EEbRKT_
FN:235,_ZNSt14_Function_base13_Base_managerIZ4mainEUlPvE0_E21_M_not_empty_functionIS2_EEbRKT_
FNDA:2,_ZNSt14_Function_base13_Base_managerIZ4mainEUlPvE0_E21_M_not_empty_functionIS2_EEbRKT_
FN:235,_ZNSt14_Function_base13_Base_managerIZ4mainEUlPvE1_E21_M_not_empty_functionIS2_EEbRKT_
FNDA:2,_ZNSt14_Function_base13_Base_managerIZ4mainEUlPvE1_E21_M_not_empty_functionIS2_EEbRKT_
FN:239,_ZNSt14_Function_baseC2Ev
FNDA:62,_ZNSt14_Function_baseC2Ev
FN:241,_ZNSt14_Function_baseD2Ev
FNDA:50,_ZNSt14_Function_baseD2Ev
FN:247,_ZNKSt14_Function_base8_M_emptyEv
FNDA:62,_ZNKSt14_Function_base8_M_emptyEv
FN:267,_ZNSt17_Function_handlerIFvPvEZ4mainEUlS0_E4_E10_M_managerERSt9_Any_dataRKS4_St18_Manager_operation
FNDA:8,_ZNSt17_Function_handlerIFvPvEZ4mainEUlS0_E4_E10_M_managerERSt9_Any_dataRKS4_St18_Manager_operation
FN:267,_ZNSt17_Function_handlerIFvPvEZ4mainEUlS0_E_E10_M_managerERSt9_Any_dataRKS4_St18_Manager_operation
FNDA:20,_ZNSt17_Function_handlerIFvPvEZ4mainEUlS0_E_E10_M_managerERSt9_Any_dataRKS4_St18_Manager_operation
FN:267,_ZNSt17_Function_handlerIFvPvEZ4mainEUlS0_E0_E10_M_managerERSt9_Any_dataRKS4_St18_Manager_operation
FNDA:16,_ZNSt17_Function_handlerIFvPvEZ4mainEUlS0_E0_E10_M_managerERSt9_Any_dataRKS4_St18_Manager_operation
FN:267,_ZNSt17_Function_handlerIFvPvEZ4mainEUlS0_E1_E10_M_managerERSt9_Any_dataRKS4_St18_Manager_operation
FNDA:12,_ZNSt17_Function_handlerIFvPvEZ4mainEUlS0_E1_E10_M_managerERSt9_Any_dataRKS4_St18_Manager_operation
FN:267,_ZNSt17_Function_handlerIFvPvEZ4mainEUlS0_E2_E10_M_managerERSt9_Any_dataRKS4_St18_Manager_operation
FNDA:12,_ZNSt17_Function_handlerIFvPvEZ4mainEUlS0_E2_E10_M_managerERSt9_Any_dataRKS4_St18_Manager_operation
FN:267,_ZNSt17_Function_handlerIFvPvEZ4mainEUlS0_E3_E10_M_managerERSt9_Any_dataRKS4_St18_Manager_operation
FNDA:8,_ZNSt17_Function_handlerIFvPvEZ4mainEUlS0_E3_E10_M_managerERSt9_Any_dataRKS4_St18_Manager_operation
FN:288,_ZNSt17_Function_handlerIFvPvEZ4mainEUlS0_E1_E9_M_invokeERKSt9_Any_dataOS0_
FNDA:1,_ZNSt17_Function_handlerIFvPvEZ4mainEUlS0_E1_E9_M_invokeERKSt9_Any_dataOS0_
FN:288,_ZNSt17_Function_handlerIFvPvEZ4mainEUlS0_E_E9_M_invokeERKSt9_Any_dataOS0_
FNDA:1,_ZNSt17_Function_handlerIFvPvEZ4mainEUlS0_E_E9_M_invokeERKSt9_Any_dataOS0_
FN:288,_ZNSt17_Function_handlerIFvPvEZ4mainEUlS0_E2_E9_M_invokeERKSt9_Any_dataOS0_
FNDA:1,_ZNSt17_Function_handlerIFvPvEZ4mainEUlS0_E2_E9_M_invokeERKSt9_Any_dataOS0_
FN:288,_ZNSt17_Function_handlerIFvPvEZ4mainEUlS0_E0_E9_M_invokeERKSt9_Any_dataOS0_
FNDA:1,_ZNSt17_Function_handlerIFvPvEZ4mainEUlS0_E0_E9_M_invokeERKSt9_Any_dataOS0_
FN:288,_ZNSt17_Function_handlerIFvPvEZ4mainEUlS0_E4_E9_M_invokeERKSt9_Any_dataOS0_
FNDA:1,_ZNSt17_Function_handlerIFvPvEZ4mainEUlS0_E4_E9_M_invokeERKSt9_Any_dataOS0_
FN:288,_ZNSt17_Function_handlerIFvPvEZ4mainEUlS0_E3_E9_M_invokeERKSt9_Any_dataOS0_
FNDA:1,_ZNSt17_Function_handlerIFvPvEZ4mainEUlS0_E3_E9_M_invokeERKSt9_Any_dataOS0_
FN:386,_ZNSt8functionIFvPvEEC2ERKS2_
FNDA:38,_ZNSt8functionIFvPvEEC2ERKS2_
FN:435,_ZNSt8functionIFvPvEEC2IZ4mainEUlS0_E0_vEEOT_
FNDA:2,_ZNSt8functionIFvPvEEC2IZ4mainEUlS0_E0_vEEOT_
FN:435,_ZNSt8functionIFvPvEEC2IZ4mainEUlS0_E_vEEOT_
FNDA:2,_ZNSt8functionIFvPvEEC2IZ4mainEUlS0_E_vEEOT_
FN:435,_ZNSt8functionIFvPvEEC2IZ4mainEUlS0_E1_vEEOT_
FNDA:2,_ZNSt8functionIFvPvEEC2IZ4mainEUlS0_E1_vEEOT_
FN:435,_ZNSt8functionIFvPvEEC2IZ4mainEUlS0_E2_vEEOT_
FNDA:2,_ZNSt8functionIFvPvEEC2IZ4mainEUlS0_E2_vEEOT_
FN:435,_ZNSt8functionIFvPvEEC2IZ4mainEUlS0_E3_vEEOT_
FNDA:2,_ZNSt8functionIFvPvEEC2IZ4mainEUlS0_E3_vEEOT_
FN:435,_ZNSt8functionIFvPvEEC2IZ4mainEUlS0_E4_vEEOT_
FNDA:2,_ZNSt8functionIFvPvEEC2IZ4mainEUlS0_E4_vEEOT_
FN:572,_ZNKSt8functionIFvPvEEcvbEv
FNDA:56,_ZNKSt8functionIFvPvEEcvbEv
DA:85,88
DA:86,44
DA:90,4
DA:91,4
DA:90,4
DA:91,4
DA:90,6
DA:91,6
DA:90,6
DA:91,6
DA:90,8
DA:91,8
DA:90,10
DA:91,10
DA:90,0
DA:91,0
DA:90,0
DA:91,0
DA:90,0
DA:91,0
DA:90,0
DA:91,0
DA:90,0
DA:91,0
DA:90,0
DA:91,0
DA:90,0
DA:91,0
DA:95,5
DA:96,5
DA:95,5
DA:96,5
DA:95,7
DA:96,7
DA:95,7
DA:96,7
DA:95,9
DA:96,9
DA:95,11
DA:96,11
DA:134,5
DA:138,5
DA:139,5
DA:134,5
DA:138,5
DA:139,5
DA:134,7
DA:138,7
DA:139,7
DA:134,7
DA:138,7
DA:139,7
DA:134,9
DA:138,9
DA:139,9
DA:134,11
DA:138,11
DA:139,11
DA:150,4
DA:152,4
DA:153,4
DA:150,4
DA:152,4
DA:153,4
DA:150,6
DA:152,6
DA:153,6
DA:150,6
DA:152,6
DA:153,6
DA:150,8
DA:152,8
DA:153,8
DA:150,10
DA:152,10
DA:153,10
DA:150,2
DA:152,2
DA:153,2
DA:150,2
DA:152,2
DA:153,2
DA:150,2
DA:152,2
DA:153,2
DA:150,2
DA:152,2
DA:153,2
DA:150,2
DA:152,2
DA:153,2
DA:150,2
DA:152,2
DA:153,2
DA:166,4
DA:168,4
DA:169,4
DA:166,4
DA:168,4
DA:169,4
DA:166,6
DA:168,6
DA:169,6
DA:166,6
DA:168,6
DA:169,6
DA:166,8
DA:168,8
DA:169,8
DA:166,10
DA:168,10
DA:169,10
DA:180,8
DA:183,8
DA:185,0
DA:187,0
DA:191,0
DA:193,0
DA:194,0
DA:195,0
DA:197,4
DA:198,4
DA:199,4
DA:200,4
DA:202,4
DA:203,4
DA:204,4
DA:206,8
DA:180,8
DA:183,8
DA:185,0
DA:187,0
DA:191,0
DA:193,0
DA:194,0
DA:195,0
DA:197,4
DA:198,4
DA:199,4
DA:200,4
DA:202,4
DA:203,4
DA:204,4
DA:206,8
DA:180,12
DA:183,12
DA:185,0
DA:187,0
DA:191,0
DA:193,0
DA:194,0
DA:195,0
DA:197,6
DA:198,6
DA:199,6
DA:200,6
DA:202,6
DA:203,6
DA:204,6
DA:206,12
DA:180,12
DA:183,12
DA:185,0
DA:187,0
DA:191,0
DA:193,0
DA:194,0
DA:195,0
DA:197,6
DA:198,6
DA:199,6
DA:200,6
DA:202,6
DA:203,6
DA:204,6
DA:206,12
DA:180,16
DA:183,16
DA:185,0
DA:187,0
DA:191,0
DA:193,0
DA:194,0
DA:195,0
DA:197,8
DA:198,8
DA:199,8
DA:200,8
DA:202,8
DA:203,8
DA:204,8
DA:206,16
DA:180,20
DA:183,20
DA:185,0
DA:187,0
DA:191,0
DA:193,0
DA:194,0
DA:195,0
DA:197,10
DA:198,10
DA:199,10
DA:200,10
DA:202,10
DA:203,10
DA:204,10
DA:206,20
DA:211,4
DA:215,4
DA:216,4
DA:211,4
DA:215,4
DA:216,4
DA:211,6
DA:215,6
DA:216,6
DA:211,6
DA:215,6
DA:216,6
DA:211,8
DA:215,8
DA:216,8
DA:211,10
DA:215,10
DA:216,10
DA:211,2
DA:215,2
DA:216,2
DA:211,2
DA:215,2
DA:216,2
DA:211,2
DA:215,2
DA:216,2
DA:211,2
DA:215,2
DA:216,2
DA:211,2
DA:215,2
DA:216,2
DA:211,2
DA:215,2
DA:216,2
DA:235,2
DA:236,2
DA:235,2
DA:236,2
DA:235,2
DA:236,2
DA:235,2
DA:236,2
DA:235,2
DA:236,2
DA:235,2
DA:236,2
DA:239,62
DA:241,50
DA:243,50
DA:244,38
DA:245,50
DA:247,62
DA:267,8
DA:270,8
DA:273,0
DA:274,0
DA:275,0
DA:277,0
DA:278,0
DA:279,0
DA:281,8
DA:282,8
DA:284,8
DA:267,8
DA:270,8
DA:273,0
DA:274,0
DA:275,0
DA:277,0
DA:278,0
DA:279,0
DA:281,8
DA:282,8
DA:284,8
DA:267,12
DA:270,12
DA:273,0
DA:274,0
DA:275,0
DA:277,0
DA:278,0
DA:279,0
DA:281,12
DA:282,12
DA:284,12
DA:267,12
DA:270,12
DA:273,0
DA:274,0
DA:275,0
DA:277,0
DA:278,0
DA:279,0
DA:281,12
DA:282,12
DA:284,12
DA:267,16
DA:270,16
DA:273,0
DA:274,0
DA:275,0
DA:277,0
DA:278,0
DA:279,0
DA:281,16
DA:282,16
DA:284,16
DA:267,20
DA:270,20
DA:273,0
DA:274,0
DA:275,0
DA:277,0
DA:278,0
DA:279,0
DA:281,20
DA:282,20
DA:284,20
DA:288,1
DA:290,1
DA:291,1
DA:288,1
DA:290,1
DA:291,1
DA:288,1
DA:290,1
DA:291,1
DA:288,1
DA:290,1
DA:291,1
DA:288,1
DA:290,1
DA:291,1
DA:288,1
DA:290,1
DA:291,1
DA:386,38
DA:387,38
DA:389,38
DA:391,38
DA:392,38
DA:393,38
DA:395,38
DA:435,2
DA:437,2
DA:447,2
DA:449,2
DA:451,2
DA:452,2
DA:454,2
DA:435,2
DA:437,2
DA:447,2
DA:449,2
DA:451,2
DA:452,2
DA:454,2
DA:435,2
DA:437,2
DA:447,2
DA:449,2
DA:451,2
DA:452,2
DA:454,2
DA:435,2
DA:437,2
DA:447,2
DA:449,2
DA:451,2
DA:452,2
DA:454,2
DA:435,2
DA:437,2
DA:447,2
DA:449,2
DA:451,2
DA:452,2
DA:454,2
DA:435,2
DA:437,2
DA:447,2
DA:449,2
DA:451,2
DA:452,2
DA:454,2
DA:572,56
DA:573,56
end_of_record
SF:/usr/include/c++/11/bits/hashtable.h
FN:421,_ZNKSt10_HashtableI4EdgeS0_SaIS0_ENSt8__detail9_IdentityESt8equal_toIS0_ESt4hashIS0_ENS2_18_Mod_range_hashingENS2_20_Default_ranged_hashENS2_20_Prime_rehash_policyENS2_17_Hashtable_traitsILb1ELb1ELb1EEEE21_M_uses_single_bucketEPPNS2_15_Hash_node_baseE
FNDA:0,_ZNKSt10_HashtableI4EdgeS0_SaIS0_ENSt8__detail9_IdentityESt8equal_toIS0_ESt4hashIS0_ENS2_18_Mod_range_hashingENS2_20_Default_ranged_hashENS2_20_Prime_rehash_policyENS2_17_Hashtable_traitsILb1ELb1ELb1EEEE21_M_uses_single_bucketEPPNS2_15_Hash_node_baseE
FN:444,_ZNSt10_HashtableI4EdgeS0_SaIS0_ENSt8__detail9_IdentityESt8equal_toIS0_ESt4hashIS0_ENS2_18_Mod_range_hashingENS2_20_Default_ranged_hashENS2_20_Prime_rehash_policyENS2_17_Hashtable_traitsILb1ELb1ELb1EEEE21_M_deallocate_bucketsEPPNS2_15_Hash_node_baseEm
FNDA:0,_ZNSt10_HashtableI4EdgeS0_SaIS0_ENSt8__detail9_IdentityESt8equal_toIS0_ESt4hashIS0_ENS2_18_Mod_range_hashingENS2_20_Default_ranged_hashENS2_20_Prime_rehash_policyENS2_17_Hashtable_traitsILb1ELb1ELb1EEEE21_M_deallocate_bucketsEPPNS2_15_Hash_node_baseEm
FN:453,_ZNSt10_HashtableI4EdgeS0_SaIS0_ENSt8__detail9_IdentityESt8equal_toIS0_ESt4hashIS0_ENS2_18_Mod_range_hashingENS2_20_Default_ranged_hashENS2_20_Prime_rehash_policyENS2_17_Hashtable_traitsILb1ELb1ELb1EEEE21_M_deallocate_bucketsEv
FNDA:0,_ZNSt10_HashtableI4EdgeS0_SaIS0_ENSt8__detail9_IdentityESt8equal_toIS0_ESt4hashIS0_ENS2_18_Mod_range_hashingENS2_20_Default_ranged_hashENS2_20_Prime_rehash_policyENS2_17_Hashtable_traitsILb1ELb1ELb1EEEE21_M_deallocate_bucketsEv
FN:462,_ZNKSt10_HashtableI4EdgeS0_SaIS0_ENSt8__detail9_IdentityESt8equal_toIS0_ESt4hashIS0_ENS2_18_Mod_range_hashingENS2_20_Default_ranged_hashENS2_20_Prime_rehash_policyENS2_17_Hashtable_traitsILb1ELb1ELb1EEEE8_M_beginEv
FNDA:0,_ZNKSt10_HashtableI4EdgeS0_SaIS0_ENSt8__detail9_IdentityESt8equal_toIS0_ESt4hashIS0_ENS2_18_Mod_range_hashingENS2_20_Default_ranged_hashENS2_20_Prime_rehash_policyENS2_17_Hashtable_traitsILb1ELb1ELb1EEEE8_M_beginEv
FN:1528,_ZNSt10_HashtableI4EdgeS0_SaIS0_ENSt8__detail9_IdentityESt8equal_toIS0_ESt4hashIS0_ENS2_18_Mod_range_hashingENS2_20_Default_ranged_hashENS2_20_Prime_rehash_policyENS2_17_Hashtable_traitsILb1ELb1ELb1EEEED2Ev
FNDA:0,_ZNSt10_HashtableI4EdgeS0_SaIS0_ENSt8__detail9_IdentityESt8equal_toIS0_ESt4hashIS0_ENS2_18_Mod_range_hashingENS2_20_Default_ranged_hashENS2_20_Prime_rehash_policyENS2_17_Hashtable_traitsILb1ELb1ELb1EEEED2Ev
FN:2316,_ZNSt10_HashtableI4EdgeS0_SaIS0_ENSt8__detail9_IdentityESt8equal_toIS0_ESt4hashIS0_ENS2_18_Mod_range_hashingENS2_20_Default_ranged_hashENS2_20_Prime_rehash_policyENS2_17_Hashtable_traitsILb1ELb1ELb1EEEE5clearEv
FNDA:0,_ZNSt10_HashtableI4EdgeS0_SaIS0_ENSt8__detail9_IdentityESt8equal_toIS0_ESt4hashIS0_ENS2_18_Mod_range_hashingENS2_20_Default_ranged_hashENS2_20_Prime_rehash_policyENS2_17_Hashtable_traitsILb1ELb1ELb1EEEE5clearEv
DA:421,0
DA:422,0
DA:444,0
DA:446,0
DA:447,0
DA:449,0
DA:453,0
DA:454,0
DA:462,0
DA:463,0
DA:1528,0
DA:1532,0
DA:1533,0
DA:1534,0
DA:2316,0
DA:2320,0
DA:2321,0
DA:2322,0
DA:2323,0
DA:2324,0
DA:2325,0
end_of_record
SF:/usr/include/c++/11/bits/allocator.h
FN:156,_ZNSaISt13_Rb_tree_nodeISt4pairIKiS0_IP5GraphP6TripleEEEEC2Ev
FNDA:2,_ZNSaISt13_Rb_tree_nodeISt4pairIKiS0_IP5GraphP6TripleEEEEC2Ev
FN:156,_ZNSaINSt7__cxx1112basic_stringIcSt11char_traitsIcESaIcEEEEC2Ev
FNDA:10,_ZNSaINSt7__cxx1112basic_stringIcSt11char_traitsIcESaIcEEEEC2Ev
FN:156,_ZNSaISt8functionIFvPvEEEC2Ev
FNDA:2,_ZNSaISt8functionIFvPvEEEC2Ev
FN:159,_ZNSaINSt7__cxx1112basic_stringIcSt11char_traitsIcESaIcEEEEC2ERKS5_
FNDA:8,_ZNSaINSt7__cxx1112basic_stringIcSt11char_traitsIcESaIcEEEEC2ERKS5_
FN:159,_ZNSaISt8functionIFvPvEEEC2ERKS3_
FNDA:4,_ZNSaISt8functionIFvPvEEEC2ERKS3_
FN:169,_ZNSaIPNSt8__detail15_Hash_node_baseEEC2INS_10_Hash_nodeI4EdgeLb1EEEEERKSaIT_E
FNDA:0,_ZNSaIPNSt8__detail15_Hash_node_baseEEC2INS_10_Hash_nodeI4EdgeLb1EEEEERKSaIT_E
FN:174,_ZNSaI4EdgeED2Ev
FNDA:0,_ZNSaI4EdgeED2Ev
FN:174,_ZNSaImED2Ev
FNDA:0,_ZNSaImED2Ev
FN:174,_ZNSaISt13_Rb_tree_nodeISt4pairIKmmEEED2Ev
FNDA:0,_ZNSaISt13_Rb_tree_nodeISt4pairIKmmEEED2Ev
FN:174,_ZNSaIPNSt8__detail15_Hash_node_baseEED2Ev
FNDA:0,_ZNSaIPNSt8__detail15_Hash_node_baseEED2Ev
FN:174,_ZNSaISt6vectorImSaImEEED2Ev
FNDA:0,_ZNSaISt6vectorImSaImEEED2Ev
FN:174,_ZNSaINSt8__detail10_Hash_nodeI4EdgeLb1EEEED2Ev
FNDA:0,_ZNSaINSt8__detail10_Hash_nodeI4EdgeLb1EEEED2Ev
FN:174,_ZNSaISt13_Rb_tree_nodeISt4pairIKi6VertexEEED2Ev
FNDA:0,_ZNSaISt13_Rb_tree_nodeISt4pairIKi6VertexEEED2Ev
FN:174,_ZNSaINSt7__cxx1112basic_stringIcSt11char_traitsIcESaIcEEEED2Ev
FNDA:14,_ZNSaINSt7__cxx1112basic_stringIcSt11char_traitsIcESaIcEEEED2Ev
FN:174,_ZNSaISt8functionIFvPvEEED2Ev
FNDA:4,_ZNSaISt8functionIFvPvEEED2Ev
FN:174,_ZNSaISt13_Rb_tree_nodeISt4pairIKiS0_IP5GraphP6TripleEEEED2Ev
FNDA:2,_ZNSaISt13_Rb_tree_nodeISt4pairIKiS0_IP5GraphP6TripleEEEED2Ev
DA:156,2
DA:156,10
DA:156,2
DA:159,8
DA:160,8
DA:159,4
DA:160,4
DA:169,0
DA:174,0
DA:174,0
DA:174,0
DA:174,0
DA:174,0
DA:174,0
DA:174,0
DA:174,14
DA:174,4
DA:174,2
end_of_record
SF:/usr/include/c++/11/bits/ptr_traits.h
FN:149,_ZNSt14pointer_traitsIPNSt8__detail10_Hash_nodeI4EdgeLb1EEEE10pointer_toERS3_
FNDA:0,_ZNSt14pointer_traitsIPNSt8__detail10_Hash_nodeI4EdgeLb1EEEE10pointer_toERS3_
FN:149,_ZNSt14pointer_traitsIPPNSt8__detail15_Hash_node_baseEE10pointer_toERS2_
FNDA:0,_ZNSt14pointer_traitsIPPNSt8__detail15_Hash_node_baseEE10pointer_toERS2_
DA:149,0
DA:150,0
DA:149,0
DA:150,0
end_of_record
SF:/usr/include/c++/11/bits/stl_tree.h
FN:146,_ZNSt20_Rb_tree_key_compareISt4lessIiEEC2Ev
FNDA:0,_ZNSt20_Rb_tree_key_compareISt4lessIiEEC2Ev
FN:173,_ZNSt15_Rb_tree_headerC2Ev
FNDA:0,_ZNSt15_Rb_tree_headerC2Ev
FN:206,_ZNSt15_Rb_tree_header8_M_resetEv
FNDA:0,_ZNSt15_Rb_tree_header8_M_resetEv
FN:234,_ZNSt13_Rb_tree_nodeISt4pairIKmmEE9_M_valptrEv
FNDA:0,_ZNSt13_Rb_tree_nodeISt4pairIKmmEE9_M_valptrEv
FN:234,_ZNSt13_Rb_tree_nodeISt4pairIKiS0_IP5GraphP6TripleEEE9_M_valptrEv
FNDA:45,_ZNSt13_Rb_tree_nodeISt4pairIKiS0_IP5GraphP6TripleEEE9_M_valptrEv
FN:234,_ZNSt13_Rb_tree_nodeISt4pairIKi6VertexEE9_M_valptrEv
FNDA:0,_ZNSt13_Rb_tree_nodeISt4pairIKi6VertexEE9_M_valptrEv
FN:238,_ZNKSt13_Rb_tree_nodeISt4pairIKiS0_IP5GraphP6TripleEEE9_M_valptrEv
FNDA:23,_ZNKSt13_Rb_tree_nodeISt4pairIKiS0_IP5GraphP6TripleEEE9_M_valptrEv
FN:273,_ZNSt17_Rb_tree_iteratorISt4pairIKiS0_IP5GraphP6TripleEEEC2EPSt18_Rb_tree_node_base
FNDA:58,_ZNSt17_Rb_tree_iteratorISt4pairIKiS0_IP5GraphP6TripleEEEC2EPSt18_Rb_tree_node_base
FN:277,_ZNKSt17_Rb_tree_iteratorISt4pairIKiS0_IP5GraphP6TripleEEEdeEv
FNDA:41,_ZNKSt17_Rb_tree_iteratorISt4pairIKiS0_IP5GraphP6TripleEEEdeEv
FN:285,_ZNSt17_Rb_tree_iteratorISt4pairIKiS0_IP5GraphP6TripleEEEppEv
FNDA:1,_ZNSt17_Rb_tree_iteratorISt4pairIKiS0_IP5GraphP6TripleEEEppEv
FN:300,_ZNSt17_Rb_tree_iteratorISt4pairIKiS0_IP5GraphP6TripleEEEmmEv
FNDA:0,_ZNSt17_Rb_tree_iteratorISt4pairIKiS0_IP5GraphP6TripleEEEmmEv
FN:315,_ZSteqRKSt17_Rb_tree_iteratorISt4pairIKiS0_IP5GraphP6TripleEEESA_
FNDA:23,_ZSteqRKSt17_Rb_tree_iteratorISt4pairIKiS0_IP5GraphP6TripleEEESA_
FN:320,_ZStneRKSt17_Rb_tree_iteratorISt4pairIKiS0_IP5GraphP6TripleEEESA_
FNDA:3,_ZStneRKSt17_Rb_tree_iteratorISt4pairIKiS0_IP5GraphP6TripleEEESA_
FN:350,_ZNSt23_Rb_tree_const_iteratorISt4pairIKiS0_IP5GraphP6TripleEEEC2ERKSt17_Rb_tree_iteratorIS7_E
FNDA:6,_ZNSt23_Rb_tree_const_iteratorISt4pairIKiS0_IP5GraphP6TripleEEEC2ERKSt17_Rb_tree_iteratorIS7_E
FN:354,_ZNKSt23_Rb_tree_const_iteratorISt4pairIKiS0_IP5GraphP6TripleEEE13_M_const_castEv
FNDA:2,_ZNKSt23_Rb_tree_const_iteratorISt4pairIKiS0_IP5GraphP6TripleEEE13_M_const_castEv
FN:373,_ZNSt23_Rb_tree_const_iteratorISt4pairIKiS0_IP5GraphP6TripleEEEppEi
FNDA:0,_ZNSt23_Rb_tree_const_iteratorISt4pairIKiS0_IP5GraphP6TripleEEEppEi
FN:396,_ZSteqRKSt23_Rb_tree_const_iteratorISt4pairIKiS0_IP5GraphP6TripleEEESA_
FNDA:2,_ZSteqRKSt23_Rb_tree_const_iteratorISt4pairIKiS0_IP5GraphP6TripleEEESA_
FN:401,_ZStneRKSt23_Rb_tree_const_iteratorISt4pairIKiS0_IP5GraphP6TripleEEESA_
FNDA:0,_ZStneRKSt23_Rb_tree_const_iteratorISt4pairIKiS0_IP5GraphP6TripleEEESA_
FN:547,_ZNSt8_Rb_treeImSt4pairIKmmESt10_Select1stIS2_ESt4lessImESaIS2_EE21_M_get_Node_allocatorEv
FNDA:0,_ZNSt8_Rb_treeImSt4pairIKmmESt10_Select1stIS2_ESt4lessImESaIS2_EE21_M_get_Node_allocatorEv
FN:547,_ZNSt8_Rb_treeIiSt4pairIKi6VertexESt10_Select1stIS3_ESt4lessIiESaIS3_EE21_M_get_Node_allocatorEv
FNDA:0,_ZNSt8_Rb_treeIiSt4pairIKi6VertexESt10_Select1stIS3_ESt4lessIiESaIS3_EE21_M_get_Node_allocatorEv
FN:547,_ZNSt8_Rb_treeIiSt4pairIKiS0_IP5GraphP6TripleEESt10_Select1stIS7_ESt4lessIiESaIS7_EE21_M_get_Node_allocatorEv
FNDA:8,_ZNSt8_Rb_treeIiSt4pairIKiS0_IP5GraphP6TripleEESt10_Select1stIS7_ESt4lessIiESaIS7_EE21_M_get_Node_allocatorEv
FN:560,_ZNSt8_Rb_treeIiSt4pairIKiS0_IP5GraphP6TripleEESt10_Select1stIS7_ESt4lessIiESaIS7_EE11_M_get_nodeEv
FNDA:2,_ZNSt8_Rb_treeIiSt4pairIKiS0_IP5GraphP6TripleEESt10_Select1stIS7_ESt4lessIiESaIS7_EE11_M_get_nodeEv
FN:564,_ZNSt8_Rb_treeIiSt4pairIKi6VertexESt10_Select1stIS3_ESt4lessIiESaIS3_EE11_M_put_nodeEPSt13_Rb_tree_nodeIS3_E
FNDA:0,_ZNSt8_Rb_treeIiSt4pairIKi6VertexESt10_Select1stIS3_ESt4lessIiESaIS3_EE11_M_put_nodeEPSt13_Rb_tree_nodeIS3_E
FN:564,_ZNSt8_Rb_treeImSt4pairIKmmESt10_Select1stIS2_ESt4lessImESaIS2_EE11_M_put_nodeEPSt13_Rb_tree_nodeIS2_E
FNDA:0,_ZNSt8_Rb_treeImSt4pairIKmmESt10_Select1stIS2_ESt4lessImESaIS2_EE11_M_put_nodeEPSt13_Rb_tree_nodeIS2_E
FN:564,_ZNSt8_Rb_treeIiSt4pairIKiS0_IP5GraphP6TripleEESt10_Select1stIS7_ESt4lessIiESaIS7_EE11_M_put_nodeEPSt13_Rb_tree_nodeIS7_E
FNDA:2,_ZNSt8_Rb_treeIiSt4pairIKiS0_IP5GraphP6TripleEESt10_Select1stIS7_ESt4lessIiESaIS7_EE11_M_put_nodeEPSt13_Rb_tree_nodeIS7_E
FN:590,_ZNSt8_Rb_treeIiSt4pairIKiS0_IP5GraphP6TripleEESt10_Select1stIS7_ESt4lessIiESaIS7_EE17_M_construct_nodeIJRKSt21piecewise_construct_tSt5tupleIJRS1_EESI_IJEEEEEvPSt13_Rb_tree_nodeIS7_EDpOT_
FNDA:2,_ZNSt8_Rb_treeIiSt4pairIKiS0_IP5GraphP6TripleEESt10_Select1stIS7_ESt4lessIiESaIS7_EE17_M_construct_nodeIJRKSt21piecewise_construct_tSt5tupleIJRS1_EESI_IJEEEEEvPSt13_Rb_tree_nodeIS7_EDpOT_
FN:609,_ZNSt8_Rb_treeIiSt4pairIKiS0_IP5GraphP6TripleEESt10_Select1stIS7_ESt4lessIiESaIS7_EE14_M_create_nodeIJRKSt21piecewise_construct_tSt5tupleIJRS1_EESI_IJEEEEEPSt13_Rb_tree_nodeIS7_EDpOT_
FNDA:2,_ZNSt8_Rb_treeIiSt4pairIKiS0_IP5GraphP6TripleEESt10_Select1stIS7_ESt4lessIiESaIS7_EE14_M_create_nodeIJRKSt21piecewise_construct_tSt5tupleIJRS1_EESI_IJEEEEEPSt13_Rb_tree_nodeIS7_EDpOT_
FN:618,_ZNSt8_Rb_treeImSt4pairIKmmESt10_Select1stIS2_ESt4lessImESaIS2_EE15_M_destroy_nodeEPSt13_Rb_tree_nodeIS2_E
FNDA:0,_ZNSt8_Rb_treeImSt4pairIKmmESt10_Select1stIS2_ESt4lessImESaIS2_EE15_M_destroy_nodeEPSt13_Rb_tree_nodeIS2_E
FN:618,_ZNSt8_Rb_treeIiSt4pairIKi6VertexESt10_Select1stIS3_ESt4lessIiESaIS3_EE15_M_destroy_nodeEPSt13_Rb_tree_nodeIS3_E
FNDA:0,_ZNSt8_Rb_treeIiSt4pairIKi6VertexESt10_Select1stIS3_ESt4lessIiESaIS3_EE15_M_destroy_nodeEPSt13_Rb_tree_nodeIS3_E
FN:618,_ZNSt8_Rb_treeIiSt4pairIKiS0_IP5GraphP6TripleEESt10_Select1stIS7_ESt4lessIiESaIS7_EE15_M_destroy_nodeEPSt13_Rb_tree_nodeIS7_E
FNDA:2,_ZNSt8_Rb_treeIiSt4pairIKiS0_IP5GraphP6TripleEESt10_Select1stIS7_ESt4lessIiESaIS7_EE15_M_destroy_nodeEPSt13_Rb_tree_nodeIS7_E
FN:629,_ZNSt8_Rb_treeIiSt4pairIKiS0_IP5GraphP6TripleEESt10_Select1stIS7_ESt4lessIiESaIS7_EE12_M_drop_nodeEPSt13_Rb_tree_nodeIS7_E
FNDA:2,_ZNSt8_Rb_treeIiSt4pairIKiS0_IP5GraphP6TripleEESt10_Select1stIS7_ESt4lessIiESaIS7_EE12_M_drop_nodeEPSt13_Rb_tree_nodeIS7_E
FN:629,_ZNSt8_Rb_treeIiSt4pairIKi6VertexESt10_Select1stIS3_ESt4lessIiESaIS3_EE12_M_drop_nodeEPSt13_Rb_tree_nodeIS3_E
FNDA:0,_ZNSt8_Rb_treeIiSt4pairIKi6VertexESt10_Select1stIS3_ESt4lessIiESaIS3_EE12_M_drop_nodeEPSt13_Rb_tree_nodeIS3_E
FN:629,_ZNSt8_Rb_treeImSt4pairIKmmESt10_Select1stIS2_ESt4lessImESaIS2_EE12_M_drop_nodeEPSt13_Rb_tree_nodeIS2_E
FNDA:0,_ZNSt8_Rb_treeImSt4pairIKmmESt10_Select1stIS2_ESt4lessImESaIS2_EE12_M_drop_nodeEPSt13_Rb_tree_nodeIS2_E
FN:667,_ZNSt8_Rb_treeIiSt4pairIKiS0_IP5GraphP6TripleEESt10_Select1stIS7_ESt4lessIiESaIS7_EE13_Rb_tree_implISB_Lb1EEC2Ev
FNDA:2,_ZNSt8_Rb_treeIiSt4pairIKiS0_IP5GraphP6TripleEESt10_Select1stIS7_ESt4lessIiESaIS7_EE13_Rb_tree_implISB_Lb1EEC2Ev
FN:718,_ZNSt8_Rb_treeIiSt4pairIKiS0_IP5GraphP6TripleEESt10_Select1stIS7_ESt4lessIiESaIS7_EE11_M_leftmostEv
FNDA:0,_ZNSt8_Rb_treeIiSt4pairIKiS0_IP5GraphP6TripleEESt10_Select1stIS7_ESt4lessIiESaIS7_EE11_M_leftmostEv
FN:726,_ZNSt8_Rb_treeIiSt4pairIKiS0_IP5GraphP6TripleEESt10_Select1stIS7_ESt4lessIiESaIS7_EE12_M_rightmostEv
FNDA:0,_ZNSt8_Rb_treeIiSt4pairIKiS0_IP5GraphP6TripleEESt10_Select1stIS7_ESt4lessIiESaIS7_EE12_M_rightmostEv
FN:734,_ZNKSt8_Rb_treeImSt4pairIKmmESt10_Select1stIS2_ESt4lessImESaIS2_EE9_M_mbeginEv
FNDA:0,_ZNKSt8_Rb_treeImSt4pairIKmmESt10_Select1stIS2_ESt4lessImESaIS2_EE9_M_mbeginEv
FN:734,_ZNKSt8_Rb_treeIiSt4pairIKiS0_IP5GraphP6TripleEESt10_Select1stIS7_ESt4lessIiESaIS7_EE9_M_mbeginEv
FNDA:27,_ZNKSt8_Rb_treeIiSt4pairIKiS0_IP5GraphP6TripleEESt10_Select1stIS7_ESt4lessIiESaIS7_EE9_M_mbeginEv
FN:734,_ZNKSt8_Rb_treeIiSt4pairIKi6VertexESt10_Select1stIS3_ESt4lessIiESaIS3_EE9_M_mbeginEv
FNDA:0,_ZNKSt8_Rb_treeIiSt4pairIKi6VertexESt10_Select1stIS3_ESt4lessIiESaIS3_EE9_M_mbeginEv
FN:738,_ZNSt8_Rb_treeIiSt4pairIKiS0_IP5GraphP6TripleEESt10_Select1stIS7_ESt4lessIiESaIS7_EE8_M_beginEv
FNDA:27,_ZNSt8_Rb_treeIiSt4pairIKiS0_IP5GraphP6TripleEESt10_Select1stIS7_ESt4lessIiESaIS7_EE8_M_beginEv
FN:738,_ZNSt8_Rb_treeImSt4pairIKmmESt10_Select1stIS2_ESt4lessImESaIS2_EE8_M_beginEv
FNDA:0,_ZNSt8_Rb_treeImSt4pairIKmmESt10_Select1stIS2_ESt4lessImESaIS2_EE8_M_beginEv
FN:738,_ZNSt8_Rb_treeIiSt4pairIKi6VertexESt10_Select1stIS3_ESt4lessIiESaIS3_EE8_M_beginEv
FNDA:0,_ZNSt8_Rb_treeIiSt4pairIKi6VertexESt10_Select1stIS3_ESt4lessIiESaIS3_EE8_M_beginEv
FN:749,_ZNSt8_Rb_treeIiSt4pairIKiS0_IP5GraphP6TripleEESt10_Select1stIS7_ESt4lessIiESaIS7_EE6_M_endEv
FNDA:28,_ZNSt8_Rb_treeIiSt4pairIKiS0_IP5GraphP6TripleEESt10_Select1stIS7_ESt4lessIiESaIS7_EE6_M_endEv
FN:757,_ZNSt8_Rb_treeIiSt4pairIKiS0_IP5GraphP6TripleEESt10_Select1stIS7_ESt4lessIiESaIS7_EE6_S_keyEPKSt13_Rb_tree_nodeIS7_E
FNDA:23,_ZNSt8_Rb_treeIiSt4pairIKiS0_IP5GraphP6TripleEESt10_Select1stIS7_ESt4lessIiESaIS7_EE6_S_keyEPKSt13_Rb_tree_nodeIS7_E
FN:779,_ZNSt8_Rb_treeIiSt4pairIKi6VertexESt10_Select1stIS3_ESt4lessIiESaIS3_EE7_S_leftEPSt18_Rb_tree_node_base
FNDA:0,_ZNSt8_Rb_treeIiSt4pairIKi6VertexESt10_Select1stIS3_ESt4lessIiESaIS3_EE7_S_leftEPSt18_Rb_tree_node_base
FN:779,_ZNSt8_Rb_treeImSt4pairIKmmESt10_Select1stIS2_ESt4lessImESaIS2_EE7_S_leftEPSt18_Rb_tree_node_base
FNDA:0,_ZNSt8_Rb_treeImSt4pairIKmmESt10_Select1stIS2_ESt4lessImESaIS2_EE7_S_leftEPSt18_Rb_tree_node_base
FN:779,_ZNSt8_Rb_treeIiSt4pairIKiS0_IP5GraphP6TripleEESt10_Select1stIS7_ESt4lessIiESaIS7_EE7_S_leftEPSt18_Rb_tree_node_base
FNDA:22,_ZNSt8_Rb_treeIiSt4pairIKiS0_IP5GraphP6TripleEESt10_Select1stIS7_ESt4lessIiESaIS7_EE7_S_leftEPSt18_Rb_tree_node_base
FN:787,_ZNSt8_Rb_treeIiSt4pairIKi6VertexESt10_Select1stIS3_ESt4lessIiESaIS3_EE8_S_rightEPSt18_Rb_tree_node_base
FNDA:0,_ZNSt8_Rb_treeIiSt4pairIKi6VertexESt10_Select1stIS3_ESt4lessIiESaIS3_EE8_S_rightEPSt18_Rb_tree_node_base
FN:787,_ZNSt8_Rb_treeImSt4pairIKmmESt10_Select1stIS2_ESt4lessImESaIS2_EE8_S_rightEPSt18_Rb_tree_node_base
FNDA:0,_ZNSt8_Rb_treeImSt4pairIKmmESt10_Select1stIS2_ESt4lessImESaIS2_EE8_S_rightEPSt18_Rb_tree_node_base
FN:787,_ZNSt8_Rb_treeIiSt4pairIKiS0_IP5GraphP6TripleEESt10_Select1stIS7_ESt4lessIiESaIS7_EE8_S_rightEPSt18_Rb_tree_node_base
FNDA:3,_ZNSt8_Rb_treeIiSt4pairIKiS0_IP5GraphP6TripleEESt10_Select1stIS7_ESt4lessIiESaIS7_EE8_S_rightEPSt18_Rb_tree_node_base
FN:795,_ZNSt8_Rb_treeIiSt4pairIKiS0_IP5GraphP6TripleEESt10_Select1stIS7_ESt4lessIiESaIS7_EE6_S_keyEPKSt18_Rb_tree_node_base
FNDA:0,_ZNSt8_Rb_treeIiSt4pairIKiS0_IP5GraphP6TripleEESt10_Select1stIS7_ESt4lessIiESaIS7_EE6_S_keyEPKSt18_Rb_tree_node_base
FN:928,_ZNSt8_Rb_treeIiSt4pairIKiS0_IP5GraphP6TripleEESt10_Select1stIS7_ESt4lessIiESaIS7_EEC2Ev
FNDA:2,_ZNSt8_Rb_treeIiSt4pairIKiS0_IP5GraphP6TripleEESt10_Select1stIS7_ESt4lessIiESaIS7_EEC2Ev
FN:983,_ZNSt8_Rb_treeImSt4pairIKmmESt10_Select1stIS2_ESt4lessImESaIS2_EED2Ev
FNDA:0,_ZNSt8_Rb_treeImSt4pairIKmmESt10_Select1stIS2_ESt4lessImESaIS2_EED2Ev
FN:983,_ZNSt8_Rb_treeIiSt4pairIKiS0_IP5GraphP6TripleEESt10_Select1stIS7_ESt4lessIiESaIS7_EED2Ev
FNDA:2,_ZNSt8_Rb_treeIiSt4pairIKiS0_IP5GraphP6TripleEESt10_Select1stIS7_ESt4lessIiESaIS7_EED2Ev
FN:983,_ZNSt8_Rb_treeIiSt4pairIKi6VertexESt10_Select1stIS3_ESt4lessIiESaIS3_EED2Ev
FNDA:0,_ZNSt8_Rb_treeIiSt4pairIKi6VertexESt10_Select1stIS3_ESt4lessIiESaIS3_EED2Ev
FN:991,_ZNKSt8_Rb_treeIiSt4pairIKiS0_IP5GraphP6TripleEESt10_Select1stIS7_ESt4lessIiESaIS7_EE8key_compEv
FNDA:19,_ZNKSt8_Rb_treeIiSt4pairIKiS0_IP5GraphP6TripleEESt10_Select1stIS7_ESt4lessIiESaIS7_EE8key_compEv
FN:995,_ZNSt8_Rb_treeIiSt4pairIKiS0_IP5GraphP6TripleEESt10_Select1stIS7_ESt4lessIiESaIS7_EE5beginEv
FNDA:5,_ZNSt8_Rb_treeIiSt4pairIKiS0_IP5GraphP6TripleEESt10_Select1stIS7_ESt4lessIiESaIS7_EE5beginEv
FN:1003,_ZNSt8_Rb_treeIiSt4pairIKiS0_IP5GraphP6TripleEESt10_Select1stIS7_ESt4lessIiESaIS7_EE3endEv
FNDA:24,_ZNSt8_Rb_treeIiSt4pairIKiS0_IP5GraphP6TripleEESt10_Select1stIS7_ESt4lessIiESaIS7_EE3endEv
FN:1031,_ZNKSt8_Rb_treeIiSt4pairIKiS0_IP5GraphP6TripleEESt10_Select1stIS7_ESt4lessIiESaIS7_EE4sizeEv
FNDA:4,_ZNKSt8_Rb_treeIiSt4pairIKiS0_IP5GraphP6TripleEESt10_Select1stIS7_ESt4lessIiESaIS7_EE4sizeEv
FN:1252,_ZNSt8_Rb_treeIiSt4pairIKiS0_IP5GraphP6TripleEESt10_Select1stIS7_ESt4lessIiESaIS7_EE5clearEv
FNDA:1,_ZNSt8_Rb_treeIiSt4pairIKiS0_IP5GraphP6TripleEESt10_Select1stIS7_ESt4lessIiESaIS7_EE5clearEv
FN:1269,_ZNSt8_Rb_treeIiSt4pairIKiS0_IP5GraphP6TripleEESt10_Select1stIS7_ESt4lessIiESaIS7_EE11lower_boundERS1_
FNDA:21,_ZNSt8_Rb_treeIiSt4pairIKiS0_IP5GraphP6TripleEESt10_Select1stIS7_ESt4lessIiESaIS7_EE11lower_boundERS1_
FN:1883,_ZNSt8_Rb_treeIiSt4pairIKi6VertexESt10_Select1stIS3_ESt4lessIiESaIS3_EE8_M_eraseEPSt13_Rb_tree_nodeIS3_E
FNDA:0,_ZNSt8_Rb_treeIiSt4pairIKi6VertexESt10_Select1stIS3_ESt4lessIiESaIS3_EE8_M_eraseEPSt13_Rb_tree_nodeIS3_E
FN:1883,_ZNSt8_Rb_treeImSt4pairIKmmESt10_Select1stIS2_ESt4lessImESaIS2_EE8_M_eraseEPSt13_Rb_tree_nodeIS2_E
FNDA:0,_ZNSt8_Rb_treeImSt4pairIKmmESt10_Select1stIS2_ESt4lessImESaIS2_EE8_M_eraseEPSt13_Rb_tree_nodeIS2_E
FN:1883,_ZNSt8_Rb_treeIiSt4pairIKiS0_IP5GraphP6TripleEESt10_Select1stIS7_ESt4lessIiESaIS7_EE8_M_eraseEPSt13_Rb_tree_nodeIS7_E
FNDA:5,_ZNSt8_Rb_treeIiSt4pairIKiS0_IP5GraphP6TripleEESt10_Select1stIS7_ESt4lessIiESaIS7_EE8_M_eraseEPSt13_Rb_tree_nodeIS7_E
FN:1900,_ZNSt8_Rb_treeIiSt4pairIKiS0_IP5GraphP6TripleEESt10_Select1stIS7_ESt4lessIiESaIS7_EE14_M_lower_boundEPSt13_Rb_tree_nodeIS7_EPSt18_Rb_tree_node_baseRS1_
FNDA:22,_ZNSt8_Rb_treeIiSt4pairIKiS0_IP5GraphP6TripleEESt10_Select1stIS7_ESt4lessIiESaIS7_EE14_M_lower_boundEPSt13_Rb_tree_nodeIS7_EPSt18_Rb_tree_node_baseRS1_
FN:1932,_ZNSt8_Rb_treeIiSt4pairIKiS0_IP5GraphP6TripleEESt10_Select1stIS7_ESt4lessIiESaIS7_EE14_M_upper_boundEPSt13_Rb_tree_nodeIS7_EPSt18_Rb_tree_node_baseRS1_
FNDA:1,_ZNSt8_Rb_treeIiSt4pairIKiS0_IP5GraphP6TripleEESt10_Select1stIS7_ESt4lessIiESaIS7_EE14_M_upper_boundEPSt13_Rb_tree_nodeIS7_EPSt18_Rb_tree_node_baseRS1_
FN:1966,_ZNSt8_Rb_treeIiSt4pairIKiS0_IP5GraphP6TripleEESt10_Select1stIS7_ESt4lessIiESaIS7_EE11equal_rangeERS1_
FNDA:1,_ZNSt8_Rb_treeIiSt4pairIKiS0_IP5GraphP6TripleEESt10_Select1stIS7_ESt4lessIiESaIS7_EE11equal_rangeERS1_
FN:2061,_ZNSt8_Rb_treeIiSt4pairIKiS0_IP5GraphP6TripleEESt10_Select1stIS7_ESt4lessIiESaIS7_EE24_M_get_insert_unique_posERS1_
FNDA:2,_ZNSt8_Rb_treeIiSt4pairIKiS0_IP5GraphP6TripleEESt10_Select1stIS7_ESt4lessIiESaIS7_EE24_M_get_insert_unique_posERS1_
FN:2163,_ZNSt8_Rb_treeIiSt4pairIKiS0_IP5GraphP6TripleEESt10_Select1stIS7_ESt4lessIiESaIS7_EE29_M_get_insert_hint_unique_posESt23_Rb_tree_const_iteratorIS7_ERS1_
FNDA:2,_ZNSt8_Rb_treeIiSt4pairIKiS0_IP5GraphP6TripleEESt10_Select1stIS7_ESt4lessIiESaIS7_EE29_M_get_insert_hint_unique_posESt23_Rb_tree_const_iteratorIS7_ERS1_
FN:2330,_ZNSt8_Rb_treeIiSt4pairIKiS0_IP5GraphP6TripleEESt10_Select1stIS7_ESt4lessIiESaIS7_EE14_M_insert_nodeEPSt18_Rb_tree_node_baseSF_PSt13_Rb_tree_nodeIS7_E
FNDA:2,_ZNSt8_Rb_treeIiSt4pairIKiS0_IP5GraphP6TripleEESt10_Select1stIS7_ESt4lessIiESaIS7_EE14_M_insert_nodeEPSt18_Rb_tree_node_baseSF_PSt13_Rb_tree_nodeIS7_E
FN:2428,_ZNSt8_Rb_treeIiSt4pairIKiS0_IP5GraphP6TripleEESt10_Select1stIS7_ESt4lessIiESaIS7_EE22_M_emplace_hint_uniqueIJRKSt21piecewise_construct_tSt5tupleIJRS1_EESI_IJEEEEESt17_Rb_tree_iteratorIS7_ESt23_Rb_tree_const_iteratorIS7_EDpOT_
FNDA:2,_ZNSt8_Rb_treeIiSt4pairIKiS0_IP5GraphP6TripleEESt10_Select1stIS7_ESt4lessIiESaIS7_EE22_M_emplace_hint_uniqueIJRKSt21piecewise_construct_tSt5tupleIJRS1_EESI_IJEEEEESt17_Rb_tree_iteratorIS7_ESt23_Rb_tree_const_iteratorIS7_EDpOT_
FN:2480,_ZNSt8_Rb_treeIiSt4pairIKiS0_IP5GraphP6TripleEESt10_Select1stIS7_ESt4lessIiESaIS7_EE12_M_erase_auxESt23_Rb_tree_const_iteratorIS7_E
FNDA:0,_ZNSt8_Rb_treeIiSt4pairIKiS0_IP5GraphP6TripleEESt10_Select1stIS7_ESt4lessIiESaIS7_EE12_M_erase_auxESt23_Rb_tree_const_iteratorIS7_E
FN:2494,_ZNSt8_Rb_treeIiSt4pairIKiS0_IP5GraphP6TripleEESt10_Select1stIS7_ESt4lessIiESaIS7_EE12_M_erase_auxESt23_Rb_tree_const_iteratorIS7_ESF_
FNDA:1,_ZNSt8_Rb_treeIiSt4pairIKiS0_IP5GraphP6TripleEESt10_Select1stIS7_ESt4lessIiESaIS7_EE12_M_erase_auxESt23_Rb_tree_const_iteratorIS7_ESF_
FN:2507,_ZNSt8_Rb_treeIiSt4pairIKiS0_IP5GraphP6TripleEESt10_Select1stIS7_ESt4lessIiESaIS7_EE5eraseERS1_
FNDA:1,_ZNSt8_Rb_treeIiSt4pairIKiS0_IP5GraphP6TripleEESt10_Select1stIS7_ESt4lessIiESaIS7_EE5eraseERS1_
DA:146,0
DA:150,0
DA:173,0
DA:174,0
DA:175,0
DA:176,0
DA:177,0
DA:206,0
DA:208,0
DA:209,0
DA:210,0
DA:211,0
DA:212,0
DA:234,0
DA:235,0
DA:234,0
DA:235,0
DA:234,45
DA:235,45
DA:238,23
DA:239,23
DA:273,58
DA:274,58
DA:277,41
DA:278,41
DA:285,1
DA:287,1
DA:288,1
DA:300,0
DA:302,0
DA:303,0
DA:315,23
DA:316,23
DA:320,3
DA:321,3
DA:350,6
DA:351,6
DA:354,2
DA:355,2
DA:373,0
DA:375,0
DA:376,0
DA:377,0
DA:396,2
DA:397,2
DA:401,0
DA:402,0
DA:547,0
DA:548,0
DA:547,0
DA:548,0
DA:547,8
DA:548,8
DA:560,2
DA:561,2
DA:564,0
DA:565,0
DA:564,0
DA:565,0
DA:564,2
DA:565,2
DA:590,2
DA:594,2
DA:595,2
DA:599,0
DA:601,0
DA:602,0
DA:603,0
DA:605,2
DA:609,2
DA:611,2
DA:612,2
DA:613,2
DA:618,0
DA:623,0
DA:624,0
DA:626,0
DA:618,0
DA:623,0
DA:624,0
DA:626,0
DA:618,2
DA:623,2
DA:624,2
DA:626,2
DA:629,0
DA:631,0
DA:632,0
DA:633,0
DA:629,0
DA:631,0
DA:632,0
DA:633,0
DA:629,2
DA:631,2
DA:632,2
DA:633,2
DA:667,2
DA:671,2
DA:672,2
DA:718,0
DA:719,0
DA:726,0
DA:727,0
DA:734,0
DA:735,0
DA:734,0
DA:735,0
DA:734,27
DA:735,27
DA:738,0
DA:739,0
DA:738,0
DA:739,0
DA:738,27
DA:739,27
DA:749,28
DA:750,28
DA:757,23
DA:775,23
DA:779,0
DA:780,0
DA:779,0
DA:780,0
DA:779,22
DA:780,22
DA:787,0
DA:788,0
DA:787,0
DA:788,0
DA:787,3
DA:788,3
DA:795,0
DA:796,0
DA:928,2
DA:983,0
DA:984,0
DA:983,0
DA:984,0
DA:983,2
DA:984,2
DA:991,19
DA:992,19
DA:995,5
DA:996,5
DA:1003,24
DA:1004,24
DA:1031,4
DA:1032,4
DA:1252,1
DA:1254,1
DA:1255,1
DA:1256,1
DA:1269,21
DA:1270,21
DA:1883,0
DA:1887,0
DA:1889,0
DA:1890,0
DA:1891,0
DA:1892,0
DA:1894,0
DA:1883,0
DA:1887,0
DA:1889,0
DA:1890,0
DA:1891,0
DA:1892,0
DA:1894,0
DA:1883,5
DA:1887,7
DA:1889,2
DA:1890,2
DA:1891,2
DA:1892,2
DA:1894,5
DA:1900,22
DA:1904,41
DA:1905,19
DA:1906,19
DA:1908,0
DA:1909,22
DA:1932,1
DA:1936,1
DA:1937,0
DA:1938,0
DA:1940,0
DA:1941,1
DA:1966,1
DA:1969,1
DA:1970,1
DA:1971,1
DA:1973,1
DA:1974,0
DA:1975,1
DA:1976,0
DA:1979,1
DA:1980,1
DA:1981,1
DA:1982,1
DA:1983,1
DA:1984,1
DA:1985,2
DA:1988,0
DA:1989,0
DA:2061,2
DA:2065,2
DA:2066,2
DA:2067,2
DA:2068,2
DA:2070,0
DA:2071,0
DA:2072,0
DA:2074,2
DA:2075,2
DA:2077,2
DA:2078,2
DA:2080,0
DA:2082,0
DA:2083,0
DA:2084,0
DA:2163,2
DA:2167,2
DA:2171,2
DA:2173,2
DA:2174,2
DA:2175,0
DA:2177,2
DA:2179,0
DA:2182,0
DA:2183,0
DA:2184,0
DA:2185,0
DA:2187,0
DA:2188,0
DA:2190,0
DA:2193,0
DA:2195,0
DA:2198,0
DA:2199,0
DA:2200,0
DA:2201,0
DA:2203,0
DA:2204,0
DA:2206,0
DA:2209,0
DA:2213,0
DA:2330,2
DA:2333,2
DA:2334,4
DA:2337,2
DA:2338,2
DA:2339,2
DA:2340,2
DA:2428,2
DA:2431,2
DA:2435,2
DA:2437,2
DA:2438,2
DA:2440,0
DA:2441,0
DA:2443,0
DA:2445,0
DA:2446,0
DA:2480,0
DA:2485,0
DA:2486,0
DA:2487,0
DA:2488,0
DA:2489,0
DA:2494,1
DA:2497,1
DA:2498,1
DA:2500,0
DA:2501,0
DA:2502,1
DA:2507,1
DA:2510,1
DA:2511,1
DA:2512,1
DA:2513,1
end_of_record
SF:/usr/include/c++/11/iostream
end_of_record
SF:/home/imri/OS-FinalProject/GraphObj/vertex.hpp
end_of_record
SF:/usr/include/c++/11/bits/stl_algobase.h
FN:230,_ZSt3minImERKT_S2_S2_
FNDA:0,_ZSt3minImERKT_S2_S2_
FN:2061,_ZSt9__find_ifIN9__gnu_cxx17__normal_iteratorIPKNSt7__cxx1112basic_stringIcSt11char_traitsIcESaIcEEESt6vectorIS7_SaIS7_EEEENS0_5__ops16_Iter_equals_valIS8_EEET_SH_SH_T0_St26random_access_iterator_tag
FNDA:7,_ZSt9__find_ifIN9__gnu_cxx17__normal_iteratorIPKNSt7__cxx1112basic_stringIcSt11char_traitsIcESaIcEEESt6vectorIS7_SaIS7_EEEENS0_5__ops16_Iter_equals_valIS8_EEET_SH_SH_T0_St26random_access_iterator_tag
FN:2112,_ZSt9__find_ifIN9__gnu_cxx17__normal_iteratorIPKNSt7__cxx1112basic_stringIcSt11char_traitsIcESaIcEEESt6vectorIS7_SaIS7_EEEENS0_5__ops16_Iter_equals_valIS8_EEET_SH_SH_T0_
FNDA:7,_ZSt9__find_ifIN9__gnu_cxx17__normal_iteratorIPKNSt7__cxx1112basic_stringIcSt11char_traitsIcESaIcEEESt6vectorIS7_SaIS7_EEEENS0_5__ops16_Iter_equals_valIS8_EEET_SH_SH_T0_
DA:230,0
DA:235,0
DA:236,0
DA:237,0
DA:2061,7
DA:2065,7
DA:2067,7
DA:2069,7
DA:2070,5
DA:2071,2
DA:2073,2
DA:2074,0
DA:2075,2
DA:2077,2
DA:2078,0
DA:2079,2
DA:2081,2
DA:2082,2
DA:2083,0
DA:2086,0
DA:2088,0
DA:2089,0
DA:2090,0
DA:2091,0
DA:2093,0
DA:2094,0
DA:2095,0
DA:2096,0
DA:2098,0
DA:2099,0
DA:2100,0
DA:2101,0
DA:2103,0
DA:2105,0
DA:2112,7
DA:2114,7
DA:2115,14
end_of_record
SF:/usr/include/c++/11/bits/move.h
FN:49,_ZSt11__addressofIKZ4mainEUlPvE1_EPT_RS3_
FNDA:7,_ZSt11__addressofIKZ4mainEUlPvE1_EPT_RS3_
FN:49,_ZSt11__addressofINSt8__detail10_Hash_nodeI4EdgeLb1EEEEPT_RS4_
FNDA:0,_ZSt11__addressofINSt8__detail10_Hash_nodeI4EdgeLb1EEEEPT_RS4_
FN:49,_ZSt11__addressofINSt7__cxx1112basic_stringIcSt11char_traitsIcESaIcEEEEPT_RS6_
FNDA:70,_ZSt11__addressofINSt7__cxx1112basic_stringIcSt11char_traitsIcESaIcEEEEPT_RS6_
FN:49,_ZSt11__addressofIPNSt8__detail15_Hash_node_baseEEPT_RS3_
FNDA:0,_ZSt11__addressofIPNSt8__detail15_Hash_node_baseEEPT_RS3_
FN:49,_ZSt11__addressofIKZ4mainEUlPvE2_EPT_RS3_
FNDA:7,_ZSt11__addressofIKZ4mainEUlPvE2_EPT_RS3_
FN:49,_ZSt11__addressofI4EdgeEPT_RS1_
FNDA:0,_ZSt11__addressofI4EdgeEPT_RS1_
FN:49,_ZSt11__addressofIKZ4mainEUlPvE3_EPT_RS3_
FNDA:5,_ZSt11__addressofIKZ4mainEUlPvE3_EPT_RS3_
FN:49,_ZSt11__addressofIKZ4mainEUlPvE0_EPT_RS3_
FNDA:9,_ZSt11__addressofIKZ4mainEUlPvE0_EPT_RS3_
FN:49,_ZSt11__addressofISt8functionIFvPvEEEPT_RS4_
FNDA:12,_ZSt11__addressofISt8functionIFvPvEEEPT_RS4_
FN:49,_ZSt11__addressofIKZ4mainEUlPvE4_EPT_RS3_
FNDA:5,_ZSt11__addressofIKZ4mainEUlPvE4_EPT_RS3_
FN:49,_ZSt11__addressofIKZ4mainEUlPvE_EPT_RS3_
FNDA:11,_ZSt11__addressofIKZ4mainEUlPvE_EPT_RS3_
FN:49,_ZSt11__addressofISt6vectorImSaImEEEPT_RS3_
FNDA:0,_ZSt11__addressofISt6vectorImSaImEEEPT_RS3_
FN:77,_ZSt7forwardIRKSt21piecewise_construct_tEOT_RNSt16remove_referenceIS3_E4typeE
FNDA:0,_ZSt7forwardIRKSt21piecewise_construct_tEOT_RNSt16remove_referenceIS3_E4typeE
FN:77,_ZSt7forwardIRZ4mainEUlPvE0_EOT_RNSt16remove_referenceIS3_E4typeE
FNDA:2,_ZSt7forwardIRZ4mainEUlPvE0_EOT_RNSt16remove_referenceIS3_E4typeE
FN:77,_ZSt7forwardIRZ4mainEUlPvE_EOT_RNSt16remove_referenceIS3_E4typeE
FNDA:2,_ZSt7forwardIRZ4mainEUlPvE_EOT_RNSt16remove_referenceIS3_E4typeE
FN:77,_ZSt7forwardIPvEOT_RNSt16remove_referenceIS1_E4typeE
FNDA:24,_ZSt7forwardIPvEOT_RNSt16remove_referenceIS1_E4typeE
FN:77,_ZSt7forwardISt5tupleIJEEEOT_RNSt16remove_referenceIS2_E4typeE
FNDA:0,_ZSt7forwardISt5tupleIJEEEOT_RNSt16remove_referenceIS2_E4typeE
FN:77,_ZSt7forwardISt5tupleIJRKiEEEOT_RNSt16remove_referenceIS4_E4typeE
FNDA:0,_ZSt7forwardISt5tupleIJRKiEEEOT_RNSt16remove_referenceIS4_E4typeE
FN:77,_ZSt7forwardIRZ4mainEUlPvE2_EOT_RNSt16remove_referenceIS3_E4typeE
FNDA:2,_ZSt7forwardIRZ4mainEUlPvE2_EOT_RNSt16remove_referenceIS3_E4typeE
FN:77,_ZSt7forwardIZ4mainEUlPvE4_EOT_RNSt16remove_referenceIS2_E4typeE
FNDA:6,_ZSt7forwardIZ4mainEUlPvE4_EOT_RNSt16remove_referenceIS2_E4typeE
FN:77,_ZSt7forwardIZ4mainEUlPvE3_EOT_RNSt16remove_referenceIS2_E4typeE
FNDA:6,_ZSt7forwardIZ4mainEUlPvE3_EOT_RNSt16remove_referenceIS2_E4typeE
FN:77,_ZSt7forwardIZ4mainEUlPvE2_EOT_RNSt16remove_referenceIS2_E4typeE
FNDA:6,_ZSt7forwardIZ4mainEUlPvE2_EOT_RNSt16remove_referenceIS2_E4typeE
FN:77,_ZSt7forwardIZ4mainEUlPvE1_EOT_RNSt16remove_referenceIS2_E4typeE
FNDA:6,_ZSt7forwardIZ4mainEUlPvE1_EOT_RNSt16remove_referenceIS2_E4typeE
FN:77,_ZSt7forwardIZ4mainEUlPvE0_EOT_RNSt16remove_referenceIS2_E4typeE
FNDA:6,_ZSt7forwardIZ4mainEUlPvE0_EOT_RNSt16remove_referenceIS2_E4typeE
FN:77,_ZSt7forwardIZ4mainEUlPvE_EOT_RNSt16remove_referenceIS2_E4typeE
FNDA:6,_ZSt7forwardIZ4mainEUlPvE_EOT_RNSt16remove_referenceIS2_E4typeE
FN:77,_ZSt7forwardIRA1_KcEOT_RNSt16remove_referenceIS3_E4typeE
FNDA:1,_ZSt7forwardIRA1_KcEOT_RNSt16remove_referenceIS3_E4typeE
FN:77,_ZSt7forwardIDnEOT_RNSt16remove_referenceIS0_E4typeE
FNDA:9,_ZSt7forwardIDnEOT_RNSt16remove_referenceIS0_E4typeE
FN:77,_ZSt7forwardIRKZ4mainEUlPvE4_EOT_RNSt16remove_referenceIS4_E4typeE
FNDA:8,_ZSt7forwardIRKZ4mainEUlPvE4_EOT_RNSt16remove_referenceIS4_E4typeE
FN:77,_ZSt7forwardIRKiEOT_RNSt16remove_referenceIS2_E4typeE
FNDA:0,_ZSt7forwardIRKiEOT_RNSt16remove_referenceIS2_E4typeE
FN:77,_ZSt7forwardIRKNSt7__cxx1112basic_stringIcSt11char_traitsIcESaIcEEEEOT_RNSt16remove_referenceIS8_E4typeE
FNDA:61,_ZSt7forwardIRKNSt7__cxx1112basic_stringIcSt11char_traitsIcESaIcEEEEOT_RNSt16remove_referenceIS8_E4typeE
FN:77,_ZSt7forwardIRKSt8functionIFvPvEEEOT_RNSt16remove_referenceIS6_E4typeE
FNDA:12,_ZSt7forwardIRKSt8functionIFvPvEEEOT_RNSt16remove_referenceIS6_E4typeE
FN:77,_ZSt7forwardIRPSt13_Rb_tree_nodeISt4pairIKiS1_IP5GraphP6TripleEEEEOT_RNSt16remove_referenceISC_E4typeE
FNDA:2,_ZSt7forwardIRPSt13_Rb_tree_nodeISt4pairIKiS1_IP5GraphP6TripleEEEEOT_RNSt16remove_referenceISC_E4typeE
FN:77,_ZSt7forwardISt17_Rb_tree_iteratorISt4pairIKiS1_IP5GraphP6TripleEEEEOT_RNSt16remove_referenceISA_E4typeE
FNDA:2,_ZSt7forwardISt17_Rb_tree_iteratorISt4pairIKiS1_IP5GraphP6TripleEEEEOT_RNSt16remove_referenceISA_E4typeE
FN:77,_ZSt7forwardIRZ4mainEUlPvE1_EOT_RNSt16remove_referenceIS3_E4typeE
FNDA:2,_ZSt7forwardIRZ4mainEUlPvE1_EOT_RNSt16remove_referenceIS3_E4typeE
FN:77,_ZSt7forwardIRKZ4mainEUlPvE3_EOT_RNSt16remove_referenceIS4_E4typeE
FNDA:8,_ZSt7forwardIRKZ4mainEUlPvE3_EOT_RNSt16remove_referenceIS4_E4typeE
FN:77,_ZSt7forwardIRKZ4mainEUlPvE2_EOT_RNSt16remove_referenceIS4_E4typeE
FNDA:12,_ZSt7forwardIRKZ4mainEUlPvE2_EOT_RNSt16remove_referenceIS4_E4typeE
FN:77,_ZSt7forwardIRKZ4mainEUlPvE1_EOT_RNSt16remove_referenceIS4_E4typeE
FNDA:12,_ZSt7forwardIRKZ4mainEUlPvE1_EOT_RNSt16remove_referenceIS4_E4typeE
FN:77,_ZSt7forwardIRKZ4mainEUlPvE0_EOT_RNSt16remove_referenceIS4_E4typeE
FNDA:16,_ZSt7forwardIRKZ4mainEUlPvE0_EOT_RNSt16remove_referenceIS4_E4typeE
FN:77,_ZSt7forwardIRKZ4mainEUlPvE_EOT_RNSt16remove_referenceIS4_E4typeE
FNDA:20,_ZSt7forwardIRKZ4mainEUlPvE_EOT_RNSt16remove_referenceIS4_E4typeE
FN:77,_ZSt7forwardIRPSt18_Rb_tree_node_baseEOT_RNSt16remove_referenceIS3_E4typeE
FNDA:0,_ZSt7forwardIRPSt18_Rb_tree_node_baseEOT_RNSt16remove_referenceIS3_E4typeE
FN:77,_ZSt7forwardIRZ4mainEUlPvE4_EOT_RNSt16remove_referenceIS3_E4typeE
FNDA:2,_ZSt7forwardIRZ4mainEUlPvE4_EOT_RNSt16remove_referenceIS3_E4typeE
FN:77,_ZSt7forwardIRZ4mainEUlPvE3_EOT_RNSt16remove_referenceIS3_E4typeE
FNDA:2,_ZSt7forwardIRZ4mainEUlPvE3_EOT_RNSt16remove_referenceIS3_E4typeE
FN:104,_ZSt4moveIRNSt7__cxx1112basic_stringIcSt11char_traitsIcESaIcEEEEONSt16remove_referenceIT_E4typeEOS8_
FNDA:0,_ZSt4moveIRNSt7__cxx1112basic_stringIcSt11char_traitsIcESaIcEEEEONSt16remove_referenceIT_E4typeEOS8_
FN:104,_ZSt4moveIRSaIcEEONSt16remove_referenceIT_E4typeEOS3_
FNDA:0,_ZSt4moveIRSaIcEEONSt16remove_referenceIT_E4typeEOS3_
FN:145,_ZSt9addressofIPNSt8__detail15_Hash_node_baseEEPT_RS3_
FNDA:0,_ZSt9addressofIPNSt8__detail15_Hash_node_baseEEPT_RS3_
FN:145,_ZSt9addressofINSt8__detail10_Hash_nodeI4EdgeLb1EEEEPT_RS4_
FNDA:0,_ZSt9addressofINSt8__detail10_Hash_nodeI4EdgeLb1EEEEPT_RS4_
DA:49,0
DA:50,0
DA:49,0
DA:50,0
DA:49,0
DA:50,0
DA:49,12
DA:50,12
DA:49,0
DA:50,0
DA:49,5
DA:50,5
DA:49,5
DA:50,5
DA:49,7
DA:50,7
DA:49,7
DA:50,7
DA:49,9
DA:50,9
DA:49,11
DA:50,11
DA:49,70
DA:50,70
DA:77,2
DA:78,2
DA:77,9
DA:78,9
DA:77,1
DA:78,1
DA:77,6
DA:78,6
DA:77,6
DA:78,6
DA:77,6
DA:78,6
DA:77,6
DA:78,6
DA:77,6
DA:78,6
DA:77,6
DA:78,6
DA:77,0
DA:78,0
DA:77,0
DA:78,0
DA:77,0
DA:78,0
DA:77,24
DA:78,24
DA:77,2
DA:78,2
DA:77,2
DA:78,2
DA:77,0
DA:78,0
DA:77,2
DA:78,2
DA:77,2
DA:78,2
DA:77,2
DA:78,2
DA:77,0
DA:78,0
DA:77,20
DA:78,20
DA:77,16
DA:78,16
DA:77,12
DA:78,12
DA:77,12
DA:78,12
DA:77,8
DA:78,8
DA:77,8
DA:78,8
DA:77,2
DA:78,2
DA:77,2
DA:78,2
DA:77,12
DA:78,12
DA:77,61
DA:78,61
DA:104,0
DA:105,0
DA:104,0
DA:105,0
DA:145,0
DA:146,0
DA:145,0
DA:146,0
end_of_record
SF:/usr/include/c++/11/bits/basic_string.h
FN:251,_ZNSt7__cxx1112basic_stringIcSt11char_traitsIcESaIcEE16_M_construct_auxIPcEEvT_S7_St12__false_type
FNDA:0,_ZNSt7__cxx1112basic_stringIcSt11char_traitsIcESaIcEE16_M_construct_auxIPcEEvT_S7_St12__false_type
FN:271,_ZNSt7__cxx1112basic_stringIcSt11char_traitsIcESaIcEE12_M_constructIPcEEvT_S7_
FNDA:0,_ZNSt7__cxx1112basic_stringIcSt11char_traitsIcESaIcEE12_M_constructIPcEEvT_S7_
FN:533,_ZNSt7__cxx1112basic_stringIcSt11char_traitsIcESaIcEEC2IS3_EEPKcRKS3_
FNDA:0,_ZNSt7__cxx1112basic_stringIcSt11char_traitsIcESaIcEEC2IS3_EEPKcRKS3_
FN:553,_ZNSt7__cxx1112basic_stringIcSt11char_traitsIcESaIcEEC2IS3_EEmcRKS3_
FNDA:0,_ZNSt7__cxx1112basic_stringIcSt11char_traitsIcESaIcEEC2IS3_EEmcRKS3_
FN:638,_ZNSt7__cxx1112basic_stringIcSt11char_traitsIcESaIcEEC2IPcvEET_S7_RKS3_
FNDA:0,_ZNSt7__cxx1112basic_stringIcSt11char_traitsIcESaIcEEC2IPcvEET_S7_RKS3_
FN:6194,_ZStplIcSt11char_traitsIcESaIcEENSt7__cxx1112basic_stringIT_T0_T1_EEPKS5_OS8_
FNDA:0,_ZStplIcSt11char_traitsIcESaIcEENSt7__cxx1112basic_stringIT_T0_T1_EEPKS5_OS8_
FN:6206,_ZStplIcSt11char_traitsIcESaIcEENSt7__cxx1112basic_stringIT_T0_T1_EEOS8_PKS5_
FNDA:0,_ZStplIcSt11char_traitsIcESaIcEENSt7__cxx1112basic_stringIT_T0_T1_EEOS8_PKS5_
FN:6234,_ZSteqIcEN9__gnu_cxx11__enable_ifIXsrSt9__is_charIT_E7__valueEbE6__typeERKNSt7__cxx1112basic_stringIS3_St11char_traitsIS3_ESaIS3_EEESE_
FNDA:13,_ZSteqIcEN9__gnu_cxx11__enable_ifIXsrSt9__is_charIT_E7__valueEbE6__typeERKNSt7__cxx1112basic_stringIS3_St11char_traitsIS3_ESaIS3_EEESE_
FN:6248,_ZSteqIcSt11char_traitsIcESaIcEEbRKNSt7__cxx1112basic_stringIT_T0_T1_EEPKS5_
FNDA:14,_ZSteqIcSt11char_traitsIcESaIcEEbRKNSt7__cxx1112basic_stringIT_T0_T1_EEPKS5_
FN:6690,_ZNSt7__cxx119to_stringEm
FNDA:0,_ZNSt7__cxx119to_stringEm
FN:6730,_ZNSt7__cxx119to_stringEd
FNDA:0,_ZNSt7__cxx119to_stringEd
DA:251,0
DA:255,0
DA:256,0
DA:271,0
DA:274,0
DA:275,0
DA:533,0
DA:534,0
DA:536,0
DA:539,0
DA:540,0
DA:553,0
DA:554,0
DA:555,0
DA:638,0
DA:640,0
DA:641,0
DA:6194,0
DA:6196,0
DA:6206,0
DA:6208,0
DA:6234,13
DA:6236,13
DA:6237,13
DA:6238,13
DA:6248,14
DA:6250,14
DA:6690,0
DA:6692,0
DA:6693,0
DA:6694,0
DA:6695,0
DA:6730,0
DA:6732,0
DA:6735,0
end_of_record
SF:/home/imri/OS-FinalProject/GraphObj/edge.hpp
end_of_record
SF:/usr/include/c++/11/bits/charconv.h
FN:47,_ZNSt8__detail14__to_chars_lenImEEjT_i
FNDA:0,_ZNSt8__detail14__to_chars_lenImEEjT_i
FN:72,_ZNSt8__detail18__to_chars_10_implImEEvPcjT_
FNDA:0,_ZNSt8__detail18__to_chars_10_implImEEvPcjT_
DA:47,0
DA:52,0
DA:53,0
DA:54,0
DA:55,0
DA:58,0
DA:59,0
DA:60,0
DA:61,0
DA:62,0
DA:63,0
DA:72,0
DA:83,0
DA:84,0
DA:86,0
DA:87,0
DA:88,0
DA:89,0
DA:90,0
DA:92,0
DA:94,0
DA:95,0
DA:96,0
DA:99,0
DA:100,0
end_of_record
SF:/usr/include/c++/11/ext/new_allocator.h
FN:79,_ZN9__gnu_cxx13new_allocatorIcEC2Ev
FNDA:0,_ZN9__gnu_cxx13new_allocatorIcEC2Ev
FN:79,_ZN9__gnu_cxx13new_allocatorISt13_Rb_tree_nodeISt4pairIKiS2_IP5GraphP6TripleEEEEC2Ev
FNDA:2,_ZN9__gnu_cxx13new_allocatorISt13_Rb_tree_nodeISt4pairIKiS2_IP5GraphP6TripleEEEEC2Ev
FN:79,_ZN9__gnu_cxx13new_allocatorIPNSt8__detail15_Hash_node_baseEEC2Ev
FNDA:0,_ZN9__gnu_cxx13new_allocatorIPNSt8__detail15_Hash_node_baseEEC2Ev
FN:79,_ZN9__gnu_cxx13new_allocatorINSt7__cxx1112basic_stringIcSt11char_traitsIcESaIcEEEEC2Ev
FNDA:10,_ZN9__gnu_cxx13new_allocatorINSt7__cxx1112basic_stringIcSt11char_traitsIcESaIcEEEEC2Ev
FN:79,_ZN9__gnu_cxx13new_allocatorISt8functionIFvPvEEEC2Ev
FNDA:2,_ZN9__gnu_cxx13new_allocatorISt8functionIFvPvEEEC2Ev
FN:82,_ZN9__gnu_cxx13new_allocatorINSt7__cxx1112basic_stringIcSt11char_traitsIcESaIcEEEEC2ERKS7_
FNDA:8,_ZN9__gnu_cxx13new_allocatorINSt7__cxx1112basic_stringIcSt11char_traitsIcESaIcEEEEC2ERKS7_
FN:82,_ZN9__gnu_cxx13new_allocatorISt8functionIFvPvEEEC2ERKS5_
FNDA:4,_ZN9__gnu_cxx13new_allocatorISt8functionIFvPvEEEC2ERKS5_
FN:82,_ZN9__gnu_cxx13new_allocatorIcEC2ERKS1_
FNDA:0,_ZN9__gnu_cxx13new_allocatorIcEC2ERKS1_
FN:89,_ZN9__gnu_cxx13new_allocatorISt8functionIFvPvEEED2Ev
FNDA:4,_ZN9__gnu_cxx13new_allocatorISt8functionIFvPvEEED2Ev
FN:89,_ZN9__gnu_cxx13new_allocatorISt13_Rb_tree_nodeISt4pairIKmmEEED2Ev
FNDA:0,_ZN9__gnu_cxx13new_allocatorISt13_Rb_tree_nodeISt4pairIKmmEEED2Ev
FN:89,_ZN9__gnu_cxx13new_allocatorINSt7__cxx1112basic_stringIcSt11char_traitsIcESaIcEEEED2Ev
FNDA:14,_ZN9__gnu_cxx13new_allocatorINSt7__cxx1112basic_stringIcSt11char_traitsIcESaIcEEEED2Ev
FN:89,_ZN9__gnu_cxx13new_allocatorIPNSt8__detail15_Hash_node_baseEED2Ev
FNDA:0,_ZN9__gnu_cxx13new_allocatorIPNSt8__detail15_Hash_node_baseEED2Ev
FN:89,_ZN9__gnu_cxx13new_allocatorImED2Ev
FNDA:0,_ZN9__gnu_cxx13new_allocatorImED2Ev
FN:89,_ZN9__gnu_cxx13new_allocatorI4EdgeED2Ev
FNDA:0,_ZN9__gnu_cxx13new_allocatorI4EdgeED2Ev
FN:89,_ZN9__gnu_cxx13new_allocatorISt13_Rb_tree_nodeISt4pairIKi6VertexEEED2Ev
FNDA:0,_ZN9__gnu_cxx13new_allocatorISt13_Rb_tree_nodeISt4pairIKi6VertexEEED2Ev
FN:89,_ZN9__gnu_cxx13new_allocatorINSt8__detail10_Hash_nodeI4EdgeLb1EEEED2Ev
FNDA:0,_ZN9__gnu_cxx13new_allocatorINSt8__detail10_Hash_nodeI4EdgeLb1EEEED2Ev
FN:89,_ZN9__gnu_cxx13new_allocatorISt13_Rb_tree_nodeISt4pairIKiS2_IP5GraphP6TripleEEEED2Ev
FNDA:2,_ZN9__gnu_cxx13new_allocatorISt13_Rb_tree_nodeISt4pairIKiS2_IP5GraphP6TripleEEEED2Ev
FN:89,_ZN9__gnu_cxx13new_allocatorISt6vectorImSaImEEED2Ev
FNDA:0,_ZN9__gnu_cxx13new_allocatorISt6vectorImSaImEEED2Ev
FN:89,_ZN9__gnu_cxx13new_allocatorIcED2Ev
FNDA:0,_ZN9__gnu_cxx13new_allocatorIcED2Ev
FN:103,_ZN9__gnu_cxx13new_allocatorISt8functionIFvPvEEE8allocateEmPKv
FNDA:2,_ZN9__gnu_cxx13new_allocatorISt8functionIFvPvEEE8allocateEmPKv
FN:103,_ZN9__gnu_cxx13new_allocatorINSt7__cxx1112basic_stringIcSt11char_traitsIcESaIcEEEE8allocateEmPKv
FNDA:19,_ZN9__gnu_cxx13new_allocatorINSt7__cxx1112basic_stringIcSt11char_traitsIcESaIcEEEE8allocateEmPKv
FN:103,_ZN9__gnu_cxx13new_allocatorISt13_Rb_tree_nodeISt4pairIKiS2_IP5GraphP6TripleEEEE8allocateEmPKv
FNDA:2,_ZN9__gnu_cxx13new_allocatorISt13_Rb_tree_nodeISt4pairIKiS2_IP5GraphP6TripleEEEE8allocateEmPKv
FN:132,_ZN9__gnu_cxx13new_allocatorISt13_Rb_tree_nodeISt4pairIKmmEEE10deallocateEPS5_m
FNDA:0,_ZN9__gnu_cxx13new_allocatorISt13_Rb_tree_nodeISt4pairIKmmEEE10deallocateEPS5_m
FN:132,_ZN9__gnu_cxx13new_allocatorINSt7__cxx1112basic_stringIcSt11char_traitsIcESaIcEEEE10deallocateEPS6_m
FNDA:15,_ZN9__gnu_cxx13new_allocatorINSt7__cxx1112basic_stringIcSt11char_traitsIcESaIcEEEE10deallocateEPS6_m
FN:132,_ZN9__gnu_cxx13new_allocatorI4EdgeE10deallocateEPS1_m
FNDA:0,_ZN9__gnu_cxx13new_allocatorI4EdgeE10deallocateEPS1_m
FN:132,_ZN9__gnu_cxx13new_allocatorISt13_Rb_tree_nodeISt4pairIKiS2_IP5GraphP6TripleEEEE10deallocateEPSA_m
FNDA:2,_ZN9__gnu_cxx13new_allocatorISt13_Rb_tree_nodeISt4pairIKiS2_IP5GraphP6TripleEEEE10deallocateEPSA_m
FN:132,_ZN9__gnu_cxx13new_allocatorImE10deallocateEPmm
FNDA:0,_ZN9__gnu_cxx13new_allocatorImE10deallocateEPmm
FN:132,_ZN9__gnu_cxx13new_allocatorISt8functionIFvPvEEE10deallocateEPS4_m
FNDA:0,_ZN9__gnu_cxx13new_allocatorISt8functionIFvPvEEE10deallocateEPS4_m
FN:132,_ZN9__gnu_cxx13new_allocatorINSt8__detail10_Hash_nodeI4EdgeLb1EEEE10deallocateEPS4_m
FNDA:0,_ZN9__gnu_cxx13new_allocatorINSt8__detail10_Hash_nodeI4EdgeLb1EEEE10deallocateEPS4_m
FN:132,_ZN9__gnu_cxx13new_allocatorISt6vectorImSaImEEE10deallocateEPS3_m
FNDA:0,_ZN9__gnu_cxx13new_allocatorISt6vectorImSaImEEE10deallocateEPS3_m
FN:132,_ZN9__gnu_cxx13new_allocatorISt13_Rb_tree_nodeISt4pairIKi6VertexEEE10deallocateEPS6_m
FNDA:0,_ZN9__gnu_cxx13new_allocatorISt13_Rb_tree_nodeISt4pairIKi6VertexEEE10deallocateEPS6_m
FN:132,_ZN9__gnu_cxx13new_allocatorIPNSt8__detail15_Hash_node_baseEE10deallocateEPS3_m
FNDA:0,_ZN9__gnu_cxx13new_allocatorIPNSt8__detail15_Hash_node_baseEE10deallocateEPS3_m
FN:154,_ZNK9__gnu_cxx13new_allocatorINSt7__cxx1112basic_stringIcSt11char_traitsIcESaIcEEEE8max_sizeEv
FNDA:34,_ZNK9__gnu_cxx13new_allocatorINSt7__cxx1112basic_stringIcSt11char_traitsIcESaIcEEEE8max_sizeEv
FN:154,_ZNK9__gnu_cxx13new_allocatorISt8functionIFvPvEEE8max_sizeEv
FNDA:2,_ZNK9__gnu_cxx13new_allocatorISt8functionIFvPvEEE8max_sizeEv
FN:160,_ZN9__gnu_cxx13new_allocatorISt13_Rb_tree_nodeISt4pairIKiS2_IP5GraphP6TripleEEEE9constructIS9_JRKSt21piecewise_construct_tSt5tupleIJRS3_EESG_IJEEEEEvPT_DpOT0_
FNDA:2,_ZN9__gnu_cxx13new_allocatorISt13_Rb_tree_nodeISt4pairIKiS2_IP5GraphP6TripleEEEE9constructIS9_JRKSt21piecewise_construct_tSt5tupleIJRS3_EESG_IJEEEEEvPT_DpOT0_
FN:166,_ZN9__gnu_cxx13new_allocatorISt13_Rb_tree_nodeISt4pairIKmmEEE7destroyIS4_EEvPT_
FNDA:0,_ZN9__gnu_cxx13new_allocatorISt13_Rb_tree_nodeISt4pairIKmmEEE7destroyIS4_EEvPT_
FN:166,_ZN9__gnu_cxx13new_allocatorINSt8__detail10_Hash_nodeI4EdgeLb1EEEE7destroyIS3_EEvPT_
FNDA:0,_ZN9__gnu_cxx13new_allocatorINSt8__detail10_Hash_nodeI4EdgeLb1EEEE7destroyIS3_EEvPT_
FN:166,_ZN9__gnu_cxx13new_allocatorISt13_Rb_tree_nodeISt4pairIKi6VertexEEE7destroyIS5_EEvPT_
FNDA:0,_ZN9__gnu_cxx13new_allocatorISt13_Rb_tree_nodeISt4pairIKi6VertexEEE7destroyIS5_EEvPT_
FN:166,_ZN9__gnu_cxx13new_allocatorISt13_Rb_tree_nodeISt4pairIKiS2_IP5GraphP6TripleEEEE7destroyIS9_EEvPT_
FNDA:2,_ZN9__gnu_cxx13new_allocatorISt13_Rb_tree_nodeISt4pairIKiS2_IP5GraphP6TripleEEEE7destroyIS9_EEvPT_
FN:197,_ZNK9__gnu_cxx13new_allocatorISt13_Rb_tree_nodeISt4pairIKiS2_IP5GraphP6TripleEEEE11_M_max_sizeEv
FNDA:2,_ZNK9__gnu_cxx13new_allocatorISt13_Rb_tree_nodeISt4pairIKiS2_IP5GraphP6TripleEEEE11_M_max_sizeEv
FN:197,_ZNK9__gnu_cxx13new_allocatorISt8functionIFvPvEEE11_M_max_sizeEv
FNDA:4,_ZNK9__gnu_cxx13new_allocatorISt8functionIFvPvEEE11_M_max_sizeEv
FN:197,_ZNK9__gnu_cxx13new_allocatorINSt7__cxx1112basic_stringIcSt11char_traitsIcESaIcEEEE11_M_max_sizeEv
FNDA:53,_ZNK9__gnu_cxx13new_allocatorINSt7__cxx1112basic_stringIcSt11char_traitsIcESaIcEEEE11_M_max_sizeEv
DA:79,0
DA:79,2
DA:79,10
DA:79,2
DA:79,0
DA:82,8
DA:82,4
DA:82,0
DA:89,0
DA:89,0
DA:89,0
DA:89,0
DA:89,0
DA:89,0
DA:89,0
DA:89,14
DA:89,4
DA:89,2
DA:89,0
DA:103,2
DA:111,2
DA:115,0
DA:116,0
DA:117,0
DA:127,2
DA:103,19
DA:111,19
DA:115,0
DA:116,0
DA:117,0
DA:127,19
DA:103,2
DA:111,2
DA:115,0
DA:116,0
DA:117,0
DA:127,2
DA:132,0
DA:145,0
DA:132,0
DA:145,0
DA:132,0
DA:145,0
DA:132,0
DA:145,0
DA:132,0
DA:145,0
DA:132,0
DA:145,0
DA:132,2
DA:145,2
DA:132,15
DA:145,15
DA:132,0
DA:145,0
DA:132,0
DA:145,0
DA:154,34
DA:155,34
DA:154,2
DA:155,2
DA:160,2
DA:162,2
DA:166,0
DA:168,0
DA:166,0
DA:168,0
DA:166,0
DA:168,0
DA:166,2
DA:168,2
DA:197,2
DA:200,2
DA:197,53
DA:200,53
DA:197,4
DA:200,4
end_of_record
SF:/usr/include/c++/11/bits/stl_iterator.h
FN:1027,_ZN9__gnu_cxx17__normal_iteratorIPKNSt7__cxx1112basic_stringIcSt11char_traitsIcESaIcEEESt6vectorIS6_SaIS6_EEEC2ERKS8_
FNDA:21,_ZN9__gnu_cxx17__normal_iteratorIPKNSt7__cxx1112basic_stringIcSt11char_traitsIcESaIcEEESt6vectorIS6_SaIS6_EEEC2ERKS8_
FN:1042,_ZNK9__gnu_cxx17__normal_iteratorIPKNSt7__cxx1112basic_stringIcSt11char_traitsIcESaIcEEESt6vectorIS6_SaIS6_EEEdeEv
FNDA:13,_ZNK9__gnu_cxx17__normal_iteratorIPKNSt7__cxx1112basic_stringIcSt11char_traitsIcESaIcEEESt6vectorIS6_SaIS6_EEEdeEv
FN:1052,_ZN9__gnu_cxx17__normal_iteratorIPKNSt7__cxx1112basic_stringIcSt11char_traitsIcESaIcEEESt6vectorIS6_SaIS6_EEEppEv
FNDA:6,_ZN9__gnu_cxx17__normal_iteratorIPKNSt7__cxx1112basic_stringIcSt11char_traitsIcESaIcEEESt6vectorIS6_SaIS6_EEEppEv
FN:1105,_ZNK9__gnu_cxx17__normal_iteratorIPKNSt7__cxx1112basic_stringIcSt11char_traitsIcESaIcEEESt6vectorIS6_SaIS6_EEE4baseEv
FNDA:28,_ZNK9__gnu_cxx17__normal_iteratorIPKNSt7__cxx1112basic_stringIcSt11char_traitsIcESaIcEEESt6vectorIS6_SaIS6_EEE4baseEv
FN:1179,_ZN9__gnu_cxxneIPKNSt7__cxx1112basic_stringIcSt11char_traitsIcESaIcEEESt6vectorIS6_SaIS6_EEEEbRKNS_17__normal_iteratorIT_T0_EESH_
FNDA:3,_ZN9__gnu_cxxneIPKNSt7__cxx1112basic_stringIcSt11char_traitsIcESaIcEEESt6vectorIS6_SaIS6_EEEEbRKNS_17__normal_iteratorIT_T0_EESH_
FN:1268,_ZN9__gnu_cxxmiIPKNSt7__cxx1112basic_stringIcSt11char_traitsIcESaIcEEESt6vectorIS6_SaIS6_EEEENS_17__normal_iteratorIT_T0_E15difference_typeERKSF_SI_
FNDA:7,_ZN9__gnu_cxxmiIPKNSt7__cxx1112basic_stringIcSt11char_traitsIcESaIcEEESt6vectorIS6_SaIS6_EEEENS_17__normal_iteratorIT_T0_E15difference_typeERKSF_SI_
DA:1027,21
DA:1028,21
DA:1042,13
DA:1043,13
DA:1052,6
DA:1054,6
DA:1055,6
DA:1105,28
DA:1106,28
DA:1179,3
DA:1182,3
DA:1268,7
DA:1271,7
end_of_record
SF:/usr/include/c++/11/bits/stl_function.h
FN:399,_ZNKSt4lessIiEclERKiS2_
FNDA:0,_ZNKSt4lessIiEclERKiS2_
FN:1174,_ZNKSt10_Select1stISt4pairIKiS0_IP5GraphP6TripleEEEclERKS7_
FNDA:23,_ZNKSt10_Select1stISt4pairIKiS0_IP5GraphP6TripleEEEclERKS7_
DA:399,0
DA:400,0
DA:1174,23
DA:1175,23
end_of_record
SF:/usr/include/c++/11/bits/stl_iterator_base_types.h
FN:238,_ZSt19__iterator_categoryIPcENSt15iterator_traitsIT_E17iterator_categoryERKS2_
FNDA:0,_ZSt19__iterator_categoryIPcENSt15iterator_traitsIT_E17iterator_categoryERKS2_
FN:238,_ZSt19__iterator_categoryIN9__gnu_cxx17__normal_iteratorIPKNSt7__cxx1112basic_stringIcSt11char_traitsIcESaIcEEESt6vectorIS7_SaIS7_EEEEENSt15iterator_traitsIT_E17iterator_categoryERKSF_
FNDA:7,_ZSt19__iterator_categoryIN9__gnu_cxx17__normal_iteratorIPKNSt7__cxx1112basic_stringIcSt11char_traitsIcESaIcEEESt6vectorIS7_SaIS7_EEEEENSt15iterator_traitsIT_E17iterator_categoryERKSF_
FN:238,_ZSt19__iterator_categoryIPKNSt7__cxx1112basic_stringIcSt11char_traitsIcESaIcEEEENSt15iterator_traitsIT_E17iterator_categoryERKS9_
FNDA:4,_ZSt19__iterator_categoryIPKNSt7__cxx1112basic_stringIcSt11char_traitsIcESaIcEEEENSt15iterator_traitsIT_E17iterator_categoryERKS9_
FN:238,_ZSt19__iterator_categoryIPKcENSt15iterator_traitsIT_E17iterator_categoryERKS3_
FNDA:0,_ZSt19__iterator_categoryIPKcENSt15iterator_traitsIT_E17iterator_categoryERKS3_
FN:238,_ZSt19__iterator_categoryIPKSt8functionIFvPvEEENSt15iterator_traitsIT_E17iterator_categoryERKS7_
FNDA:2,_ZSt19__iterator_categoryIPKSt8functionIFvPvEEENSt15iterator_traitsIT_E17iterator_categoryERKS7_
DA:238,0
DA:239,0
DA:238,7
DA:239,7
DA:238,4
DA:239,4
DA:238,0
DA:239,0
DA:238,2
DA:239,2
end_of_record
SF:/usr/include/c++/11/bits/stl_map.h
FN:185,_ZNSt3mapIiSt4pairIP5GraphP6TripleESt4lessIiESaIS0_IKiS5_EEEC2Ev
FNDA:2,_ZNSt3mapIiSt4pairIP5GraphP6TripleESt4lessIiESaIS0_IKiS5_EEEC2Ev
FN:302,_ZNSt3mapIiSt4pairIP5GraphP6TripleESt4lessIiESaIS0_IKiS5_EEED2Ev
FNDA:2,_ZNSt3mapIiSt4pairIP5GraphP6TripleESt4lessIiESaIS0_IKiS5_EEED2Ev
FN:302,_ZNSt3mapImmSt4lessImESaISt4pairIKmmEEED2Ev
FNDA:0,_ZNSt3mapImmSt4lessImESaISt4pairIKmmEEED2Ev
FN:302,_ZNSt3mapIi6VertexSt4lessIiESaISt4pairIKiS0_EEED2Ev
FNDA:0,_ZNSt3mapIi6VertexSt4lessIiESaISt4pairIKiS0_EEED2Ev
FN:356,_ZNSt3mapIiSt4pairIP5GraphP6TripleESt4lessIiESaIS0_IKiS5_EEE5beginEv
FNDA:2,_ZNSt3mapIiSt4pairIP5GraphP6TripleESt4lessIiESaIS0_IKiS5_EEE5beginEv
FN:374,_ZNSt3mapIiSt4pairIP5GraphP6TripleESt4lessIiESaIS0_IKiS5_EEE3endEv
FNDA:23,_ZNSt3mapIiSt4pairIP5GraphP6TripleESt4lessIiESaIS0_IKiS5_EEE3endEv
FN:492,_ZNSt3mapIiSt4pairIP5GraphP6TripleESt4lessIiESaIS0_IKiS5_EEEixERS8_
FNDA:21,_ZNSt3mapIiSt4pairIP5GraphP6TripleESt4lessIiESaIS0_IKiS5_EEEixERS8_
FN:1068,_ZNSt3mapIiSt4pairIP5GraphP6TripleESt4lessIiESaIS0_IKiS5_EEE5eraseERS8_
FNDA:1,_ZNSt3mapIiSt4pairIP5GraphP6TripleESt4lessIiESaIS0_IKiS5_EEE5eraseERS8_
FN:1142,_ZNKSt3mapIiSt4pairIP5GraphP6TripleESt4lessIiESaIS0_IKiS5_EEE8key_compEv
FNDA:19,_ZNKSt3mapIiSt4pairIP5GraphP6TripleESt4lessIiESaIS0_IKiS5_EEE8key_compEv
FN:1258,_ZNSt3mapIiSt4pairIP5GraphP6TripleESt4lessIiESaIS0_IKiS5_EEE11lower_boundERS8_
FNDA:21,_ZNSt3mapIiSt4pairIP5GraphP6TripleESt4lessIiESaIS0_IKiS5_EEE11lower_boundERS8_
DA:185,2
DA:302,2
DA:302,0
DA:302,0
DA:356,2
DA:357,2
DA:374,23
DA:375,23
DA:492,21
DA:497,21
DA:499,21
DA:501,2
DA:502,2
DA:503,2
DA:507,21
DA:1068,1
DA:1069,1
DA:1142,19
DA:1143,19
DA:1258,21
DA:1259,21
end_of_record
SF:/usr/include/c++/11/bits/char_traits.h
FN:106,_ZN9__gnu_cxx11char_traitsIcE2eqERKcS3_
FNDA:0,_ZN9__gnu_cxx11char_traitsIcE2eqERKcS3_
FN:167,_ZN9__gnu_cxx11char_traitsIcE6lengthEPKc
FNDA:0,_ZN9__gnu_cxx11char_traitsIcE6lengthEPKc
FN:364,_ZNSt11char_traitsIcE2ltERKcS2_
FNDA:0,_ZNSt11char_traitsIcE2ltERKcS2_
FN:372,_ZNSt11char_traitsIcE7compareEPKcS2_m
FNDA:7,_ZNSt11char_traitsIcE7compareEPKcS2_m
FN:393,_ZNSt11char_traitsIcE6lengthEPKc
FNDA:0,_ZNSt11char_traitsIcE6lengthEPKc
FN:429,_ZNSt11char_traitsIcE4copyEPcPKcm
FNDA:0,_ZNSt11char_traitsIcE4copyEPcPKcm
DA:106,0
DA:107,0
DA:167,0
DA:170,0
DA:171,0
DA:172,0
DA:173,0
DA:290,0
DA:364,0
DA:367,0
DA:368,0
DA:372,7
DA:374,7
DA:375,0
DA:377,7
DA:379,7
DA:381,0
DA:382,0
DA:383,0
DA:384,0
DA:385,0
DA:386,0
DA:389,7
DA:393,0
DA:396,0
DA:397,0
DA:399,0
DA:429,0
DA:431,0
DA:432,0
DA:437,0
end_of_record
SF:/usr/include/c++/11/bits/predefined_ops.h
FN:262,_ZN9__gnu_cxx5__ops16_Iter_equals_valIKNSt7__cxx1112basic_stringIcSt11char_traitsIcESaIcEEEEC2ERS8_
FNDA:7,_ZN9__gnu_cxx5__ops16_Iter_equals_valIKNSt7__cxx1112basic_stringIcSt11char_traitsIcESaIcEEEEC2ERS8_
FN:269,_ZN9__gnu_cxx5__ops16_Iter_equals_valIKNSt7__cxx1112basic_stringIcSt11char_traitsIcESaIcEEEEclINS_17__normal_iteratorIPS8_St6vectorIS7_SaIS7_EEEEEEbT_
FNDA:13,_ZN9__gnu_cxx5__ops16_Iter_equals_valIKNSt7__cxx1112basic_stringIcSt11char_traitsIcESaIcEEEEclINS_17__normal_iteratorIPS8_St6vectorIS7_SaIS7_EEEEEEbT_
FN:276,_ZN9__gnu_cxx5__ops17__iter_equals_valIKNSt7__cxx1112basic_stringIcSt11char_traitsIcESaIcEEEEENS0_16_Iter_equals_valIT_EERSA_
FNDA:7,_ZN9__gnu_cxx5__ops17__iter_equals_valIKNSt7__cxx1112basic_stringIcSt11char_traitsIcESaIcEEEEENS0_16_Iter_equals_valIT_EERSA_
DA:262,7
DA:263,7
DA:264,7
DA:269,13
DA:270,13
DA:276,7
DA:277,7
end_of_record
SF:/usr/include/c++/11/new
FN:174,_ZnwmPv
FNDA:0,_ZnwmPv
FN:180,_ZdlPvS_
FNDA:0,_ZdlPvS_
DA:174,0
DA:175,0
DA:180,0
end_of_record
SF:/usr/include/c++/11/bits/stl_vector.h
FN:97,_ZNSt12_Vector_baseISt8functionIFvPvEESaIS3_EE17_Vector_impl_dataC2Ev
FNDA:2,_ZNSt12_Vector_baseISt8functionIFvPvEESaIS3_EE17_Vector_impl_dataC2Ev
FN:97,_ZNSt12_Vector_baseINSt7__cxx1112basic_stringIcSt11char_traitsIcESaIcEEESaIS5_EE17_Vector_impl_dataC2Ev
FNDA:10,_ZNSt12_Vector_baseINSt7__cxx1112basic_stringIcSt11char_traitsIcESaIcEEESaIS5_EE17_Vector_impl_dataC2Ev
FN:136,_ZNSt12_Vector_baseISt8functionIFvPvEESaIS3_EE12_Vector_implC2ERKS4_
FNDA:2,_ZNSt12_Vector_baseISt8functionIFvPvEESaIS3_EE12_Vector_implC2ERKS4_
FN:136,_ZNSt12_Vector_baseINSt7__cxx1112basic_stringIcSt11char_traitsIcESaIcEEESaIS5_EE12_Vector_implC2ERKS6_
FNDA:4,_ZNSt12_Vector_baseINSt7__cxx1112basic_stringIcSt11char_traitsIcESaIcEEESaIS5_EE12_Vector_implC2ERKS6_
FN:276,_ZNSt12_Vector_baseISt8functionIFvPvEESaIS3_EE19_M_get_Tp_allocatorEv
FNDA:4,_ZNSt12_Vector_baseISt8functionIFvPvEESaIS3_EE19_M_get_Tp_allocatorEv
FN:276,_ZNSt12_Vector_baseINSt7__cxx1112basic_stringIcSt11char_traitsIcESaIcEEESaIS5_EE19_M_get_Tp_allocatorEv
FNDA:44,_ZNSt12_Vector_baseINSt7__cxx1112basic_stringIcSt11char_traitsIcESaIcEEESaIS5_EE19_M_get_Tp_allocatorEv
FN:276,_ZNSt12_Vector_baseISt6vectorImSaImEESaIS2_EE19_M_get_Tp_allocatorEv
FNDA:0,_ZNSt12_Vector_baseISt6vectorImSaImEESaIS2_EE19_M_get_Tp_allocatorEv
FN:276,_ZNSt12_Vector_baseImSaImEE19_M_get_Tp_allocatorEv
FNDA:0,_ZNSt12_Vector_baseImSaImEE19_M_get_Tp_allocatorEv
FN:276,_ZNSt12_Vector_baseI4EdgeSaIS0_EE19_M_get_Tp_allocatorEv
FNDA:0,_ZNSt12_Vector_baseI4EdgeSaIS0_EE19_M_get_Tp_allocatorEv
FN:293,_ZNSt12_Vector_baseISt8functionIFvPvEESaIS3_EEC2ERKS4_
FNDA:2,_ZNSt12_Vector_baseISt8functionIFvPvEESaIS3_EEC2ERKS4_
FN:293,_ZNSt12_Vector_baseINSt7__cxx1112basic_stringIcSt11char_traitsIcESaIcEEESaIS5_EEC2ERKS6_
FNDA:4,_ZNSt12_Vector_baseINSt7__cxx1112basic_stringIcSt11char_traitsIcESaIcEEESaIS5_EEC2ERKS6_
FN:333,_ZNSt12_Vector_baseISt8functionIFvPvEESaIS3_EED2Ev
FNDA:0,_ZNSt12_Vector_baseISt8functionIFvPvEESaIS3_EED2Ev
FN:333,_ZNSt12_Vector_baseImSaImEED2Ev
FNDA:0,_ZNSt12_Vector_baseImSaImEED2Ev
FN:333,_ZNSt12_Vector_baseINSt7__cxx1112basic_stringIcSt11char_traitsIcESaIcEEESaIS5_EED2Ev
FNDA:6,_ZNSt12_Vector_baseINSt7__cxx1112basic_stringIcSt11char_traitsIcESaIcEEESaIS5_EED2Ev
FN:333,_ZNSt12_Vector_baseI4EdgeSaIS0_EED2Ev
FNDA:0,_ZNSt12_Vector_baseI4EdgeSaIS0_EED2Ev
FN:333,_ZNSt12_Vector_baseISt6vectorImSaImEESaIS2_EED2Ev
FNDA:0,_ZNSt12_Vector_baseISt6vectorImSaImEESaIS2_EED2Ev
FN:343,_ZNSt12_Vector_baseINSt7__cxx1112basic_stringIcSt11char_traitsIcESaIcEEESaIS5_EE11_M_allocateEm
FNDA:19,_ZNSt12_Vector_baseINSt7__cxx1112basic_stringIcSt11char_traitsIcESaIcEEESaIS5_EE11_M_allocateEm
FN:343,_ZNSt12_Vector_baseISt8functionIFvPvEESaIS3_EE11_M_allocateEm
FNDA:2,_ZNSt12_Vector_baseISt8functionIFvPvEESaIS3_EE11_M_allocateEm
FN:350,_ZNSt12_Vector_baseImSaImEE13_M_deallocateEPmm
FNDA:0,_ZNSt12_Vector_baseImSaImEE13_M_deallocateEPmm
FN:350,_ZNSt12_Vector_baseISt6vectorImSaImEESaIS2_EE13_M_deallocateEPS2_m
FNDA:0,_ZNSt12_Vector_baseISt6vectorImSaImEESaIS2_EE13_M_deallocateEPS2_m
FN:350,_ZNSt12_Vector_baseINSt7__cxx1112basic_stringIcSt11char_traitsIcESaIcEEESaIS5_EE13_M_deallocateEPS5_m
FNDA:21,_ZNSt12_Vector_baseINSt7__cxx1112basic_stringIcSt11char_traitsIcESaIcEEESaIS5_EE13_M_deallocateEPS5_m
FN:350,_ZNSt12_Vector_baseI4EdgeSaIS0_EE13_M_deallocateEPS0_m
FNDA:0,_ZNSt12_Vector_baseI4EdgeSaIS0_EE13_M_deallocateEPS0_m
FN:350,_ZNSt12_Vector_baseISt8functionIFvPvEESaIS3_EE13_M_deallocateEPS3_m
FNDA:0,_ZNSt12_Vector_baseISt8functionIFvPvEESaIS3_EE13_M_deallocateEPS3_m
FN:625,_ZNSt6vectorISt8functionIFvPvEESaIS3_EEC2ESt16initializer_listIS3_ERKS4_
FNDA:2,_ZNSt6vectorISt8functionIFvPvEESaIS3_EEC2ESt16initializer_listIS3_ERKS4_
FN:625,_ZNSt6vectorINSt7__cxx1112basic_stringIcSt11char_traitsIcESaIcEEESaIS5_EEC2ESt16initializer_listIS5_ERKS6_
FNDA:4,_ZNSt6vectorINSt7__cxx1112basic_stringIcSt11char_traitsIcESaIcEEESaIS5_EEC2ESt16initializer_listIS5_ERKS6_
FN:678,_ZNSt6vectorI4EdgeSaIS0_EED2Ev
FNDA:0,_ZNSt6vectorI4EdgeSaIS0_EED2Ev
FN:678,_ZNSt6vectorIS_ImSaImEESaIS1_EED2Ev
FNDA:0,_ZNSt6vectorIS_ImSaImEESaIS1_EED2Ev
FN:678,_ZNSt6vectorISt8functionIFvPvEESaIS3_EED2Ev
FNDA:0,_ZNSt6vectorISt8functionIFvPvEESaIS3_EED2Ev
FN:678,_ZNSt6vectorINSt7__cxx1112basic_stringIcSt11char_traitsIcESaIcEEESaIS5_EED2Ev
FNDA:6,_ZNSt6vectorINSt7__cxx1112basic_stringIcSt11char_traitsIcESaIcEEESaIS5_EED2Ev
FN:678,_ZNSt6vectorImSaImEED2Ev
FNDA:0,_ZNSt6vectorImSaImEED2Ev
FN:820,_ZNKSt6vectorINSt7__cxx1112basic_stringIcSt11char_traitsIcESaIcEEESaIS5_EE5beginEv
FNDA:7,_ZNKSt6vectorINSt7__cxx1112basic_stringIcSt11char_traitsIcESaIcEEESaIS5_EE5beginEv
FN:838,_ZNKSt6vectorINSt7__cxx1112basic_stringIcSt11char_traitsIcESaIcEEESaIS5_EE3endEv
FNDA:14,_ZNKSt6vectorINSt7__cxx1112basic_stringIcSt11char_traitsIcESaIcEEESaIS5_EE3endEv
FN:1577,_ZNSt6vectorISt8functionIFvPvEESaIS3_EE19_M_range_initializeIPKS3_EEvT_S9_St20forward_iterator_tag
FNDA:2,_ZNSt6vectorISt8functionIFvPvEESaIS3_EE19_M_range_initializeIPKS3_EEvT_S9_St20forward_iterator_tag
FN:1577,_ZNSt6vectorINSt7__cxx1112basic_stringIcSt11char_traitsIcESaIcEEESaIS5_EE19_M_range_initializeIPKS5_EEvT_SB_St20forward_iterator_tag
FNDA:4,_ZNSt6vectorINSt7__cxx1112basic_stringIcSt11char_traitsIcESaIcEEESaIS5_EE19_M_range_initializeIPKS5_EEvT_SB_St20forward_iterator_tag
FN:1767,_ZNSt6vectorINSt7__cxx1112basic_stringIcSt11char_traitsIcESaIcEEESaIS5_EE17_S_check_init_lenEmRKS6_
FNDA:4,_ZNSt6vectorINSt7__cxx1112basic_stringIcSt11char_traitsIcESaIcEEESaIS5_EE17_S_check_init_lenEmRKS6_
FN:1767,_ZNSt6vectorISt8functionIFvPvEESaIS3_EE17_S_check_init_lenEmRKS4_
FNDA:2,_ZNSt6vectorISt8functionIFvPvEESaIS3_EE17_S_check_init_lenEmRKS4_
FN:1776,_ZNSt6vectorINSt7__cxx1112basic_stringIcSt11char_traitsIcESaIcEEESaIS5_EE11_S_max_sizeERKS6_
FNDA:34,_ZNSt6vectorINSt7__cxx1112basic_stringIcSt11char_traitsIcESaIcEEESaIS5_EE11_S_max_sizeERKS6_
FN:1776,_ZNSt6vectorISt8functionIFvPvEESaIS3_EE11_S_max_sizeERKS4_
FNDA:2,_ZNSt6vectorISt8functionIFvPvEESaIS3_EE11_S_max_sizeERKS4_
DA:97,10
DA:98,10
DA:99,10
DA:97,2
DA:98,2
DA:99,2
DA:136,4
DA:137,4
DA:138,4
DA:136,2
DA:137,2
DA:138,2
DA:276,0
DA:277,0
DA:276,0
DA:277,0
DA:276,44
DA:277,44
DA:276,4
DA:277,4
DA:276,0
DA:277,0
DA:293,4
DA:294,4
DA:293,2
DA:294,2
DA:333,0
DA:335,0
DA:336,0
DA:337,0
DA:333,0
DA:335,0
DA:336,0
DA:337,0
DA:333,6
DA:335,6
DA:336,6
DA:337,6
DA:333,0
DA:335,0
DA:336,0
DA:337,0
DA:333,0
DA:335,0
DA:336,0
DA:337,0
DA:343,19
DA:346,19
DA:343,2
DA:346,2
DA:350,0
DA:353,0
DA:354,0
DA:355,0
DA:350,0
DA:353,0
DA:354,0
DA:355,0
DA:350,21
DA:353,21
DA:354,15
DA:355,21
DA:350,0
DA:353,0
DA:354,0
DA:355,0
DA:350,0
DA:353,0
DA:354,0
DA:355,0
DA:625,4
DA:627,4
DA:629,4
DA:630,4
DA:631,4
DA:625,2
DA:627,2
DA:629,2
DA:630,2
DA:631,2
DA:678,0
DA:680,0
DA:681,0
DA:683,0
DA:678,0
DA:680,0
DA:681,0
DA:683,0
DA:678,6
DA:680,6
DA:681,6
DA:683,6
DA:678,0
DA:680,0
DA:681,0
DA:683,0
DA:678,0
DA:680,0
DA:681,0
DA:683,0
DA:820,7
DA:821,7
DA:838,14
DA:839,14
DA:1577,4
DA:1580,4
DA:1582,4
DA:1583,4
DA:1584,4
DA:1585,4
DA:1587,4
DA:1588,4
DA:1577,2
DA:1580,2
DA:1582,2
DA:1583,2
DA:1584,2
DA:1585,2
DA:1587,2
DA:1588,2
DA:1767,4
DA:1769,4
DA:1770,0
DA:1772,4
DA:1767,2
DA:1769,2
DA:1770,0
DA:1772,2
DA:1776,34
DA:1781,34
DA:1783,34
DA:1784,34
DA:1776,2
DA:1781,2
DA:1783,2
DA:1784,2
end_of_record
SF:/usr/include/c++/11/bits/alloc_traits.h
FN:463,_ZNSt16allocator_traitsISaISt8functionIFvPvEEEE8allocateERS4_m
FNDA:2,_ZNSt16allocator_traitsISaISt8functionIFvPvEEEE8allocateERS4_m
FN:463,_ZNSt16allocator_traitsISaINSt7__cxx1112basic_stringIcSt11char_traitsIcESaIcEEEEE8allocateERS6_m
FNDA:19,_ZNSt16allocator_traitsISaINSt7__cxx1112basic_stringIcSt11char_traitsIcESaIcEEEEE8allocateERS6_m
FN:463,_ZNSt16allocator_traitsISaISt13_Rb_tree_nodeISt4pairIKiS1_IP5GraphP6TripleEEEEE8allocateERSA_m
FNDA:2,_ZNSt16allocator_traitsISaISt13_Rb_tree_nodeISt4pairIKiS1_IP5GraphP6TripleEEEEE8allocateERSA_m
FN:495,_ZNSt16allocator_traitsISaISt13_Rb_tree_nodeISt4pairIKmmEEEE10deallocateERS5_PS4_m
FNDA:0,_ZNSt16allocator_traitsISaISt13_Rb_tree_nodeISt4pairIKmmEEEE10deallocateERS5_PS4_m
FN:495,_ZNSt16allocator_traitsISaI4EdgeEE10deallocateERS1_PS0_m
FNDA:0,_ZNSt16allocator_traitsISaI4EdgeEE10deallocateERS1_PS0_m
FN:495,_ZNSt16allocator_traitsISaImEE10deallocateERS0_Pmm
FNDA:0,_ZNSt16allocator_traitsISaImEE10deallocateERS0_Pmm
FN:495,_ZNSt16allocator_traitsISaISt6vectorImSaImEEEE10deallocateERS3_PS2_m
FNDA:0,_ZNSt16allocator_traitsISaISt6vectorImSaImEEEE10deallocateERS3_PS2_m
FN:495,_ZNSt16allocator_traitsISaISt8functionIFvPvEEEE10deallocateERS4_PS3_m
FNDA:0,_ZNSt16allocator_traitsISaISt8functionIFvPvEEEE10deallocateERS4_PS3_m
FN:495,_ZNSt16allocator_traitsISaINSt8__detail10_Hash_nodeI4EdgeLb1EEEEE10deallocateERS4_PS3_m
FNDA:0,_ZNSt16allocator_traitsISaINSt8__detail10_Hash_nodeI4EdgeLb1EEEEE10deallocateERS4_PS3_m
FN:495,_ZNSt16allocator_traitsISaINSt7__cxx1112basic_stringIcSt11char_traitsIcESaIcEEEEE10deallocateERS6_PS5_m
FNDA:15,_ZNSt16allocator_traitsISaINSt7__cxx1112basic_stringIcSt11char_traitsIcESaIcEEEEE10deallocateERS6_PS5_m
FN:495,_ZNSt16allocator_traitsISaIPNSt8__detail15_Hash_node_baseEEE10deallocateERS3_PS2_m
FNDA:0,_ZNSt16allocator_traitsISaIPNSt8__detail15_Hash_node_baseEEE10deallocateERS3_PS2_m
FN:495,_ZNSt16allocator_traitsISaISt13_Rb_tree_nodeISt4pairIKi6VertexEEEE10deallocateERS6_PS5_m
FNDA:0,_ZNSt16allocator_traitsISaISt13_Rb_tree_nodeISt4pairIKi6VertexEEEE10deallocateERS6_PS5_m
FN:495,_ZNSt16allocator_traitsISaISt13_Rb_tree_nodeISt4pairIKiS1_IP5GraphP6TripleEEEEE10deallocateERSA_PS9_m
FNDA:2,_ZNSt16allocator_traitsISaISt13_Rb_tree_nodeISt4pairIKiS1_IP5GraphP6TripleEEEEE10deallocateERSA_PS9_m
FN:511,_ZNSt16allocator_traitsISaISt13_Rb_tree_nodeISt4pairIKiS1_IP5GraphP6TripleEEEEE9constructIS8_JRKSt21piecewise_construct_tSt5tupleIJRS2_EESG_IJEEEEEvRSA_PT_DpOT0_
FNDA:2,_ZNSt16allocator_traitsISaISt13_Rb_tree_nodeISt4pairIKiS1_IP5GraphP6TripleEEEEE9constructIS8_JRKSt21piecewise_construct_tSt5tupleIJRS2_EESG_IJEEEEEvRSA_PT_DpOT0_
FN:531,_ZNSt16allocator_traitsISaISt13_Rb_tree_nodeISt4pairIKmmEEEE7destroyIS3_EEvRS5_PT_
FNDA:0,_ZNSt16allocator_traitsISaISt13_Rb_tree_nodeISt4pairIKmmEEEE7destroyIS3_EEvRS5_PT_
FN:531,_ZNSt16allocator_traitsISaISt13_Rb_tree_nodeISt4pairIKiS1_IP5GraphP6TripleEEEEE7destroyIS8_EEvRSA_PT_
FNDA:2,_ZNSt16allocator_traitsISaISt13_Rb_tree_nodeISt4pairIKiS1_IP5GraphP6TripleEEEEE7destroyIS8_EEvRSA_PT_
FN:531,_ZNSt16allocator_traitsISaISt13_Rb_tree_nodeISt4pairIKi6VertexEEEE7destroyIS4_EEvRS6_PT_
FNDA:0,_ZNSt16allocator_traitsISaISt13_Rb_tree_nodeISt4pairIKi6VertexEEEE7destroyIS4_EEvRS6_PT_
FN:531,_ZNSt16allocator_traitsISaINSt8__detail10_Hash_nodeI4EdgeLb1EEEEE7destroyIS2_EEvRS4_PT_
FNDA:0,_ZNSt16allocator_traitsISaINSt8__detail10_Hash_nodeI4EdgeLb1EEEEE7destroyIS2_EEvRS4_PT_
FN:547,_ZNSt16allocator_traitsISaISt8functionIFvPvEEEE8max_sizeERKS4_
FNDA:2,_ZNSt16allocator_traitsISaISt8functionIFvPvEEEE8max_sizeERKS4_
FN:547,_ZNSt16allocator_traitsISaINSt7__cxx1112basic_stringIcSt11char_traitsIcESaIcEEEEE8max_sizeERKS6_
FNDA:34,_ZNSt16allocator_traitsISaINSt7__cxx1112basic_stringIcSt11char_traitsIcESaIcEEEEE8max_sizeERKS6_
FN:562,_ZNSt16allocator_traitsISaIcEE37select_on_container_copy_constructionERKS0_
FNDA:1,_ZNSt16allocator_traitsISaIcEE37select_on_container_copy_constructionERKS0_
FN:845,_ZSt8_DestroyIPmmEvT_S1_RSaIT0_E
FNDA:0,_ZSt8_DestroyIPmmEvT_S1_RSaIT0_E
FN:845,_ZSt8_DestroyIP4EdgeS0_EvT_S2_RSaIT0_E
FNDA:0,_ZSt8_DestroyIP4EdgeS0_EvT_S2_RSaIT0_E
FN:845,_ZSt8_DestroyIPNSt7__cxx1112basic_stringIcSt11char_traitsIcESaIcEEES5_EvT_S7_RSaIT0_E
FNDA:6,_ZSt8_DestroyIPNSt7__cxx1112basic_stringIcSt11char_traitsIcESaIcEEES5_EvT_S7_RSaIT0_E
FN:845,_ZSt8_DestroyIPSt8functionIFvPvEES3_EvT_S5_RSaIT0_E
FNDA:0,_ZSt8_DestroyIPSt8functionIFvPvEES3_EvT_S5_RSaIT0_E
FN:845,_ZSt8_DestroyIPSt6vectorImSaImEES2_EvT_S4_RSaIT0_E
FNDA:0,_ZSt8_DestroyIPSt6vectorImSaImEES2_EvT_S4_RSaIT0_E
DA:463,2
DA:464,2
DA:463,19
DA:464,19
DA:463,2
DA:464,2
DA:495,0
DA:496,0
DA:495,0
DA:496,0
DA:495,0
DA:496,0
DA:495,0
DA:496,0
DA:495,0
DA:496,0
DA:495,0
DA:496,0
DA:495,2
DA:496,2
DA:495,15
DA:496,15
DA:495,0
DA:496,0
DA:495,0
DA:496,0
DA:511,2
DA:516,2
DA:520,2
DA:531,0
DA:535,0
DA:539,0
DA:531,0
DA:535,0
DA:539,0
DA:531,0
DA:535,0
DA:539,0
DA:531,2
DA:535,2
DA:539,2
DA:547,34
DA:550,34
DA:547,2
DA:550,2
DA:562,1
DA:563,1
DA:845,0
DA:848,0
DA:849,0
DA:845,0
DA:848,0
DA:849,0
DA:845,6
DA:848,6
DA:849,6
DA:845,0
DA:848,0
DA:849,0
DA:845,0
DA:848,0
DA:849,0
end_of_record
SF:/usr/include/c++/11/bits/stl_construct.h
FN:109,_ZSt10_ConstructINSt7__cxx1112basic_stringIcSt11char_traitsIcESaIcEEEJRKS5_EEvPT_DpOT0_
FNDA:16,_ZSt10_ConstructINSt7__cxx1112basic_stringIcSt11char_traitsIcESaIcEEEJRKS5_EEvPT_DpOT0_
FN:109,_ZSt10_ConstructISt8functionIFvPvEEJRKS3_EEvPT_DpOT0_
FNDA:12,_ZSt10_ConstructISt8functionIFvPvEEJRKS3_EEvPT_DpOT0_
FN:146,_ZSt8_DestroyI4EdgeEvPT_
FNDA:0,_ZSt8_DestroyI4EdgeEvPT_
FN:146,_ZSt8_DestroyINSt7__cxx1112basic_stringIcSt11char_traitsIcESaIcEEEEvPT_
FNDA:15,_ZSt8_DestroyINSt7__cxx1112basic_stringIcSt11char_traitsIcESaIcEEEEvPT_
FN:146,_ZSt8_DestroyISt8functionIFvPvEEEvPT_
FNDA:0,_ZSt8_DestroyISt8functionIFvPvEEEvPT_
FN:146,_ZSt8_DestroyISt6vectorImSaImEEEvPT_
FNDA:0,_ZSt8_DestroyISt6vectorImSaImEEEvPT_
FN:160,_ZNSt12_Destroy_auxILb0EE9__destroyIP4EdgeEEvT_S4_
FNDA:0,_ZNSt12_Destroy_auxILb0EE9__destroyIP4EdgeEEvT_S4_
FN:160,_ZNSt12_Destroy_auxILb0EE9__destroyIPNSt7__cxx1112basic_stringIcSt11char_traitsIcESaIcEEEEEvT_S9_
FNDA:6,_ZNSt12_Destroy_auxILb0EE9__destroyIPNSt7__cxx1112basic_stringIcSt11char_traitsIcESaIcEEEEEvT_S9_
FN:160,_ZNSt12_Destroy_auxILb0EE9__destroyIPSt8functionIFvPvEEEEvT_S7_
FNDA:0,_ZNSt12_Destroy_auxILb0EE9__destroyIPSt8functionIFvPvEEEEvT_S7_
FN:160,_ZNSt12_Destroy_auxILb0EE9__destroyIPSt6vectorImSaImEEEEvT_S6_
FNDA:0,_ZNSt12_Destroy_auxILb0EE9__destroyIPSt6vectorImSaImEEEEvT_S6_
FN:172,_ZNSt12_Destroy_auxILb1EE9__destroyIPmEEvT_S3_
FNDA:0,_ZNSt12_Destroy_auxILb1EE9__destroyIPmEEvT_S3_
FN:182,_ZSt8_DestroyIP4EdgeEvT_S2_
FNDA:0,_ZSt8_DestroyIP4EdgeEvT_S2_
FN:182,_ZSt8_DestroyIPmEvT_S1_
FNDA:0,_ZSt8_DestroyIPmEvT_S1_
FN:182,_ZSt8_DestroyIPNSt7__cxx1112basic_stringIcSt11char_traitsIcESaIcEEEEvT_S7_
FNDA:6,_ZSt8_DestroyIPNSt7__cxx1112basic_stringIcSt11char_traitsIcESaIcEEEEvT_S7_
FN:182,_ZSt8_DestroyIPSt8functionIFvPvEEEvT_S5_
FNDA:0,_ZSt8_DestroyIPSt8functionIFvPvEEEvT_S5_
FN:182,_ZSt8_DestroyIPSt6vectorImSaImEEEvT_S4_
FNDA:0,_ZSt8_DestroyIPSt6vectorImSaImEEEvT_S4_
DA:109,16
DA:119,16
DA:120,16
DA:109,12
DA:119,12
DA:120,12
DA:146,0
DA:151,0
DA:153,0
DA:146,15
DA:151,15
DA:153,15
DA:146,0
DA:151,0
DA:153,0
DA:146,0
DA:151,0
DA:153,0
DA:160,0
DA:162,0
DA:163,0
DA:164,0
DA:160,6
DA:162,21
DA:163,15
DA:164,6
DA:160,0
DA:162,0
DA:163,0
DA:164,0
DA:160,0
DA:162,0
DA:163,0
DA:164,0
DA:172,0
DA:182,0
DA:196,0
DA:197,0
DA:182,0
DA:196,0
DA:197,0
DA:182,6
DA:196,6
DA:197,6
DA:182,0
DA:196,0
DA:197,0
DA:182,0
DA:196,0
DA:197,0
end_of_record
SF:/usr/include/c++/11/bits/stl_uninitialized.h
FN:85,_ZNSt20__uninitialized_copyILb0EE13__uninit_copyIPKNSt7__cxx1112basic_stringIcSt11char_traitsIcESaIcEEEPS7_EET0_T_SC_SB_
FNDA:4,_ZNSt20__uninitialized_copyILb0EE13__uninit_copyIPKNSt7__cxx1112basic_stringIcSt11char_traitsIcESaIcEEEPS7_EET0_T_SC_SB_
FN:85,_ZNSt20__uninitialized_copyILb0EE13__uninit_copyIPKSt8functionIFvPvEEPS5_EET0_T_SA_S9_
FNDA:2,_ZNSt20__uninitialized_copyILb0EE13__uninit_copyIPKSt8functionIFvPvEEPS5_EET0_T_SA_S9_
FN:126,_ZSt18uninitialized_copyIPKNSt7__cxx1112basic_stringIcSt11char_traitsIcESaIcEEEPS5_ET0_T_SA_S9_
FNDA:4,_ZSt18uninitialized_copyIPKNSt7__cxx1112basic_stringIcSt11char_traitsIcESaIcEEEPS5_ET0_T_SA_S9_
FN:126,_ZSt18uninitialized_copyIPKSt8functionIFvPvEEPS3_ET0_T_S8_S7_
FNDA:2,_ZSt18uninitialized_copyIPKSt8functionIFvPvEEPS3_ET0_T_S8_S7_
FN:331,_ZSt22__uninitialized_copy_aIPKNSt7__cxx1112basic_stringIcSt11char_traitsIcESaIcEEEPS5_S5_ET0_T_SA_S9_RSaIT1_E
FNDA:4,_ZSt22__uninitialized_copy_aIPKNSt7__cxx1112basic_stringIcSt11char_traitsIcESaIcEEEPS5_S5_ET0_T_SA_S9_RSaIT1_E
FN:331,_ZSt22__uninitialized_copy_aIPKSt8functionIFvPvEEPS3_S3_ET0_T_S8_S7_RSaIT1_E
FNDA:2,_ZSt22__uninitialized_copy_aIPKSt8functionIFvPvEEPS3_S3_ET0_T_S8_S7_RSaIT1_E
DA:85,4
DA:88,4
DA:91,20
DA:92,16
DA:93,4
DA:95,0
DA:97,0
DA:98,0
DA:85,2
DA:88,2
DA:91,14
DA:92,12
DA:93,2
DA:95,0
DA:97,0
DA:98,0
DA:126,4
DA:145,4
DA:151,4
DA:126,2
DA:145,2
DA:151,2
DA:331,4
DA:333,4
DA:331,2
DA:333,2
end_of_record
SF:/home/imri/OS-FinalProject/PAO-server.cpp
FN:50,_Z3MSTP5GraphiRKNSt7__cxx1112basic_stringIcSt11char_traitsIcESaIcEEE
FNDA:1,_Z3MSTP5GraphiRKNSt7__cxx1112basic_stringIcSt11char_traitsIcESaIcEEE
FN:65,_Z9handleSigi
FNDA:2,_Z9handleSigi
FN:102,main
FNDA:2,main
FN:108,_ZZ4mainENKUlPvE_clES_
FNDA:1,_ZZ4mainENKUlPvE_clES_
FN:115,_ZZ4mainENKUlPvE0_clES_
FNDA:1,_ZZ4mainENKUlPvE0_clES_
FN:119,_ZZ4mainENKUlPvE1_clES_
FNDA:1,_ZZ4mainENKUlPvE1_clES_
FN:123,_ZZ4mainENKUlPvE2_clES_
FNDA:1,_ZZ4mainENKUlPvE2_clES_
FN:127,_ZZ4mainENKUlPvE3_clES_
FNDA:1,_ZZ4mainENKUlPvE3_clES_
FN:134,_ZZ4mainENKUlPvE4_clES_
FNDA:1,_ZZ4mainENKUlPvE4_clES_
DA:50,1
DA:52,1
DA:53,0
DA:55,1
DA:56,1
DA:58,1
DA:59,1
DA:65,2
DA:66,2
DA:69,3
DA:70,1
DA:71,1
DA:73,1
DA:74,0
DA:75,0
DA:76,0
DA:78,0
DA:79,0
DA:83,2
DA:85,5
DA:87,3
DA:89,3
DA:92,2
DA:93,2
DA:94,2
DA:96,2
DA:97,2
DA:102,2
DA:108,1
DA:109,1
DA:110,1
DA:111,1
DA:112,1
DA:115,1
DA:116,1
DA:119,1
DA:120,1
DA:123,1
DA:124,1
DA:127,1
DA:128,1
DA:131,1
DA:134,1
DA:135,1
DA:136,0
DA:139,1
DA:140,16
DA:142,2
DA:143,2
DA:144,14
DA:145,14
DA:147,2
DA:148,2
DA:149,2
DA:150,2
DA:152,2
DA:164,2
DA:165,2
DA:169,2
DA:172,2
DA:173,2
DA:174,0
DA:175,0
DA:179,2
DA:180,2
DA:181,2
DA:182,2
DA:183,2
DA:184,2
DA:186,2
DA:190,8
DA:192,6
DA:193,0
DA:194,0
DA:198,18
DA:201,12
DA:203,6
DA:205,2
DA:206,2
DA:208,2
DA:209,0
DA:212,2
DA:215,2
DA:216,2
DA:218,2
DA:219,2
DA:220,2
DA:223,2
DA:224,0
DA:229,4
DA:230,4
DA:232,4
DA:233,1
DA:234,1
DA:236,0
DA:238,1
DA:239,1
DA:240,1
DA:241,1
DA:242,1
DA:244,1
DA:245,1
DA:246,1
DA:247,1
DA:249,1
DA:250,1
DA:252,1
DA:255,3
DA:256,3
DA:259,6
DA:261,3
DA:262,2
DA:266,3
DA:267,0
DA:268,0
DA:272,3
DA:273,9
DA:274,6
DA:275,6
DA:276,3
DA:277,0
DA:280,3
DA:284,6
DA:288,0
end_of_record
SF:/usr/include/c++/11/bits/unordered_set.h
end_of_record
SF:/usr/include/c++/11/bits/stl_pair.h
FN:232,_ZNSt4pairIP5GraphP6TripleEC2IS1_S3_Lb1EEEv
FNDA:2,_ZNSt4pairIP5GraphP6TripleEC2IS1_S3_Lb1EEEv
FN:322,_ZNSt4pairIPSt18_Rb_tree_node_baseS1_EC2IRS1_Lb1EEEOT_RKS1_
FNDA:0,_ZNSt4pairIPSt18_Rb_tree_node_baseS1_EC2IRS1_Lb1EEEOT_RKS1_
FN:336,_ZNSt4pairIPSt18_Rb_tree_node_baseS1_EC2IRS1_Lb1EEERKS1_OT_
FNDA:0,_ZNSt4pairIPSt18_Rb_tree_node_baseS1_EC2IRS1_Lb1EEERKS1_OT_
FN:352,_ZNSt4pairIPSt18_Rb_tree_node_baseS1_EC2IRPSt13_Rb_tree_nodeIS_IKiS_IP5GraphP6TripleEEERS1_Lb1EEEOT_OT0_
FNDA:2,_ZNSt4pairIPSt18_Rb_tree_node_baseS1_EC2IRPSt13_Rb_tree_nodeIS_IKiS_IP5GraphP6TripleEEERS1_Lb1EEEOT_OT0_
FN:352,_ZNSt4pairISt17_Rb_tree_iteratorIS_IKiS_IP5GraphP6TripleEEES8_EC2IS8_S8_Lb1EEEOT_OT0_
FNDA:1,_ZNSt4pairISt17_Rb_tree_iteratorIS_IKiS_IP5GraphP6TripleEEES8_EC2IS8_S8_Lb1EEEOT_OT0_
FN:352,_ZNSt4pairIPSt18_Rb_tree_node_baseS1_EC2IRS1_S4_Lb1EEEOT_OT0_
FNDA:0,_ZNSt4pairIPSt18_Rb_tree_node_baseS1_EC2IRS1_S4_Lb1EEEOT_OT0_
FN:352,_ZNSt4pairINSt7__cxx1112basic_stringIcSt11char_traitsIcESaIcEEEP5GraphEC2IRA1_KcDnLb1EEEOT_OT0_
FNDA:1,_ZNSt4pairINSt7__cxx1112basic_stringIcSt11char_traitsIcESaIcEEEP5GraphEC2IRA1_KcDnLb1EEEOT_OT0_
DA:232,2
DA:233,2
DA:322,0
DA:323,0
DA:336,0
DA:337,0
DA:352,2
DA:353,2
DA:352,1
DA:353,1
DA:352,0
DA:353,0
DA:352,1
DA:353,1
end_of_record
SF:/usr/include/c++/11/initializer_list
FN:71,_ZNKSt16initializer_listINSt7__cxx1112basic_stringIcSt11char_traitsIcESaIcEEEE4sizeEv
FNDA:4,_ZNKSt16initializer_listINSt7__cxx1112basic_stringIcSt11char_traitsIcESaIcEEEE4sizeEv
FN:71,_ZNKSt16initializer_listISt8functionIFvPvEEE4sizeEv
FNDA:2,_ZNKSt16initializer_listISt8functionIFvPvEEE4sizeEv
FN:75,_ZNKSt16initializer_listINSt7__cxx1112basic_stringIcSt11char_traitsIcESaIcEEEE5beginEv
FNDA:8,_ZNKSt16initializer_listINSt7__cxx1112basic_stringIcSt11char_traitsIcESaIcEEEE5beginEv
FN:75,_ZNKSt16initializer_listISt8functionIFvPvEEE5beginEv
FNDA:4,_ZNKSt16initializer_listISt8functionIFvPvEEE5beginEv
FN:79,_ZNKSt16initializer_listINSt7__cxx1112basic_stringIcSt11char_traitsIcESaIcEEEE3endEv
FNDA:4,_ZNKSt16initializer_listINSt7__cxx1112basic_stringIcSt11char_traitsIcESaIcEEEE3endEv
FN:79,_ZNKSt16initializer_listISt8functionIFvPvEEE3endEv
FNDA:2,_ZNKSt16initializer_listISt8functionIFvPvEEE3endEv
DA:71,4
DA:71,2
DA:75,8
DA:75,4
DA:79,4
DA:79,2
end_of_record
SF:/usr/include/c++/11/ext/string_conversions.h
FN:99,_ZN9__gnu_cxx12__to_xstringINSt7__cxx1112basic_stringIcSt11char_traitsIcESaIcEEEcEET_PFiPT0_mPKS8_P13__va_list_tagEmSB_z
FNDA:0,_ZN9__gnu_cxx12__to_xstringINSt7__cxx1112basic_stringIcSt11char_traitsIcESaIcEEEcEET_PFiPT0_mPKS8_P13__va_list_tagEmSB_z
DA:99,0
DA:105,0
DA:109,0
DA:111,0
DA:113,0
DA:115,0
end_of_record
TN:
SF:/usr/include/c++/11/bits/stl_pair.h
end_of_record
SF:/usr/include/c++/11/bits/stl_uninitialized.h
FN:85,_ZNSt20__uninitialized_copyILb0EE13__uninit_copyIN9__gnu_cxx17__normal_iteratorIPKSt6vectorImSaImEES4_IS6_SaIS6_EEEEPS6_EET0_T_SE_SD_
FNDA:0,_ZNSt20__uninitialized_copyILb0EE13__uninit_copyIN9__gnu_cxx17__normal_iteratorIPKSt6vectorImSaImEES4_IS6_SaIS6_EEEEPS6_EET0_T_SE_SD_
FN:108,_ZNSt20__uninitialized_copyILb1EE13__uninit_copyIN9__gnu_cxx17__normal_iteratorIPKmSt6vectorImSaImEEEEPmEET0_T_SC_SB_
FNDA:0,_ZNSt20__uninitialized_copyILb1EE13__uninit_copyIN9__gnu_cxx17__normal_iteratorIPKmSt6vectorImSaImEEEEPmEET0_T_SC_SB_
FN:126,_ZSt18uninitialized_copyIN9__gnu_cxx17__normal_iteratorIPKmSt6vectorImSaImEEEEPmET0_T_SA_S9_
FNDA:0,_ZSt18uninitialized_copyIN9__gnu_cxx17__normal_iteratorIPKmSt6vectorImSaImEEEEPmET0_T_SA_S9_
FN:126,_ZSt18uninitialized_copyIN9__gnu_cxx17__normal_iteratorIPKSt6vectorImSaImEES2_IS4_SaIS4_EEEEPS4_ET0_T_SC_SB_
FNDA:0,_ZSt18uninitialized_copyIN9__gnu_cxx17__normal_iteratorIPKSt6vectorImSaImEES2_IS4_SaIS4_EEEEPS4_ET0_T_SC_SB_
FN:331,_ZSt22__uninitialized_copy_aIN9__gnu_cxx17__normal_iteratorIPKmSt6vectorImSaImEEEEPmmET0_T_SA_S9_RSaIT1_E
FNDA:0,_ZSt22__uninitialized_copy_aIN9__gnu_cxx17__normal_iteratorIPKmSt6vectorImSaImEEEEPmmET0_T_SA_S9_RSaIT1_E
FN:331,_ZSt22__uninitialized_copy_aIN9__gnu_cxx17__normal_iteratorIPKSt6vectorImSaImEES2_IS4_SaIS4_EEEEPS4_S4_ET0_T_SC_SB_RSaIT1_E
FNDA:0,_ZSt22__uninitialized_copy_aIN9__gnu_cxx17__normal_iteratorIPKSt6vectorImSaImEES2_IS4_SaIS4_EEEEPS4_S4_ET0_T_SC_SB_RSaIT1_E
FN:573,_ZNSt27__uninitialized_default_n_1ILb0EE18__uninit_default_nIP4EdgemEET_S4_T0_
FNDA:0,_ZNSt27__uninitialized_default_n_1ILb0EE18__uninit_default_nIP4EdgemEET_S4_T0_
FN:630,_ZSt25__uninitialized_default_nIP4EdgemET_S2_T0_
FNDA:0,_ZSt25__uninitialized_default_nIP4EdgemET_S2_T0_
FN:702,_ZSt27__uninitialized_default_n_aIP4EdgemS0_ET_S2_T0_RSaIT1_E
FNDA:0,_ZSt27__uninitialized_default_n_aIP4EdgemS0_ET_S2_T0_RSaIT1_E
DA:85,0
DA:88,0
DA:91,0
DA:92,0
DA:93,0
DA:95,0
DA:97,0
DA:98,0
DA:108,0
DA:110,0
DA:126,0
DA:145,0
DA:151,0
DA:126,0
DA:145,0
DA:151,0
DA:331,0
DA:333,0
DA:331,0
DA:333,0
DA:573,0
DA:575,0
DA:578,0
DA:579,0
DA:580,0
DA:630,0
DA:635,0
DA:640,0
DA:702,0
DA:704,0
end_of_record
SF:/usr/include/c++/11/bits/stl_construct.h
FN:109,_ZSt10_ConstructI4EdgeJEEvPT_DpOT0_
FNDA:0,_ZSt10_ConstructI4EdgeJEEvPT_DpOT0_
FN:109,_ZSt10_ConstructISt6vectorImSaImEEJRKS2_EEvPT_DpOT0_
FNDA:0,_ZSt10_ConstructISt6vectorImSaImEEJRKS2_EEvPT_DpOT0_
FN:146,_ZSt8_DestroyISt6vectorImSaImEEEvPT_
FNDA:0,_ZSt8_DestroyISt6vectorImSaImEEEvPT_
FN:146,_ZSt8_DestroyI4EdgeEvPT_
FNDA:0,_ZSt8_DestroyI4EdgeEvPT_
FN:160,_ZNSt12_Destroy_auxILb0EE9__destroyIPSt6vectorImSaImEEEEvT_S6_
FNDA:0,_ZNSt12_Destroy_auxILb0EE9__destroyIPSt6vectorImSaImEEEEvT_S6_
FN:160,_ZNSt12_Destroy_auxILb0EE9__destroyIP4EdgeEEvT_S4_
FNDA:0,_ZNSt12_Destroy_auxILb0EE9__destroyIP4EdgeEEvT_S4_
FN:172,_ZNSt12_Destroy_auxILb1EE9__destroyIPmEEvT_S3_
FNDA:0,_ZNSt12_Destroy_auxILb1EE9__destroyIPmEEvT_S3_
FN:182,_ZSt8_DestroyIPSt6vectorImSaImEEEvT_S4_
FNDA:0,_ZSt8_DestroyIPSt6vectorImSaImEEEvT_S4_
FN:182,_ZSt8_DestroyIP4EdgeEvT_S2_
FNDA:0,_ZSt8_DestroyIP4EdgeEvT_S2_
FN:182,_ZSt8_DestroyIPmEvT_S1_
FNDA:0,_ZSt8_DestroyIPmEvT_S1_
DA:109,0
DA:119,0
DA:120,0
DA:109,0
DA:119,0
DA:120,0
DA:146,0
DA:151,0
DA:153,0
DA:146,0
DA:151,0
DA:153,0
DA:160,0
DA:162,0
DA:163,0
DA:164,0
DA:160,0
DA:162,0
DA:163,0
DA:164,0
DA:172,0
DA:182,0
DA:196,0
DA:197,0
DA:182,0
DA:196,0
DA:197,0
DA:182,0
DA:196,0
DA:197,0
end_of_record
SF:/usr/include/c++/11/bits/alloc_traits.h
FN:463,_ZNSt16allocator_traitsISaImEE8allocateERS0_m
FNDA:0,_ZNSt16allocator_traitsISaImEE8allocateERS0_m
FN:463,_ZNSt16allocator_traitsISaISt6vectorImSaImEEEE8allocateERS3_m
FNDA:0,_ZNSt16allocator_traitsISaISt6vectorImSaImEEEE8allocateERS3_m
FN:463,_ZNSt16allocator_traitsISaI4EdgeEE8allocateERS1_m
FNDA:0,_ZNSt16allocator_traitsISaI4EdgeEE8allocateERS1_m
FN:495,_ZNSt16allocator_traitsISaISt13_Rb_tree_nodeISt4pairIKmmEEEE10deallocateERS5_PS4_m
FNDA:0,_ZNSt16allocator_traitsISaISt13_Rb_tree_nodeISt4pairIKmmEEEE10deallocateERS5_PS4_m
FN:495,_ZNSt16allocator_traitsISaImEE10deallocateERS0_Pmm
FNDA:0,_ZNSt16allocator_traitsISaImEE10deallocateERS0_Pmm
FN:495,_ZNSt16allocator_traitsISaISt6vectorImSaImEEEE10deallocateERS3_PS2_m
FNDA:0,_ZNSt16allocator_traitsISaISt6vectorImSaImEEEE10deallocateERS3_PS2_m
FN:495,_ZNSt16allocator_traitsISaI4EdgeEE10deallocateERS1_PS0_m
FNDA:0,_ZNSt16allocator_traitsISaI4EdgeEE10deallocateERS1_PS0_m
FN:531,_ZNSt16allocator_traitsISaISt13_Rb_tree_nodeISt4pairIKmmEEEE7destroyIS3_EEvRS5_PT_
FNDA:0,_ZNSt16allocator_traitsISaISt13_Rb_tree_nodeISt4pairIKmmEEEE7destroyIS3_EEvRS5_PT_
FN:547,_ZNSt16allocator_traitsISaI4EdgeEE8max_sizeERKS1_
FNDA:0,_ZNSt16allocator_traitsISaI4EdgeEE8max_sizeERKS1_
FN:562,_ZNSt16allocator_traitsISaImEE37select_on_container_copy_constructionERKS0_
FNDA:0,_ZNSt16allocator_traitsISaImEE37select_on_container_copy_constructionERKS0_
FN:562,_ZNSt16allocator_traitsISaISt6vectorImSaImEEEE37select_on_container_copy_constructionERKS3_
FNDA:0,_ZNSt16allocator_traitsISaISt6vectorImSaImEEEE37select_on_container_copy_constructionERKS3_
FN:710,_ZSt15__alloc_on_moveISaISt6vectorImSaImEEEEvRT_S5_
FNDA:0,_ZSt15__alloc_on_moveISaISt6vectorImSaImEEEEvRT_S5_
FN:845,_ZSt8_DestroyIPSt6vectorImSaImEES2_EvT_S4_RSaIT0_E
FNDA:0,_ZSt8_DestroyIPSt6vectorImSaImEES2_EvT_S4_RSaIT0_E
FN:845,_ZSt8_DestroyIP4EdgeS0_EvT_S2_RSaIT0_E
FNDA:0,_ZSt8_DestroyIP4EdgeS0_EvT_S2_RSaIT0_E
FN:845,_ZSt8_DestroyIPmmEvT_S1_RSaIT0_E
FNDA:0,_ZSt8_DestroyIPmmEvT_S1_RSaIT0_E
DA:463,0
DA:464,0
DA:463,0
DA:464,0
DA:463,0
DA:464,0
DA:495,0
DA:496,0
DA:495,0
DA:496,0
DA:495,0
DA:496,0
DA:495,0
DA:496,0
DA:531,0
DA:535,0
DA:539,0
DA:547,0
DA:550,0
DA:562,0
DA:563,0
DA:562,0
DA:563,0
DA:710,0
DA:716,0
DA:720,0
DA:845,0
DA:848,0
DA:849,0
DA:845,0
DA:848,0
DA:849,0
DA:845,0
DA:848,0
DA:849,0
end_of_record
SF:/usr/include/c++/11/bits/stl_vector.h
FN:97,_ZNSt12_Vector_baseImSaImEE17_Vector_impl_dataC2Ev
FNDA:0,_ZNSt12_Vector_baseImSaImEE17_Vector_impl_dataC2Ev
FN:97,_ZNSt12_Vector_baseI4EdgeSaIS0_EE17_Vector_impl_dataC2Ev
FNDA:0,_ZNSt12_Vector_baseI4EdgeSaIS0_EE17_Vector_impl_dataC2Ev
FN:97,_ZNSt12_Vector_baseISt6vectorImSaImEESaIS2_EE17_Vector_impl_dataC2Ev
FNDA:0,_ZNSt12_Vector_baseISt6vectorImSaImEESaIS2_EE17_Vector_impl_dataC2Ev
FN:109,_ZNSt12_Vector_baseISt6vectorImSaImEESaIS2_EE17_Vector_impl_data12_M_copy_dataERKS5_
FNDA:0,_ZNSt12_Vector_baseISt6vectorImSaImEESaIS2_EE17_Vector_impl_data12_M_copy_dataERKS5_
FN:117,_ZNSt12_Vector_baseISt6vectorImSaImEESaIS2_EE17_Vector_impl_data12_M_swap_dataERS5_
FNDA:0,_ZNSt12_Vector_baseISt6vectorImSaImEESaIS2_EE17_Vector_impl_data12_M_swap_dataERS5_
FN:131,_ZNSt12_Vector_baseI4EdgeSaIS0_EE12_Vector_implC2Ev
FNDA:0,_ZNSt12_Vector_baseI4EdgeSaIS0_EE12_Vector_implC2Ev
FN:131,_ZNSt12_Vector_baseISt6vectorImSaImEESaIS2_EE12_Vector_implC2Ev
FNDA:0,_ZNSt12_Vector_baseISt6vectorImSaImEESaIS2_EE12_Vector_implC2Ev
FN:136,_ZNSt12_Vector_baseImSaImEE12_Vector_implC2ERKS0_
FNDA:0,_ZNSt12_Vector_baseImSaImEE12_Vector_implC2ERKS0_
FN:136,_ZNSt12_Vector_baseI4EdgeSaIS0_EE12_Vector_implC2ERKS1_
FNDA:0,_ZNSt12_Vector_baseI4EdgeSaIS0_EE12_Vector_implC2ERKS1_
FN:136,_ZNSt12_Vector_baseISt6vectorImSaImEESaIS2_EE12_Vector_implC2ERKS3_
FNDA:0,_ZNSt12_Vector_baseISt6vectorImSaImEESaIS2_EE12_Vector_implC2ERKS3_
FN:276,_ZNSt12_Vector_baseImSaImEE19_M_get_Tp_allocatorEv
FNDA:0,_ZNSt12_Vector_baseImSaImEE19_M_get_Tp_allocatorEv
FN:276,_ZNSt12_Vector_baseI4EdgeSaIS0_EE19_M_get_Tp_allocatorEv
FNDA:0,_ZNSt12_Vector_baseI4EdgeSaIS0_EE19_M_get_Tp_allocatorEv
FN:276,_ZNSt12_Vector_baseISt6vectorImSaImEESaIS2_EE19_M_get_Tp_allocatorEv
FNDA:0,_ZNSt12_Vector_baseISt6vectorImSaImEESaIS2_EE19_M_get_Tp_allocatorEv
FN:280,_ZNKSt12_Vector_baseISt6vectorImSaImEESaIS2_EE19_M_get_Tp_allocatorEv
FNDA:0,_ZNKSt12_Vector_baseISt6vectorImSaImEESaIS2_EE19_M_get_Tp_allocatorEv
FN:280,_ZNKSt12_Vector_baseImSaImEE19_M_get_Tp_allocatorEv
FNDA:0,_ZNKSt12_Vector_baseImSaImEE19_M_get_Tp_allocatorEv
FN:284,_ZNKSt12_Vector_baseISt6vectorImSaImEESaIS2_EE13get_allocatorEv
FNDA:0,_ZNKSt12_Vector_baseISt6vectorImSaImEESaIS2_EE13get_allocatorEv
FN:288,_ZNSt12_Vector_baseI4EdgeSaIS0_EEC2Ev
FNDA:0,_ZNSt12_Vector_baseI4EdgeSaIS0_EEC2Ev
FN:288,_ZNSt12_Vector_baseISt6vectorImSaImEESaIS2_EEC2Ev
FNDA:0,_ZNSt12_Vector_baseISt6vectorImSaImEESaIS2_EEC2Ev
FN:293,_ZNSt12_Vector_baseISt6vectorImSaImEESaIS2_EEC2ERKS3_
FNDA:0,_ZNSt12_Vector_baseISt6vectorImSaImEESaIS2_EEC2ERKS3_
FN:303,_ZNSt12_Vector_baseImSaImEEC2EmRKS0_
FNDA:0,_ZNSt12_Vector_baseImSaImEEC2EmRKS0_
FN:303,_ZNSt12_Vector_baseI4EdgeSaIS0_EEC2EmRKS1_
FNDA:0,_ZNSt12_Vector_baseI4EdgeSaIS0_EEC2EmRKS1_
FN:303,_ZNSt12_Vector_baseISt6vectorImSaImEESaIS2_EEC2EmRKS3_
FNDA:0,_ZNSt12_Vector_baseISt6vectorImSaImEESaIS2_EEC2EmRKS3_
FN:333,_ZNSt12_Vector_baseI4EdgeSaIS0_EED2Ev
FNDA:0,_ZNSt12_Vector_baseI4EdgeSaIS0_EED2Ev
FN:333,_ZNSt12_Vector_baseISt6vectorImSaImEESaIS2_EED2Ev
FNDA:0,_ZNSt12_Vector_baseISt6vectorImSaImEESaIS2_EED2Ev
FN:333,_ZNSt12_Vector_baseImSaImEED2Ev
FNDA:0,_ZNSt12_Vector_baseImSaImEED2Ev
FN:343,_ZNSt12_Vector_baseISt6vectorImSaImEESaIS2_EE11_M_allocateEm
FNDA:0,_ZNSt12_Vector_baseISt6vectorImSaImEESaIS2_EE11_M_allocateEm
FN:343,_ZNSt12_Vector_baseImSaImEE11_M_allocateEm
FNDA:0,_ZNSt12_Vector_baseImSaImEE11_M_allocateEm
FN:343,_ZNSt12_Vector_baseI4EdgeSaIS0_EE11_M_allocateEm
FNDA:0,_ZNSt12_Vector_baseI4EdgeSaIS0_EE11_M_allocateEm
FN:350,_ZNSt12_Vector_baseImSaImEE13_M_deallocateEPmm
FNDA:0,_ZNSt12_Vector_baseImSaImEE13_M_deallocateEPmm
FN:350,_ZNSt12_Vector_baseISt6vectorImSaImEESaIS2_EE13_M_deallocateEPS2_m
FNDA:0,_ZNSt12_Vector_baseISt6vectorImSaImEESaIS2_EE13_M_deallocateEPS2_m
FN:350,_ZNSt12_Vector_baseI4EdgeSaIS0_EE13_M_deallocateEPS0_m
FNDA:0,_ZNSt12_Vector_baseI4EdgeSaIS0_EE13_M_deallocateEPS0_m
FN:359,_ZNSt12_Vector_baseISt6vectorImSaImEESaIS2_EE17_M_create_storageEm
FNDA:0,_ZNSt12_Vector_baseISt6vectorImSaImEESaIS2_EE17_M_create_storageEm
FN:359,_ZNSt12_Vector_baseImSaImEE17_M_create_storageEm
FNDA:0,_ZNSt12_Vector_baseImSaImEE17_M_create_storageEm
FN:359,_ZNSt12_Vector_baseI4EdgeSaIS0_EE17_M_create_storageEm
FNDA:0,_ZNSt12_Vector_baseI4EdgeSaIS0_EE17_M_create_storageEm
FN:487,_ZNSt6vectorI4EdgeSaIS0_EEC2Ev
FNDA:0,_ZNSt6vectorI4EdgeSaIS0_EEC2Ev
FN:487,_ZNSt6vectorIS_ImSaImEESaIS1_EEC2Ev
FNDA:0,_ZNSt6vectorIS_ImSaImEESaIS1_EEC2Ev
FN:497,_ZNSt6vectorIS_ImSaImEESaIS1_EEC2ERKS2_
FNDA:0,_ZNSt6vectorIS_ImSaImEESaIS1_EEC2ERKS2_
FN:510,_ZNSt6vectorI4EdgeSaIS0_EEC2EmRKS1_
FNDA:0,_ZNSt6vectorI4EdgeSaIS0_EEC2EmRKS1_
FN:553,_ZNSt6vectorImSaImEEC2ERKS1_
FNDA:0,_ZNSt6vectorImSaImEEC2ERKS1_
FN:553,_ZNSt6vectorIS_ImSaImEESaIS1_EEC2ERKS3_
FNDA:0,_ZNSt6vectorIS_ImSaImEESaIS1_EEC2ERKS3_
FN:678,_ZNSt6vectorIS_ImSaImEESaIS1_EED2Ev
FNDA:0,_ZNSt6vectorIS_ImSaImEESaIS1_EED2Ev
FN:678,_ZNSt6vectorImSaImEED2Ev
FNDA:0,_ZNSt6vectorImSaImEED2Ev
FN:678,_ZNSt6vectorI4EdgeSaIS0_EED2Ev
FNDA:0,_ZNSt6vectorI4EdgeSaIS0_EED2Ev
FN:709,_ZNSt6vectorIS_ImSaImEESaIS1_EEaSEOS3_
FNDA:0,_ZNSt6vectorIS_ImSaImEESaIS1_EEaSEOS3_
FN:820,_ZNKSt6vectorImSaImEE5beginEv
FNDA:0,_ZNKSt6vectorImSaImEE5beginEv
FN:820,_ZNKSt6vectorIS_ImSaImEESaIS1_EE5beginEv
FNDA:0,_ZNKSt6vectorIS_ImSaImEESaIS1_EE5beginEv
FN:838,_ZNKSt6vectorImSaImEE3endEv
FNDA:0,_ZNKSt6vectorImSaImEE3endEv
FN:838,_ZNKSt6vectorIS_ImSaImEESaIS1_EE3endEv
FNDA:0,_ZNKSt6vectorIS_ImSaImEESaIS1_EE3endEv
FN:918,_ZNKSt6vectorImSaImEE4sizeEv
FNDA:0,_ZNKSt6vectorImSaImEE4sizeEv
FN:918,_ZNKSt6vectorIS_ImSaImEESaIS1_EE4sizeEv
FNDA:0,_ZNKSt6vectorIS_ImSaImEESaIS1_EE4sizeEv
FN:1043,_ZNSt6vectorI4EdgeSaIS0_EEixEm
FNDA:0,_ZNSt6vectorI4EdgeSaIS0_EEixEm
FN:1603,_ZNSt6vectorI4EdgeSaIS0_EE21_M_default_initializeEm
FNDA:0,_ZNSt6vectorI4EdgeSaIS0_EE21_M_default_initializeEm
FN:1767,_ZNSt6vectorI4EdgeSaIS0_EE17_S_check_init_lenEmRKS1_
FNDA:0,_ZNSt6vectorI4EdgeSaIS0_EE17_S_check_init_lenEmRKS1_
FN:1776,_ZNSt6vectorI4EdgeSaIS0_EE11_S_max_sizeERKS1_
FNDA:0,_ZNSt6vectorI4EdgeSaIS0_EE11_S_max_sizeERKS1_
FN:1815,_ZNSt6vectorIS_ImSaImEESaIS1_EE14_M_move_assignEOS3_St17integral_constantIbLb1EE
FNDA:0,_ZNSt6vectorIS_ImSaImEESaIS1_EE14_M_move_assignEOS3_St17integral_constantIbLb1EE
DA:97,0
DA:98,0
DA:99,0
DA:97,0
DA:98,0
DA:99,0
DA:97,0
DA:98,0
DA:99,0
DA:109,0
DA:111,0
DA:112,0
DA:113,0
DA:114,0
DA:117,0
DA:121,0
DA:122,0
DA:123,0
DA:124,0
DA:125,0
DA:131,0
DA:133,0
DA:134,0
DA:131,0
DA:133,0
DA:134,0
DA:136,0
DA:137,0
DA:138,0
DA:136,0
DA:137,0
DA:138,0
DA:136,0
DA:137,0
DA:138,0
DA:276,0
DA:277,0
DA:276,0
DA:277,0
DA:276,0
DA:277,0
DA:280,0
DA:281,0
DA:280,0
DA:281,0
DA:284,0
DA:285,0
DA:288,0
DA:288,0
DA:293,0
DA:294,0
DA:303,0
DA:304,0
DA:305,0
DA:303,0
DA:304,0
DA:305,0
DA:303,0
DA:304,0
DA:305,0
DA:333,0
DA:335,0
DA:336,0
DA:337,0
DA:333,0
DA:335,0
DA:336,0
DA:337,0
DA:333,0
DA:335,0
DA:336,0
DA:337,0
DA:343,0
DA:346,0
DA:343,0
DA:346,0
DA:343,0
DA:346,0
DA:350,0
DA:353,0
DA:354,0
DA:355,0
DA:350,0
DA:353,0
DA:354,0
DA:355,0
DA:350,0
DA:353,0
DA:354,0
DA:355,0
DA:359,0
DA:361,0
DA:362,0
DA:363,0
DA:364,0
DA:359,0
DA:361,0
DA:362,0
DA:363,0
DA:364,0
DA:359,0
DA:361,0
DA:362,0
DA:363,0
DA:364,0
DA:487,0
DA:487,0
DA:497,0
DA:498,0
DA:510,0
DA:511,0
DA:512,0
DA:553,0
DA:555,0
DA:557,0
DA:558,0
DA:560,0
DA:561,0
DA:553,0
DA:555,0
DA:557,0
DA:558,0
DA:560,0
DA:561,0
DA:678,0
DA:680,0
DA:681,0
DA:683,0
DA:678,0
DA:680,0
DA:681,0
DA:683,0
DA:678,0
DA:680,0
DA:681,0
DA:683,0
DA:709,0
DA:711,0
DA:714,0
DA:715,0
DA:820,0
DA:821,0
DA:820,0
DA:821,0
DA:838,0
DA:839,0
DA:838,0
DA:839,0
DA:918,0
DA:919,0
DA:918,0
DA:919,0
DA:1043,0
DA:1046,0
DA:1603,0
DA:1605,0
DA:1606,0
DA:1607,0
DA:1608,0
DA:1767,0
DA:1769,0
DA:1770,0
DA:1772,0
DA:1776,0
DA:1781,0
DA:1783,0
DA:1784,0
DA:1815,0
DA:1817,0
DA:1818,0
DA:1819,0
DA:1820,0
DA:1821,0
end_of_record
SF:/usr/include/c++/11/new
FN:174,_ZnwmPv
FNDA:0,_ZnwmPv
FN:180,_ZdlPvS_
FNDA:0,_ZdlPvS_
DA:174,0
DA:175,0
DA:180,0
end_of_record
SF:/usr/include/c++/11/bits/cpp_type_traits.h
FN:560,_ZSt12__miter_baseIN9__gnu_cxx17__normal_iteratorIPKmSt6vectorImSaImEEEEET_S8_
FNDA:0,_ZSt12__miter_baseIN9__gnu_cxx17__normal_iteratorIPKmSt6vectorImSaImEEEEET_S8_
DA:560,0
DA:561,0
end_of_record
SF:/usr/include/c++/11/bits/stl_map.h
FN:185,_ZNSt3mapImmSt4lessImESaISt4pairIKmmEEEC2Ev
FNDA:0,_ZNSt3mapImmSt4lessImESaISt4pairIKmmEEEC2Ev
FN:302,_ZNSt3mapImmSt4lessImESaISt4pairIKmmEEED2Ev
FNDA:0,_ZNSt3mapImmSt4lessImESaISt4pairIKmmEEED2Ev
DA:185,0
DA:302,0
end_of_record
SF:/usr/include/c++/11/limits
FN:1274,_ZNSt14numeric_limitsImE3maxEv
FNDA:0,_ZNSt14numeric_limitsImE3maxEv
DA:1274,0
end_of_record
SF:/usr/include/c++/11/bits/stl_iterator.h
FN:1027,_ZN9__gnu_cxx17__normal_iteratorIPKmSt6vectorImSaImEEEC2ERKS2_
FNDA:0,_ZN9__gnu_cxx17__normal_iteratorIPKmSt6vectorImSaImEEEC2ERKS2_
FN:1027,_ZN9__gnu_cxx17__normal_iteratorIPKSt6vectorImSaImEES1_IS3_SaIS3_EEEC2ERKS5_
FNDA:0,_ZN9__gnu_cxx17__normal_iteratorIPKSt6vectorImSaImEES1_IS3_SaIS3_EEEC2ERKS5_
FN:1042,_ZNK9__gnu_cxx17__normal_iteratorIPKSt6vectorImSaImEES1_IS3_SaIS3_EEEdeEv
FNDA:0,_ZNK9__gnu_cxx17__normal_iteratorIPKSt6vectorImSaImEES1_IS3_SaIS3_EEEdeEv
FN:1052,_ZN9__gnu_cxx17__normal_iteratorIPKSt6vectorImSaImEES1_IS3_SaIS3_EEEppEv
FNDA:0,_ZN9__gnu_cxx17__normal_iteratorIPKSt6vectorImSaImEES1_IS3_SaIS3_EEEppEv
FN:1105,_ZNK9__gnu_cxx17__normal_iteratorIPKmSt6vectorImSaImEEE4baseEv
FNDA:0,_ZNK9__gnu_cxx17__normal_iteratorIPKmSt6vectorImSaImEEE4baseEv
FN:1105,_ZNK9__gnu_cxx17__normal_iteratorIPKSt6vectorImSaImEES1_IS3_SaIS3_EEE4baseEv
FNDA:0,_ZNK9__gnu_cxx17__normal_iteratorIPKSt6vectorImSaImEES1_IS3_SaIS3_EEE4baseEv
FN:1179,_ZN9__gnu_cxxneIPKSt6vectorImSaImEES1_IS3_SaIS3_EEEEbRKNS_17__normal_iteratorIT_T0_EESD_
FNDA:0,_ZN9__gnu_cxxneIPKSt6vectorImSaImEES1_IS3_SaIS3_EEEEbRKNS_17__normal_iteratorIT_T0_EESD_
FN:1291,_ZSt12__niter_baseIPKmSt6vectorImSaImEEET_N9__gnu_cxx17__normal_iteratorIS5_T0_EE
FNDA:0,_ZSt12__niter_baseIPKmSt6vectorImSaImEEET_N9__gnu_cxx17__normal_iteratorIS5_T0_EE
DA:1027,0
DA:1028,0
DA:1027,0
DA:1028,0
DA:1042,0
DA:1043,0
DA:1052,0
DA:1054,0
DA:1055,0
DA:1105,0
DA:1106,0
DA:1105,0
DA:1106,0
DA:1179,0
DA:1182,0
DA:1291,0
DA:1293,0
end_of_record
SF:/home/imri/OS-FinalProject/GraphObj/edge.hpp
FN:21,_ZN4EdgeC2Ev
FNDA:0,_ZN4EdgeC2Ev
DA:21,0
end_of_record
SF:/usr/include/c++/11/ext/new_allocator.h
FN:79,_ZN9__gnu_cxx13new_allocatorI4EdgeEC2Ev
FNDA:0,_ZN9__gnu_cxx13new_allocatorI4EdgeEC2Ev
FN:79,_ZN9__gnu_cxx13new_allocatorISt13_Rb_tree_nodeISt4pairIKmmEEEC2Ev
FNDA:0,_ZN9__gnu_cxx13new_allocatorISt13_Rb_tree_nodeISt4pairIKmmEEEC2Ev
FN:79,_ZN9__gnu_cxx13new_allocatorISt6vectorImSaImEEEC2Ev
FNDA:0,_ZN9__gnu_cxx13new_allocatorISt6vectorImSaImEEEC2Ev
FN:82,_ZN9__gnu_cxx13new_allocatorImEC2ERKS1_
FNDA:0,_ZN9__gnu_cxx13new_allocatorImEC2ERKS1_
FN:82,_ZN9__gnu_cxx13new_allocatorISt6vectorImSaImEEEC2ERKS4_
FNDA:0,_ZN9__gnu_cxx13new_allocatorISt6vectorImSaImEEEC2ERKS4_
FN:82,_ZN9__gnu_cxx13new_allocatorI4EdgeEC2ERKS2_
FNDA:0,_ZN9__gnu_cxx13new_allocatorI4EdgeEC2ERKS2_
FN:89,_ZN9__gnu_cxx13new_allocatorI4EdgeED2Ev
FNDA:0,_ZN9__gnu_cxx13new_allocatorI4EdgeED2Ev
FN:89,_ZN9__gnu_cxx13new_allocatorISt13_Rb_tree_nodeISt4pairIKmmEEED2Ev
FNDA:0,_ZN9__gnu_cxx13new_allocatorISt13_Rb_tree_nodeISt4pairIKmmEEED2Ev
FN:89,_ZN9__gnu_cxx13new_allocatorISt6vectorImSaImEEED2Ev
FNDA:0,_ZN9__gnu_cxx13new_allocatorISt6vectorImSaImEEED2Ev
FN:89,_ZN9__gnu_cxx13new_allocatorImED2Ev
FNDA:0,_ZN9__gnu_cxx13new_allocatorImED2Ev
FN:103,_ZN9__gnu_cxx13new_allocatorISt6vectorImSaImEEE8allocateEmPKv
FNDA:0,_ZN9__gnu_cxx13new_allocatorISt6vectorImSaImEEE8allocateEmPKv
FN:103,_ZN9__gnu_cxx13new_allocatorI4EdgeE8allocateEmPKv
FNDA:0,_ZN9__gnu_cxx13new_allocatorI4EdgeE8allocateEmPKv
FN:103,_ZN9__gnu_cxx13new_allocatorImE8allocateEmPKv
FNDA:0,_ZN9__gnu_cxx13new_allocatorImE8allocateEmPKv
FN:132,_ZN9__gnu_cxx13new_allocatorImE10deallocateEPmm
FNDA:0,_ZN9__gnu_cxx13new_allocatorImE10deallocateEPmm
FN:132,_ZN9__gnu_cxx13new_allocatorI4EdgeE10deallocateEPS1_m
FNDA:0,_ZN9__gnu_cxx13new_allocatorI4EdgeE10deallocateEPS1_m
FN:132,_ZN9__gnu_cxx13new_allocatorISt6vectorImSaImEEE10deallocateEPS3_m
FNDA:0,_ZN9__gnu_cxx13new_allocatorISt6vectorImSaImEEE10deallocateEPS3_m
FN:132,_ZN9__gnu_cxx13new_allocatorISt13_Rb_tree_nodeISt4pairIKmmEEE10deallocateEPS5_m
FNDA:0,_ZN9__gnu_cxx13new_allocatorISt13_Rb_tree_nodeISt4pairIKmmEEE10deallocateEPS5_m
FN:154,_ZNK9__gnu_cxx13new_allocatorI4EdgeE8max_sizeEv
FNDA:0,_ZNK9__gnu_cxx13new_allocatorI4EdgeE8max_sizeEv
FN:166,_ZN9__gnu_cxx13new_allocatorISt13_Rb_tree_nodeISt4pairIKmmEEE7destroyIS4_EEvPT_
FNDA:0,_ZN9__gnu_cxx13new_allocatorISt13_Rb_tree_nodeISt4pairIKmmEEE7destroyIS4_EEvPT_
FN:197,_ZNK9__gnu_cxx13new_allocatorI4EdgeE11_M_max_sizeEv
FNDA:0,_ZNK9__gnu_cxx13new_allocatorI4EdgeE11_M_max_sizeEv
FN:197,_ZNK9__gnu_cxx13new_allocatorISt6vectorImSaImEEE11_M_max_sizeEv
FNDA:0,_ZNK9__gnu_cxx13new_allocatorISt6vectorImSaImEEE11_M_max_sizeEv
FN:197,_ZNK9__gnu_cxx13new_allocatorImE11_M_max_sizeEv
FNDA:0,_ZNK9__gnu_cxx13new_allocatorImE11_M_max_sizeEv
DA:79,0
DA:79,0
DA:79,0
DA:82,0
DA:82,0
DA:82,0
DA:89,0
DA:89,0
DA:89,0
DA:89,0
DA:103,0
DA:111,0
DA:115,0
DA:116,0
DA:117,0
DA:127,0
DA:103,0
DA:111,0
DA:115,0
DA:116,0
DA:117,0
DA:127,0
DA:103,0
DA:111,0
DA:115,0
DA:116,0
DA:117,0
DA:127,0
DA:132,0
DA:145,0
DA:132,0
DA:145,0
DA:132,0
DA:145,0
DA:132,0
DA:145,0
DA:154,0
DA:155,0
DA:166,0
DA:168,0
DA:197,0
DA:200,0
DA:197,0
DA:200,0
DA:197,0
DA:200,0
end_of_record
SF:/home/imri/OS-FinalProject/MST/MST_Strategy.hpp
FN:8,_ZN12MST_StrategyD0Ev
FNDA:0,_ZN12MST_StrategyD0Ev
FN:8,_ZN12MST_StrategyD2Ev
FNDA:4,_ZN12MST_StrategyD2Ev
DA:8,0
DA:8,4
end_of_record
SF:/usr/include/c++/11/bits/move.h
FN:49,_ZSt11__addressofISt6vectorImSaImEEEPT_RS3_
FNDA:0,_ZSt11__addressofISt6vectorImSaImEEEPT_RS3_
FN:49,_ZSt11__addressofI4EdgeEPT_RS1_
FNDA:0,_ZSt11__addressofI4EdgeEPT_RS1_
FN:77,_ZSt7forwardIRKSt6vectorImSaImEEEOT_RNSt16remove_referenceIS5_E4typeE
FNDA:0,_ZSt7forwardIRKSt6vectorImSaImEEEOT_RNSt16remove_referenceIS5_E4typeE
FN:77,_ZSt7forwardISt6vectorIS0_ImSaImEESaIS2_EEEOT_RNSt16remove_referenceIS5_E4typeE
FNDA:0,_ZSt7forwardISt6vectorIS0_ImSaImEESaIS2_EEEOT_RNSt16remove_referenceIS5_E4typeE
FN:104,_ZSt4moveIRSaISt6vectorImSaImEEEEONSt16remove_referenceIT_E4typeEOS6_
FNDA:0,_ZSt4moveIRSaISt6vectorImSaImEEEEONSt16remove_referenceIT_E4typeEOS6_
FN:104,_ZSt4moveIRSt6vectorIS0_ImSaImEESaIS2_EEEONSt16remove_referenceIT_E4typeEOS7_
FNDA:0,_ZSt4moveIRSt6vectorIS0_ImSaImEESaIS2_EEEONSt16remove_referenceIT_E4typeEOS7_
DA:49,0
DA:50,0
DA:49,0
DA:50,0
DA:77,0
DA:78,0
DA:77,0
DA:78,0
DA:104,0
DA:105,0
DA:104,0
DA:105,0
end_of_record
SF:/usr/include/c++/11/bits/stl_algobase.h
FN:230,_ZSt3minImERKT_S2_S2_
FNDA:0,_ZSt3minImERKT_S2_S2_
FN:313,_ZSt12__niter_baseIPmET_S1_
FNDA:0,_ZSt12__niter_baseIPmET_S1_
FN:335,_ZSt12__niter_wrapIPmET_RKS1_S1_
FNDA:0,_ZSt12__niter_wrapIPmET_RKS1_S1_
FN:420,_ZNSt11__copy_moveILb0ELb1ESt26random_access_iterator_tagE8__copy_mImEEPT_PKS3_S6_S4_
FNDA:0,_ZNSt11__copy_moveILb0ELb1ESt26random_access_iterator_tagE8__copy_mImEEPT_PKS3_S6_S4_
FN:486,_ZSt14__copy_move_a2ILb0EPKmPmET1_T0_S4_S3_
FNDA:0,_ZSt14__copy_move_a2ILb0EPKmPmET1_T0_S4_S3_
FN:521,_ZSt14__copy_move_a1ILb0EPKmPmET1_T0_S4_S3_
FNDA:0,_ZSt14__copy_move_a1ILb0EPKmPmET1_T0_S4_S3_
FN:527,_ZSt13__copy_move_aILb0EN9__gnu_cxx17__normal_iteratorIPKmSt6vectorImSaImEEEEPmET1_T0_SA_S9_
FNDA:0,_ZSt13__copy_move_aILb0EN9__gnu_cxx17__normal_iteratorIPKmSt6vectorImSaImEEEEPmET1_T0_SA_S9_
FN:611,_ZSt4copyIN9__gnu_cxx17__normal_iteratorIPKmSt6vectorImSaImEEEEPmET0_T_SA_S9_
FNDA:0,_ZSt4copyIN9__gnu_cxx17__normal_iteratorIPKmSt6vectorImSaImEEEEPmET0_T_SA_S9_
DA:230,0
DA:235,0
DA:236,0
DA:237,0
DA:313,0
DA:315,0
DA:335,0
DA:336,0
DA:420,0
DA:429,0
DA:430,0
DA:431,0
DA:432,0
DA:486,0
DA:495,0
DA:521,0
DA:522,0
DA:527,0
DA:529,0
DA:532,0
DA:611,0
DA:620,0
end_of_record
SF:/home/imri/OS-FinalProject/MST/Boruvka.cpp
FN:5,_ZN7BoruvkaclEP5Graph
FNDA:0,_ZN7BoruvkaclEP5Graph
DA:5,0
DA:8,0
DA:11,0
DA:14,0
DA:17,0
DA:20,0
DA:24,0
DA:27,0
DA:29,0
DA:30,0
DA:34,0
DA:36,0
DA:37,0
DA:40,0
DA:42,0
DA:44,0
DA:46,0
DA:48,0
DA:57,0
DA:59,0
DA:61,0
DA:62,0
DA:64,0
DA:66,0
DA:67,0
DA:68,0
DA:75,0
DA:76,0
DA:78,0
DA:79,0
DA:82,0
DA:83,0
end_of_record
SF:/home/imri/OS-FinalProject/GraphObj/vertex.hpp
FN:29,_ZN6VertexC2Ev
FNDA:0,_ZN6VertexC2Ev
DA:29,0
end_of_record
SF:/usr/include/c++/11/bits/stl_tree.h
FN:146,_ZNSt20_Rb_tree_key_compareISt4lessImEEC2Ev
FNDA:0,_ZNSt20_Rb_tree_key_compareISt4lessImEEC2Ev
FN:173,_ZNSt15_Rb_tree_headerC2Ev
FNDA:0,_ZNSt15_Rb_tree_headerC2Ev
FN:206,_ZNSt15_Rb_tree_header8_M_resetEv
FNDA:0,_ZNSt15_Rb_tree_header8_M_resetEv
FN:234,_ZNSt13_Rb_tree_nodeISt4pairIKmmEE9_M_valptrEv
FNDA:0,_ZNSt13_Rb_tree_nodeISt4pairIKmmEE9_M_valptrEv
FN:547,_ZNSt8_Rb_treeImSt4pairIKmmESt10_Select1stIS2_ESt4lessImESaIS2_EE21_M_get_Node_allocatorEv
FNDA:0,_ZNSt8_Rb_treeImSt4pairIKmmESt10_Select1stIS2_ESt4lessImESaIS2_EE21_M_get_Node_allocatorEv
FN:564,_ZNSt8_Rb_treeImSt4pairIKmmESt10_Select1stIS2_ESt4lessImESaIS2_EE11_M_put_nodeEPSt13_Rb_tree_nodeIS2_E
FNDA:0,_ZNSt8_Rb_treeImSt4pairIKmmESt10_Select1stIS2_ESt4lessImESaIS2_EE11_M_put_nodeEPSt13_Rb_tree_nodeIS2_E
FN:618,_ZNSt8_Rb_treeImSt4pairIKmmESt10_Select1stIS2_ESt4lessImESaIS2_EE15_M_destroy_nodeEPSt13_Rb_tree_nodeIS2_E
FNDA:0,_ZNSt8_Rb_treeImSt4pairIKmmESt10_Select1stIS2_ESt4lessImESaIS2_EE15_M_destroy_nodeEPSt13_Rb_tree_nodeIS2_E
FN:629,_ZNSt8_Rb_treeImSt4pairIKmmESt10_Select1stIS2_ESt4lessImESaIS2_EE12_M_drop_nodeEPSt13_Rb_tree_nodeIS2_E
FNDA:0,_ZNSt8_Rb_treeImSt4pairIKmmESt10_Select1stIS2_ESt4lessImESaIS2_EE12_M_drop_nodeEPSt13_Rb_tree_nodeIS2_E
FN:667,_ZNSt8_Rb_treeImSt4pairIKmmESt10_Select1stIS2_ESt4lessImESaIS2_EE13_Rb_tree_implIS6_Lb1EEC2Ev
FNDA:0,_ZNSt8_Rb_treeImSt4pairIKmmESt10_Select1stIS2_ESt4lessImESaIS2_EE13_Rb_tree_implIS6_Lb1EEC2Ev
FN:734,_ZNKSt8_Rb_treeImSt4pairIKmmESt10_Select1stIS2_ESt4lessImESaIS2_EE9_M_mbeginEv
FNDA:0,_ZNKSt8_Rb_treeImSt4pairIKmmESt10_Select1stIS2_ESt4lessImESaIS2_EE9_M_mbeginEv
FN:738,_ZNSt8_Rb_treeImSt4pairIKmmESt10_Select1stIS2_ESt4lessImESaIS2_EE8_M_beginEv
FNDA:0,_ZNSt8_Rb_treeImSt4pairIKmmESt10_Select1stIS2_ESt4lessImESaIS2_EE8_M_beginEv
FN:779,_ZNSt8_Rb_treeImSt4pairIKmmESt10_Select1stIS2_ESt4lessImESaIS2_EE7_S_leftEPSt18_Rb_tree_node_base
FNDA:0,_ZNSt8_Rb_treeImSt4pairIKmmESt10_Select1stIS2_ESt4lessImESaIS2_EE7_S_leftEPSt18_Rb_tree_node_base
FN:787,_ZNSt8_Rb_treeImSt4pairIKmmESt10_Select1stIS2_ESt4lessImESaIS2_EE8_S_rightEPSt18_Rb_tree_node_base
FNDA:0,_ZNSt8_Rb_treeImSt4pairIKmmESt10_Select1stIS2_ESt4lessImESaIS2_EE8_S_rightEPSt18_Rb_tree_node_base
FN:928,_ZNSt8_Rb_treeImSt4pairIKmmESt10_Select1stIS2_ESt4lessImESaIS2_EEC2Ev
FNDA:0,_ZNSt8_Rb_treeImSt4pairIKmmESt10_Select1stIS2_ESt4lessImESaIS2_EEC2Ev
FN:983,_ZNSt8_Rb_treeImSt4pairIKmmESt10_Select1stIS2_ESt4lessImESaIS2_EED2Ev
FNDA:0,_ZNSt8_Rb_treeImSt4pairIKmmESt10_Select1stIS2_ESt4lessImESaIS2_EED2Ev
FN:1883,_ZNSt8_Rb_treeImSt4pairIKmmESt10_Select1stIS2_ESt4lessImESaIS2_EE8_M_eraseEPSt13_Rb_tree_nodeIS2_E
FNDA:0,_ZNSt8_Rb_treeImSt4pairIKmmESt10_Select1stIS2_ESt4lessImESaIS2_EE8_M_eraseEPSt13_Rb_tree_nodeIS2_E
DA:146,0
DA:150,0
DA:173,0
DA:174,0
DA:175,0
DA:176,0
DA:177,0
DA:206,0
DA:208,0
DA:209,0
DA:210,0
DA:211,0
DA:212,0
DA:234,0
DA:235,0
DA:547,0
DA:548,0
DA:564,0
DA:565,0
DA:618,0
DA:623,0
DA:624,0
DA:626,0
DA:629,0
DA:631,0
DA:632,0
DA:633,0
DA:667,0
DA:671,0
DA:672,0
DA:734,0
DA:735,0
DA:738,0
DA:739,0
DA:779,0
DA:780,0
DA:787,0
DA:788,0
DA:928,0
DA:983,0
DA:984,0
DA:1883,0
DA:1887,0
DA:1889,0
DA:1890,0
DA:1891,0
DA:1892,0
DA:1894,0
end_of_record
SF:/usr/include/c++/11/iostream
end_of_record
SF:/usr/include/c++/11/bits/allocator.h
FN:156,_ZNSaISt6vectorImSaImEEEC2Ev
FNDA:0,_ZNSaISt6vectorImSaImEEEC2Ev
FN:156,_ZNSaISt13_Rb_tree_nodeISt4pairIKmmEEEC2Ev
FNDA:0,_ZNSaISt13_Rb_tree_nodeISt4pairIKmmEEEC2Ev
FN:156,_ZNSaI4EdgeEC2Ev
FNDA:0,_ZNSaI4EdgeEC2Ev
FN:159,_ZNSaImEC2ERKS_
FNDA:0,_ZNSaImEC2ERKS_
FN:159,_ZNSaISt6vectorImSaImEEEC2ERKS2_
FNDA:0,_ZNSaISt6vectorImSaImEEEC2ERKS2_
FN:159,_ZNSaI4EdgeEC2ERKS0_
FNDA:0,_ZNSaI4EdgeEC2ERKS0_
FN:174,_ZNSaImED2Ev
FNDA:0,_ZNSaImED2Ev
FN:174,_ZNSaISt6vectorImSaImEEED2Ev
FNDA:0,_ZNSaISt6vectorImSaImEEED2Ev
FN:174,_ZNSaISt13_Rb_tree_nodeISt4pairIKmmEEED2Ev
FNDA:0,_ZNSaISt13_Rb_tree_nodeISt4pairIKmmEEED2Ev
FN:174,_ZNSaI4EdgeED2Ev
FNDA:0,_ZNSaI4EdgeED2Ev
DA:156,0
DA:156,0
DA:156,0
DA:159,0
DA:160,0
DA:159,0
DA:160,0
DA:159,0
DA:160,0
DA:174,0
DA:174,0
DA:174,0
DA:174,0
end_of_record
SF:/home/imri/OS-FinalProject/DataStruct/UnionFind.hpp
end_of_record
SF:/home/imri/OS-FinalProject/MST/Boruvka.hpp
end_of_record
SF:/usr/include/c++/11/bits/hashtable_policy.h
FN:237,_ZNSt8__detail21_Hash_node_value_baseI4EdgeE9_M_valptrEv
FNDA:0,_ZNSt8__detail21_Hash_node_value_baseI4EdgeE9_M_valptrEv
FN:245,_ZNSt8__detail21_Hash_node_value_baseI4EdgeE4_M_vEv
FNDA:0,_ZNSt8__detail21_Hash_node_value_baseI4EdgeE4_M_vEv
FN:282,_ZNKSt8__detail10_Hash_nodeI4EdgeLb1EE7_M_nextEv
FNDA:0,_ZNKSt8__detail10_Hash_nodeI4EdgeLb1EE7_M_nextEv
FN:299,_ZNSt8__detail19_Node_iterator_baseI4EdgeLb1EE7_M_incrEv
FNDA:0,_ZNSt8__detail19_Node_iterator_baseI4EdgeLb1EE7_M_incrEv
FN:309,_ZNSt8__detailneERKNS_19_Node_iterator_baseI4EdgeLb1EEES4_
FNDA:0,_ZNSt8__detailneERKNS_19_Node_iterator_baseI4EdgeLb1EEES4_
FN:342,_ZNKSt8__detail14_Node_iteratorI4EdgeLb1ELb1EEdeEv
FNDA:0,_ZNKSt8__detail14_Node_iteratorI4EdgeLb1ELb1EEdeEv
FN:346,_ZNKSt8__detail14_Node_iteratorI4EdgeLb1ELb1EEptEv
FNDA:0,_ZNKSt8__detail14_Node_iteratorI4EdgeLb1ELb1EEptEv
FN:350,_ZNSt8__detail14_Node_iteratorI4EdgeLb1ELb1EEppEv
FNDA:0,_ZNSt8__detail14_Node_iteratorI4EdgeLb1ELb1EEppEv
DA:237,0
DA:238,0
DA:245,0
DA:246,0
DA:282,0
DA:283,0
DA:299,0
DA:300,0
DA:309,0
DA:311,0
DA:342,0
DA:343,0
DA:346,0
DA:347,0
DA:350,0
DA:352,0
DA:353,0
end_of_record
SF:/usr/include/c++/11/ext/alloc_traits.h
FN:97,_ZN9__gnu_cxx14__alloc_traitsISaImEmE17_S_select_on_copyERKS1_
FNDA:0,_ZN9__gnu_cxx14__alloc_traitsISaImEmE17_S_select_on_copyERKS1_
FN:97,_ZN9__gnu_cxx14__alloc_traitsISaISt6vectorImSaImEEES3_E17_S_select_on_copyERKS4_
FNDA:0,_ZN9__gnu_cxx14__alloc_traitsISaISt6vectorImSaImEEES3_E17_S_select_on_copyERKS4_
DA:97,0
DA:98,0
DA:97,0
DA:98,0
end_of_record
SF:/usr/include/c++/11/ext/aligned_buffer.h
FN:64,_ZN9__gnu_cxx16__aligned_membufISt4pairIKmmEE7_M_addrEv
FNDA:0,_ZN9__gnu_cxx16__aligned_membufISt4pairIKmmEE7_M_addrEv
FN:72,_ZN9__gnu_cxx16__aligned_membufISt4pairIKmmEE6_M_ptrEv
FNDA:0,_ZN9__gnu_cxx16__aligned_membufISt4pairIKmmEE6_M_ptrEv
FN:102,_ZN9__gnu_cxx16__aligned_bufferI4EdgeE7_M_addrEv
FNDA:0,_ZN9__gnu_cxx16__aligned_bufferI4EdgeE7_M_addrEv
FN:114,_ZN9__gnu_cxx16__aligned_bufferI4EdgeE6_M_ptrEv
FNDA:0,_ZN9__gnu_cxx16__aligned_bufferI4EdgeE6_M_ptrEv
DA:64,0
DA:65,0
DA:72,0
DA:73,0
DA:102,0
DA:104,0
DA:114,0
DA:115,0
end_of_record
SF:/usr/include/c++/11/tuple
FN:192,_ZNSt10_Head_baseILm1ERSt6vectorIS0_ImSaImEESaIS2_EELb0EEC2ES5_
FNDA:0,_ZNSt10_Head_baseILm1ERSt6vectorIS0_ImSaImEESaIS2_EELb0EEC2ES5_
FN:192,_ZNSt10_Head_baseILm0ERSt6vectorIS0_ImSaImEESaIS2_EELb0EEC2ES5_
FNDA:0,_ZNSt10_Head_baseILm0ERSt6vectorIS0_ImSaImEESaIS2_EELb0EEC2ES5_
FN:233,_ZNSt10_Head_baseILm1ERSt6vectorIS0_ImSaImEESaIS2_EELb0EE7_M_headERS6_
FNDA:0,_ZNSt10_Head_baseILm1ERSt6vectorIS0_ImSaImEESaIS2_EELb0EE7_M_headERS6_
FN:233,_ZNSt10_Head_baseILm0ERSt6vectorIS0_ImSaImEESaIS2_EELb0EE7_M_headERS6_
FNDA:0,_ZNSt10_Head_baseILm0ERSt6vectorIS0_ImSaImEESaIS2_EELb0EE7_M_headERS6_
FN:268,_ZNSt11_Tuple_implILm0EJRSt6vectorIS0_ImSaImEESaIS2_EES5_EE7_M_headERS6_
FNDA:0,_ZNSt11_Tuple_implILm0EJRSt6vectorIS0_ImSaImEESaIS2_EES5_EE7_M_headERS6_
FN:274,_ZNSt11_Tuple_implILm0EJRSt6vectorIS0_ImSaImEESaIS2_EES5_EE7_M_tailERS6_
FNDA:0,_ZNSt11_Tuple_implILm0EJRSt6vectorIS0_ImSaImEESaIS2_EES5_EE7_M_tailERS6_
FN:283,_ZNSt11_Tuple_implILm0EJRSt6vectorIS0_ImSaImEESaIS2_EES5_EEC2ES5_S5_
FNDA:0,_ZNSt11_Tuple_implILm0EJRSt6vectorIS0_ImSaImEESaIS2_EES5_EEC2ES5_S5_
FN:424,_ZNSt11_Tuple_implILm1EJRSt6vectorIS0_ImSaImEESaIS2_EEEE7_M_headERS6_
FNDA:0,_ZNSt11_Tuple_implILm1EJRSt6vectorIS0_ImSaImEESaIS2_EEEE7_M_headERS6_
FN:434,_ZNSt11_Tuple_implILm1EJRSt6vectorIS0_ImSaImEESaIS2_EEEEC2ES5_
FNDA:0,_ZNSt11_Tuple_implILm1EJRSt6vectorIS0_ImSaImEESaIS2_EEEEC2ES5_
FN:1063,_ZNSt5tupleIJRSt6vectorIS0_ImSaImEESaIS2_EES5_EEC2ILb1ELb1EEES5_S5_
FNDA:0,_ZNSt5tupleIJRSt6vectorIS0_ImSaImEESaIS2_EES5_EEC2ILb1ELb1EEES5_S5_
FN:1321,_ZNSt5tupleIJRSt6vectorIS0_ImSaImEESaIS2_EES5_EEaSIS4_S4_EENSt9enable_ifIXcl12__assignableIT_T0_EEERS6_E4typeEOSt4pairIS9_SA_E
FNDA:0,_ZNSt5tupleIJRSt6vectorIS0_ImSaImEESaIS2_EES5_EEaSIS4_S4_EENSt9enable_ifIXcl12__assignableIT_T0_EEERS6_E4typeEOSt4pairIS9_SA_E
FN:1746,_ZSt3tieIJSt6vectorIS0_ImSaImEESaIS2_EES4_EESt5tupleIJDpRT_EES8_
FNDA:0,_ZSt3tieIJSt6vectorIS0_ImSaImEESaIS2_EES4_EESt5tupleIJDpRT_EES8_
DA:192,0
DA:193,0
DA:192,0
DA:193,0
DA:233,0
DA:233,0
DA:268,0
DA:274,0
DA:283,0
DA:284,0
DA:285,0
DA:424,0
DA:434,0
DA:435,0
DA:436,0
DA:1063,0
DA:1065,0
DA:1321,0
DA:1324,0
DA:1325,0
DA:1326,0
DA:1746,0
DA:1747,0
end_of_record
TN:
SF:/home/imri/OS-FinalProject/GraphObj/edge.hpp
end_of_record
SF:/usr/include/c++/11/ext/new_allocator.h
FN:79,_ZN9__gnu_cxx13new_allocatorI4EdgeEC2Ev
FNDA:0,_ZN9__gnu_cxx13new_allocatorI4EdgeEC2Ev
FN:79,_ZN9__gnu_cxx13new_allocatorISt6vectorImSaImEEEC2Ev
FNDA:0,_ZN9__gnu_cxx13new_allocatorISt6vectorImSaImEEEC2Ev
FN:79,_ZN9__gnu_cxx13new_allocatorIiEC2Ev
FNDA:0,_ZN9__gnu_cxx13new_allocatorIiEC2Ev
FN:82,_ZN9__gnu_cxx13new_allocatorIiEC2ERKS1_
FNDA:0,_ZN9__gnu_cxx13new_allocatorIiEC2ERKS1_
FN:82,_ZN9__gnu_cxx13new_allocatorI4EdgeEC2ERKS2_
FNDA:0,_ZN9__gnu_cxx13new_allocatorI4EdgeEC2ERKS2_
FN:82,_ZN9__gnu_cxx13new_allocatorISt6vectorImSaImEEEC2ERKS4_
FNDA:0,_ZN9__gnu_cxx13new_allocatorISt6vectorImSaImEEEC2ERKS4_
FN:82,_ZN9__gnu_cxx13new_allocatorImEC2ERKS1_
FNDA:0,_ZN9__gnu_cxx13new_allocatorImEC2ERKS1_
FN:89,_ZN9__gnu_cxx13new_allocatorImED2Ev
FNDA:0,_ZN9__gnu_cxx13new_allocatorImED2Ev
FN:89,_ZN9__gnu_cxx13new_allocatorISt13_Rb_tree_nodeISt4pairIKmmEEED2Ev
FNDA:0,_ZN9__gnu_cxx13new_allocatorISt13_Rb_tree_nodeISt4pairIKmmEEED2Ev
FN:89,_ZN9__gnu_cxx13new_allocatorISt6vectorImSaImEEED2Ev
FNDA:0,_ZN9__gnu_cxx13new_allocatorISt6vectorImSaImEEED2Ev
FN:89,_ZN9__gnu_cxx13new_allocatorIiED2Ev
FNDA:0,_ZN9__gnu_cxx13new_allocatorIiED2Ev
FN:89,_ZN9__gnu_cxx13new_allocatorI4EdgeED2Ev
FNDA:0,_ZN9__gnu_cxx13new_allocatorI4EdgeED2Ev
FN:103,_ZN9__gnu_cxx13new_allocatorIiE8allocateEmPKv
FNDA:0,_ZN9__gnu_cxx13new_allocatorIiE8allocateEmPKv
FN:103,_ZN9__gnu_cxx13new_allocatorImE8allocateEmPKv
FNDA:0,_ZN9__gnu_cxx13new_allocatorImE8allocateEmPKv
FN:103,_ZN9__gnu_cxx13new_allocatorI4EdgeE8allocateEmPKv
FNDA:0,_ZN9__gnu_cxx13new_allocatorI4EdgeE8allocateEmPKv
FN:103,_ZN9__gnu_cxx13new_allocatorISt6vectorImSaImEEE8allocateEmPKv
FNDA:0,_ZN9__gnu_cxx13new_allocatorISt6vectorImSaImEEE8allocateEmPKv
FN:132,_ZN9__gnu_cxx13new_allocatorISt13_Rb_tree_nodeISt4pairIKmmEEE10deallocateEPS5_m
FNDA:0,_ZN9__gnu_cxx13new_allocatorISt13_Rb_tree_nodeISt4pairIKmmEEE10deallocateEPS5_m
FN:132,_ZN9__gnu_cxx13new_allocatorIiE10deallocateEPim
FNDA:0,_ZN9__gnu_cxx13new_allocatorIiE10deallocateEPim
FN:132,_ZN9__gnu_cxx13new_allocatorI4EdgeE10deallocateEPS1_m
FNDA:0,_ZN9__gnu_cxx13new_allocatorI4EdgeE10deallocateEPS1_m
FN:132,_ZN9__gnu_cxx13new_allocatorISt6vectorImSaImEEE10deallocateEPS3_m
FNDA:0,_ZN9__gnu_cxx13new_allocatorISt6vectorImSaImEEE10deallocateEPS3_m
FN:132,_ZN9__gnu_cxx13new_allocatorImE10deallocateEPmm
FNDA:0,_ZN9__gnu_cxx13new_allocatorImE10deallocateEPmm
FN:154,_ZNK9__gnu_cxx13new_allocatorIiE8max_sizeEv
FNDA:0,_ZNK9__gnu_cxx13new_allocatorIiE8max_sizeEv
FN:154,_ZNK9__gnu_cxx13new_allocatorI4EdgeE8max_sizeEv
FNDA:0,_ZNK9__gnu_cxx13new_allocatorI4EdgeE8max_sizeEv
FN:166,_ZN9__gnu_cxx13new_allocatorISt13_Rb_tree_nodeISt4pairIKmmEEE7destroyIS4_EEvPT_
FNDA:0,_ZN9__gnu_cxx13new_allocatorISt13_Rb_tree_nodeISt4pairIKmmEEE7destroyIS4_EEvPT_
FN:197,_ZNK9__gnu_cxx13new_allocatorI4EdgeE11_M_max_sizeEv
FNDA:0,_ZNK9__gnu_cxx13new_allocatorI4EdgeE11_M_max_sizeEv
FN:197,_ZNK9__gnu_cxx13new_allocatorIiE11_M_max_sizeEv
FNDA:0,_ZNK9__gnu_cxx13new_allocatorIiE11_M_max_sizeEv
FN:197,_ZNK9__gnu_cxx13new_allocatorISt6vectorImSaImEEE11_M_max_sizeEv
FNDA:0,_ZNK9__gnu_cxx13new_allocatorISt6vectorImSaImEEE11_M_max_sizeEv
FN:197,_ZNK9__gnu_cxx13new_allocatorImE11_M_max_sizeEv
FNDA:0,_ZNK9__gnu_cxx13new_allocatorImE11_M_max_sizeEv
DA:79,0
DA:79,0
DA:79,0
DA:82,0
DA:82,0
DA:82,0
DA:82,0
DA:89,0
DA:89,0
DA:89,0
DA:89,0
DA:89,0
DA:103,0
DA:111,0
DA:115,0
DA:116,0
DA:117,0
DA:127,0
DA:103,0
DA:111,0
DA:115,0
DA:116,0
DA:117,0
DA:127,0
DA:103,0
DA:111,0
DA:115,0
DA:116,0
DA:117,0
DA:127,0
DA:103,0
DA:111,0
DA:115,0
DA:116,0
DA:117,0
DA:127,0
DA:132,0
DA:145,0
DA:132,0
DA:145,0
DA:132,0
DA:145,0
DA:132,0
DA:145,0
DA:132,0
DA:145,0
DA:154,0
DA:155,0
DA:154,0
DA:155,0
DA:166,0
DA:168,0
DA:197,0
DA:200,0
DA:197,0
DA:200,0
DA:197,0
DA:200,0
DA:197,0
DA:200,0
end_of_record
SF:/usr/include/c++/11/bits/stl_iterator.h
FN:1027,_ZN9__gnu_cxx17__normal_iteratorIPKmSt6vectorImSaImEEEC2ERKS2_
FNDA:0,_ZN9__gnu_cxx17__normal_iteratorIPKmSt6vectorImSaImEEEC2ERKS2_
FN:1027,_ZN9__gnu_cxx17__normal_iteratorIP4EdgeSt6vectorIS1_SaIS1_EEEC2ERKS2_
FNDA:0,_ZN9__gnu_cxx17__normal_iteratorIP4EdgeSt6vectorIS1_SaIS1_EEEC2ERKS2_
FN:1027,_ZN9__gnu_cxx17__normal_iteratorIPKSt6vectorImSaImEES1_IS3_SaIS3_EEEC2ERKS5_
FNDA:0,_ZN9__gnu_cxx17__normal_iteratorIPKSt6vectorImSaImEES1_IS3_SaIS3_EEEC2ERKS5_
FN:1042,_ZNK9__gnu_cxx17__normal_iteratorIP4EdgeSt6vectorIS1_SaIS1_EEEdeEv
FNDA:0,_ZNK9__gnu_cxx17__normal_iteratorIP4EdgeSt6vectorIS1_SaIS1_EEEdeEv
FN:1042,_ZNK9__gnu_cxx17__normal_iteratorIPKSt6vectorImSaImEES1_IS3_SaIS3_EEEdeEv
FNDA:0,_ZNK9__gnu_cxx17__normal_iteratorIPKSt6vectorImSaImEES1_IS3_SaIS3_EEEdeEv
FN:1052,_ZN9__gnu_cxx17__normal_iteratorIP4EdgeSt6vectorIS1_SaIS1_EEEppEv
FNDA:0,_ZN9__gnu_cxx17__normal_iteratorIP4EdgeSt6vectorIS1_SaIS1_EEEppEv
FN:1052,_ZN9__gnu_cxx17__normal_iteratorIPKSt6vectorImSaImEES1_IS3_SaIS3_EEEppEv
FNDA:0,_ZN9__gnu_cxx17__normal_iteratorIPKSt6vectorImSaImEES1_IS3_SaIS3_EEEppEv
FN:1066,_ZN9__gnu_cxx17__normal_iteratorIP4EdgeSt6vectorIS1_SaIS1_EEEmmEv
FNDA:0,_ZN9__gnu_cxx17__normal_iteratorIP4EdgeSt6vectorIS1_SaIS1_EEEmmEv
FN:1090,_ZNK9__gnu_cxx17__normal_iteratorIP4EdgeSt6vectorIS1_SaIS1_EEEplEl
FNDA:0,_ZNK9__gnu_cxx17__normal_iteratorIP4EdgeSt6vectorIS1_SaIS1_EEEplEl
FN:1100,_ZNK9__gnu_cxx17__normal_iteratorIP4EdgeSt6vectorIS1_SaIS1_EEEmiEl
FNDA:0,_ZNK9__gnu_cxx17__normal_iteratorIP4EdgeSt6vectorIS1_SaIS1_EEEmiEl
FN:1105,_ZNK9__gnu_cxx17__normal_iteratorIPKmSt6vectorImSaImEEE4baseEv
FNDA:0,_ZNK9__gnu_cxx17__normal_iteratorIPKmSt6vectorImSaImEEE4baseEv
FN:1105,_ZNK9__gnu_cxx17__normal_iteratorIPKSt6vectorImSaImEES1_IS3_SaIS3_EEE4baseEv
FNDA:0,_ZNK9__gnu_cxx17__normal_iteratorIPKSt6vectorImSaImEES1_IS3_SaIS3_EEE4baseEv
FN:1105,_ZNK9__gnu_cxx17__normal_iteratorIP4EdgeSt6vectorIS1_SaIS1_EEE4baseEv
FNDA:0,_ZNK9__gnu_cxx17__normal_iteratorIP4EdgeSt6vectorIS1_SaIS1_EEE4baseEv
FN:1163,_ZN9__gnu_cxxeqIP4EdgeSt6vectorIS1_SaIS1_EEEEbRKNS_17__normal_iteratorIT_T0_EESB_
FNDA:0,_ZN9__gnu_cxxeqIP4EdgeSt6vectorIS1_SaIS1_EEEEbRKNS_17__normal_iteratorIT_T0_EESB_
FN:1179,_ZN9__gnu_cxxneIP4EdgeSt6vectorIS1_SaIS1_EEEEbRKNS_17__normal_iteratorIT_T0_EESB_
FNDA:0,_ZN9__gnu_cxxneIP4EdgeSt6vectorIS1_SaIS1_EEEEbRKNS_17__normal_iteratorIT_T0_EESB_
FN:1179,_ZN9__gnu_cxxneIPKSt6vectorImSaImEES1_IS3_SaIS3_EEEEbRKNS_17__normal_iteratorIT_T0_EESD_
FNDA:0,_ZN9__gnu_cxxneIPKSt6vectorImSaImEES1_IS3_SaIS3_EEEEbRKNS_17__normal_iteratorIT_T0_EESD_
FN:1195,_ZN9__gnu_cxxltIP4EdgeSt6vectorIS1_SaIS1_EEEEbRKNS_17__normal_iteratorIT_T0_EESB_
FNDA:0,_ZN9__gnu_cxxltIP4EdgeSt6vectorIS1_SaIS1_EEEEbRKNS_17__normal_iteratorIT_T0_EESB_
FN:1268,_ZN9__gnu_cxxmiIP4EdgeSt6vectorIS1_SaIS1_EEEENS_17__normal_iteratorIT_T0_E15difference_typeERKS9_SC_
FNDA:0,_ZN9__gnu_cxxmiIP4EdgeSt6vectorIS1_SaIS1_EEEENS_17__normal_iteratorIT_T0_E15difference_typeERKS9_SC_
FN:1291,_ZSt12__niter_baseIP4EdgeSt6vectorIS0_SaIS0_EEET_N9__gnu_cxx17__normal_iteratorIS5_T0_EE
FNDA:0,_ZSt12__niter_baseIP4EdgeSt6vectorIS0_SaIS0_EEET_N9__gnu_cxx17__normal_iteratorIS5_T0_EE
FN:1291,_ZSt12__niter_baseIPKmSt6vectorImSaImEEET_N9__gnu_cxx17__normal_iteratorIS5_T0_EE
FNDA:0,_ZSt12__niter_baseIPKmSt6vectorImSaImEEET_N9__gnu_cxx17__normal_iteratorIS5_T0_EE
DA:1027,0
DA:1028,0
DA:1027,0
DA:1028,0
DA:1027,0
DA:1028,0
DA:1042,0
DA:1043,0
DA:1042,0
DA:1043,0
DA:1052,0
DA:1054,0
DA:1055,0
DA:1052,0
DA:1054,0
DA:1055,0
DA:1066,0
DA:1068,0
DA:1069,0
DA:1090,0
DA:1091,0
DA:1100,0
DA:1101,0
DA:1105,0
DA:1106,0
DA:1105,0
DA:1106,0
DA:1105,0
DA:1106,0
DA:1163,0
DA:1166,0
DA:1179,0
DA:1182,0
DA:1179,0
DA:1182,0
DA:1195,0
DA:1198,0
DA:1268,0
DA:1271,0
DA:1291,0
DA:1293,0
DA:1291,0
DA:1293,0
end_of_record
SF:/home/imri/OS-FinalProject/MST/MST_Strategy.hpp
FN:8,_ZN12MST_StrategyD0Ev
FNDA:0,_ZN12MST_StrategyD0Ev
FN:8,_ZN12MST_StrategyD2Ev
FNDA:0,_ZN12MST_StrategyD2Ev
DA:8,0
DA:8,0
end_of_record
SF:/usr/include/c++/11/bits/stl_map.h
FN:302,_ZNSt3mapImmSt4lessImESaISt4pairIKmmEEED2Ev
FNDA:0,_ZNSt3mapImmSt4lessImESaISt4pairIKmmEEED2Ev
DA:302,0
end_of_record
SF:/usr/include/c++/11/bits/stl_iterator_base_types.h
FN:238,_ZSt19__iterator_categoryIPiENSt15iterator_traitsIT_E17iterator_categoryERKS2_
FNDA:0,_ZSt19__iterator_categoryIPiENSt15iterator_traitsIT_E17iterator_categoryERKS2_
FN:238,_ZSt19__iterator_categoryINSt8__detail14_Node_iteratorI4EdgeLb1ELb1EEEENSt15iterator_traitsIT_E17iterator_categoryERKS5_
FNDA:0,_ZSt19__iterator_categoryINSt8__detail14_Node_iteratorI4EdgeLb1ELb1EEEENSt15iterator_traitsIT_E17iterator_categoryERKS5_
DA:238,0
DA:239,0
DA:238,0
DA:239,0
end_of_record
SF:/home/imri/OS-FinalProject/MST/Tarjan.hpp
end_of_record
SF:/usr/include/c++/11/bits/stl_vector.h
FN:97,_ZNSt12_Vector_baseImSaImEE17_Vector_impl_dataC2Ev
FNDA:0,_ZNSt12_Vector_baseImSaImEE17_Vector_impl_dataC2Ev
FN:97,_ZNSt12_Vector_baseISt6vectorImSaImEESaIS2_EE17_Vector_impl_dataC2Ev
FNDA:0,_ZNSt12_Vector_baseISt6vectorImSaImEESaIS2_EE17_Vector_impl_dataC2Ev
FN:97,_ZNSt12_Vector_baseIiSaIiEE17_Vector_impl_dataC2Ev
FNDA:0,_ZNSt12_Vector_baseIiSaIiEE17_Vector_impl_dataC2Ev
FN:97,_ZNSt12_Vector_baseI4EdgeSaIS0_EE17_Vector_impl_dataC2Ev
FNDA:0,_ZNSt12_Vector_baseI4EdgeSaIS0_EE17_Vector_impl_dataC2Ev
FN:109,_ZNSt12_Vector_baseISt6vectorImSaImEESaIS2_EE17_Vector_impl_data12_M_copy_dataERKS5_
FNDA:0,_ZNSt12_Vector_baseISt6vectorImSaImEESaIS2_EE17_Vector_impl_data12_M_copy_dataERKS5_
FN:117,_ZNSt12_Vector_baseISt6vectorImSaImEESaIS2_EE17_Vector_impl_data12_M_swap_dataERS5_
FNDA:0,_ZNSt12_Vector_baseISt6vectorImSaImEESaIS2_EE17_Vector_impl_data12_M_swap_dataERS5_
FN:131,_ZNSt12_Vector_baseISt6vectorImSaImEESaIS2_EE12_Vector_implC2Ev
FNDA:0,_ZNSt12_Vector_baseISt6vectorImSaImEESaIS2_EE12_Vector_implC2Ev
FN:136,_ZNSt12_Vector_baseImSaImEE12_Vector_implC2ERKS0_
FNDA:0,_ZNSt12_Vector_baseImSaImEE12_Vector_implC2ERKS0_
FN:136,_ZNSt12_Vector_baseI4EdgeSaIS0_EE12_Vector_implC2ERKS1_
FNDA:0,_ZNSt12_Vector_baseI4EdgeSaIS0_EE12_Vector_implC2ERKS1_
FN:136,_ZNSt12_Vector_baseIiSaIiEE12_Vector_implC2ERKS0_
FNDA:0,_ZNSt12_Vector_baseIiSaIiEE12_Vector_implC2ERKS0_
FN:136,_ZNSt12_Vector_baseISt6vectorImSaImEESaIS2_EE12_Vector_implC2ERKS3_
FNDA:0,_ZNSt12_Vector_baseISt6vectorImSaImEESaIS2_EE12_Vector_implC2ERKS3_
FN:276,_ZNSt12_Vector_baseI4EdgeSaIS0_EE19_M_get_Tp_allocatorEv
FNDA:0,_ZNSt12_Vector_baseI4EdgeSaIS0_EE19_M_get_Tp_allocatorEv
FN:276,_ZNSt12_Vector_baseIiSaIiEE19_M_get_Tp_allocatorEv
FNDA:0,_ZNSt12_Vector_baseIiSaIiEE19_M_get_Tp_allocatorEv
FN:276,_ZNSt12_Vector_baseISt6vectorImSaImEESaIS2_EE19_M_get_Tp_allocatorEv
FNDA:0,_ZNSt12_Vector_baseISt6vectorImSaImEESaIS2_EE19_M_get_Tp_allocatorEv
FN:276,_ZNSt12_Vector_baseImSaImEE19_M_get_Tp_allocatorEv
FNDA:0,_ZNSt12_Vector_baseImSaImEE19_M_get_Tp_allocatorEv
FN:280,_ZNKSt12_Vector_baseISt6vectorImSaImEESaIS2_EE19_M_get_Tp_allocatorEv
FNDA:0,_ZNKSt12_Vector_baseISt6vectorImSaImEESaIS2_EE19_M_get_Tp_allocatorEv
FN:280,_ZNKSt12_Vector_baseImSaImEE19_M_get_Tp_allocatorEv
FNDA:0,_ZNKSt12_Vector_baseImSaImEE19_M_get_Tp_allocatorEv
FN:284,_ZNKSt12_Vector_baseISt6vectorImSaImEESaIS2_EE13get_allocatorEv
FNDA:0,_ZNKSt12_Vector_baseISt6vectorImSaImEESaIS2_EE13get_allocatorEv
FN:288,_ZNSt12_Vector_baseISt6vectorImSaImEESaIS2_EEC2Ev
FNDA:0,_ZNSt12_Vector_baseISt6vectorImSaImEESaIS2_EEC2Ev
FN:293,_ZNSt12_Vector_baseI4EdgeSaIS0_EEC2ERKS1_
FNDA:0,_ZNSt12_Vector_baseI4EdgeSaIS0_EEC2ERKS1_
FN:293,_ZNSt12_Vector_baseISt6vectorImSaImEESaIS2_EEC2ERKS3_
FNDA:0,_ZNSt12_Vector_baseISt6vectorImSaImEESaIS2_EEC2ERKS3_
FN:303,_ZNSt12_Vector_baseIiSaIiEEC2EmRKS0_
FNDA:0,_ZNSt12_Vector_baseIiSaIiEEC2EmRKS0_
FN:303,_ZNSt12_Vector_baseImSaImEEC2EmRKS0_
FNDA:0,_ZNSt12_Vector_baseImSaImEEC2EmRKS0_
FN:303,_ZNSt12_Vector_baseISt6vectorImSaImEESaIS2_EEC2EmRKS3_
FNDA:0,_ZNSt12_Vector_baseISt6vectorImSaImEESaIS2_EEC2EmRKS3_
FN:333,_ZNSt12_Vector_baseISt6vectorImSaImEESaIS2_EED2Ev
FNDA:0,_ZNSt12_Vector_baseISt6vectorImSaImEESaIS2_EED2Ev
FN:333,_ZNSt12_Vector_baseI4EdgeSaIS0_EED2Ev
FNDA:0,_ZNSt12_Vector_baseI4EdgeSaIS0_EED2Ev
FN:333,_ZNSt12_Vector_baseIiSaIiEED2Ev
FNDA:0,_ZNSt12_Vector_baseIiSaIiEED2Ev
FN:333,_ZNSt12_Vector_baseImSaImEED2Ev
FNDA:0,_ZNSt12_Vector_baseImSaImEED2Ev
FN:343,_ZNSt12_Vector_baseIiSaIiEE11_M_allocateEm
FNDA:0,_ZNSt12_Vector_baseIiSaIiEE11_M_allocateEm
FN:343,_ZNSt12_Vector_baseImSaImEE11_M_allocateEm
FNDA:0,_ZNSt12_Vector_baseImSaImEE11_M_allocateEm
FN:343,_ZNSt12_Vector_baseI4EdgeSaIS0_EE11_M_allocateEm
FNDA:0,_ZNSt12_Vector_baseI4EdgeSaIS0_EE11_M_allocateEm
FN:343,_ZNSt12_Vector_baseISt6vectorImSaImEESaIS2_EE11_M_allocateEm
FNDA:0,_ZNSt12_Vector_baseISt6vectorImSaImEESaIS2_EE11_M_allocateEm
FN:350,_ZNSt12_Vector_baseI4EdgeSaIS0_EE13_M_deallocateEPS0_m
FNDA:0,_ZNSt12_Vector_baseI4EdgeSaIS0_EE13_M_deallocateEPS0_m
FN:350,_ZNSt12_Vector_baseImSaImEE13_M_deallocateEPmm
FNDA:0,_ZNSt12_Vector_baseImSaImEE13_M_deallocateEPmm
FN:350,_ZNSt12_Vector_baseISt6vectorImSaImEESaIS2_EE13_M_deallocateEPS2_m
FNDA:0,_ZNSt12_Vector_baseISt6vectorImSaImEESaIS2_EE13_M_deallocateEPS2_m
FN:350,_ZNSt12_Vector_baseIiSaIiEE13_M_deallocateEPim
FNDA:0,_ZNSt12_Vector_baseIiSaIiEE13_M_deallocateEPim
FN:359,_ZNSt12_Vector_baseImSaImEE17_M_create_storageEm
FNDA:0,_ZNSt12_Vector_baseImSaImEE17_M_create_storageEm
FN:359,_ZNSt12_Vector_baseISt6vectorImSaImEESaIS2_EE17_M_create_storageEm
FNDA:0,_ZNSt12_Vector_baseISt6vectorImSaImEESaIS2_EE17_M_create_storageEm
FN:359,_ZNSt12_Vector_baseIiSaIiEE17_M_create_storageEm
FNDA:0,_ZNSt12_Vector_baseIiSaIiEE17_M_create_storageEm
FN:487,_ZNSt6vectorIS_ImSaImEESaIS1_EEC2Ev
FNDA:0,_ZNSt6vectorIS_ImSaImEESaIS1_EEC2Ev
FN:497,_ZNSt6vectorIS_ImSaImEESaIS1_EEC2ERKS2_
FNDA:0,_ZNSt6vectorIS_ImSaImEESaIS1_EEC2ERKS2_
FN:510,_ZNSt6vectorIiSaIiEEC2EmRKS0_
FNDA:0,_ZNSt6vectorIiSaIiEEC2EmRKS0_
FN:553,_ZNSt6vectorImSaImEEC2ERKS1_
FNDA:0,_ZNSt6vectorImSaImEEC2ERKS1_
FN:553,_ZNSt6vectorIS_ImSaImEESaIS1_EEC2ERKS3_
FNDA:0,_ZNSt6vectorIS_ImSaImEESaIS1_EEC2ERKS3_
FN:653,_ZNSt6vectorI4EdgeSaIS0_EEC2INSt8__detail14_Node_iteratorIS0_Lb1ELb1EEEvEET_S7_RKS1_
FNDA:0,_ZNSt6vectorI4EdgeSaIS0_EEC2INSt8__detail14_Node_iteratorIS0_Lb1ELb1EEEvEET_S7_RKS1_
FN:678,_ZNSt6vectorIiSaIiEED2Ev
FNDA:0,_ZNSt6vectorIiSaIiEED2Ev
FN:678,_ZNSt6vectorImSaImEED2Ev
FNDA:0,_ZNSt6vectorImSaImEED2Ev
FN:678,_ZNSt6vectorI4EdgeSaIS0_EED2Ev
FNDA:0,_ZNSt6vectorI4EdgeSaIS0_EED2Ev
FN:678,_ZNSt6vectorIS_ImSaImEESaIS1_EED2Ev
FNDA:0,_ZNSt6vectorIS_ImSaImEESaIS1_EED2Ev
FN:709,_ZNSt6vectorIS_ImSaImEESaIS1_EEaSEOS3_
FNDA:0,_ZNSt6vectorIS_ImSaImEESaIS1_EEaSEOS3_
FN:811,_ZNSt6vectorI4EdgeSaIS0_EE5beginEv
FNDA:0,_ZNSt6vectorI4EdgeSaIS0_EE5beginEv
FN:820,_ZNKSt6vectorImSaImEE5beginEv
FNDA:0,_ZNKSt6vectorImSaImEE5beginEv
FN:820,_ZNKSt6vectorIS_ImSaImEESaIS1_EE5beginEv
FNDA:0,_ZNKSt6vectorIS_ImSaImEESaIS1_EE5beginEv
FN:829,_ZNSt6vectorI4EdgeSaIS0_EE3endEv
FNDA:0,_ZNSt6vectorI4EdgeSaIS0_EE3endEv
FN:838,_ZNKSt6vectorIS_ImSaImEESaIS1_EE3endEv
FNDA:0,_ZNKSt6vectorIS_ImSaImEESaIS1_EE3endEv
FN:838,_ZNKSt6vectorImSaImEE3endEv
FNDA:0,_ZNKSt6vectorImSaImEE3endEv
FN:918,_ZNKSt6vectorImSaImEE4sizeEv
FNDA:0,_ZNKSt6vectorImSaImEE4sizeEv
FN:918,_ZNKSt6vectorIS_ImSaImEESaIS1_EE4sizeEv
FNDA:0,_ZNKSt6vectorIS_ImSaImEESaIS1_EE4sizeEv
FN:1043,_ZNSt6vectorIiSaIiEEixEm
FNDA:0,_ZNSt6vectorIiSaIiEEixEm
FN:1577,_ZNSt6vectorI4EdgeSaIS0_EE19_M_range_initializeINSt8__detail14_Node_iteratorIS0_Lb1ELb1EEEEEvT_S7_St20forward_iterator_tag
FNDA:0,_ZNSt6vectorI4EdgeSaIS0_EE19_M_range_initializeINSt8__detail14_Node_iteratorIS0_Lb1ELb1EEEEEvT_S7_St20forward_iterator_tag
FN:1603,_ZNSt6vectorIiSaIiEE21_M_default_initializeEm
FNDA:0,_ZNSt6vectorIiSaIiEE21_M_default_initializeEm
FN:1767,_ZNSt6vectorIiSaIiEE17_S_check_init_lenEmRKS0_
FNDA:0,_ZNSt6vectorIiSaIiEE17_S_check_init_lenEmRKS0_
FN:1767,_ZNSt6vectorI4EdgeSaIS0_EE17_S_check_init_lenEmRKS1_
FNDA:0,_ZNSt6vectorI4EdgeSaIS0_EE17_S_check_init_lenEmRKS1_
FN:1776,_ZNSt6vectorI4EdgeSaIS0_EE11_S_max_sizeERKS1_
FNDA:0,_ZNSt6vectorI4EdgeSaIS0_EE11_S_max_sizeERKS1_
FN:1776,_ZNSt6vectorIiSaIiEE11_S_max_sizeERKS0_
FNDA:0,_ZNSt6vectorIiSaIiEE11_S_max_sizeERKS0_
FN:1815,_ZNSt6vectorIS_ImSaImEESaIS1_EE14_M_move_assignEOS3_St17integral_constantIbLb1EE
FNDA:0,_ZNSt6vectorIS_ImSaImEESaIS1_EE14_M_move_assignEOS3_St17integral_constantIbLb1EE
DA:97,0
DA:98,0
DA:99,0
DA:97,0
DA:98,0
DA:99,0
DA:97,0
DA:98,0
DA:99,0
DA:97,0
DA:98,0
DA:99,0
DA:109,0
DA:111,0
DA:112,0
DA:113,0
DA:114,0
DA:117,0
DA:121,0
DA:122,0
DA:123,0
DA:124,0
DA:125,0
DA:131,0
DA:133,0
DA:134,0
DA:136,0
DA:137,0
DA:138,0
DA:136,0
DA:137,0
DA:138,0
DA:136,0
DA:137,0
DA:138,0
DA:136,0
DA:137,0
DA:138,0
DA:276,0
DA:277,0
DA:276,0
DA:277,0
DA:276,0
DA:277,0
DA:276,0
DA:277,0
DA:280,0
DA:281,0
DA:280,0
DA:281,0
DA:284,0
DA:285,0
DA:288,0
DA:293,0
DA:294,0
DA:293,0
DA:294,0
DA:303,0
DA:304,0
DA:305,0
DA:303,0
DA:304,0
DA:305,0
DA:303,0
DA:304,0
DA:305,0
DA:333,0
DA:335,0
DA:336,0
DA:337,0
DA:333,0
DA:335,0
DA:336,0
DA:337,0
DA:333,0
DA:335,0
DA:336,0
DA:337,0
DA:333,0
DA:335,0
DA:336,0
DA:337,0
DA:343,0
DA:346,0
DA:343,0
DA:346,0
DA:343,0
DA:346,0
DA:343,0
DA:346,0
DA:350,0
DA:353,0
DA:354,0
DA:355,0
DA:350,0
DA:353,0
DA:354,0
DA:355,0
DA:350,0
DA:353,0
DA:354,0
DA:355,0
DA:350,0
DA:353,0
DA:354,0
DA:355,0
DA:359,0
DA:361,0
DA:362,0
DA:363,0
DA:364,0
DA:359,0
DA:361,0
DA:362,0
DA:363,0
DA:364,0
DA:359,0
DA:361,0
DA:362,0
DA:363,0
DA:364,0
DA:487,0
DA:497,0
DA:498,0
DA:510,0
DA:511,0
DA:512,0
DA:553,0
DA:555,0
DA:557,0
DA:558,0
DA:560,0
DA:561,0
DA:553,0
DA:555,0
DA:557,0
DA:558,0
DA:560,0
DA:561,0
DA:653,0
DA:655,0
DA:657,0
DA:658,0
DA:659,0
DA:678,0
DA:680,0
DA:681,0
DA:683,0
DA:678,0
DA:680,0
DA:681,0
DA:683,0
DA:678,0
DA:680,0
DA:681,0
DA:683,0
DA:678,0
DA:680,0
DA:681,0
DA:683,0
DA:709,0
DA:711,0
DA:714,0
DA:715,0
DA:811,0
DA:812,0
DA:820,0
DA:821,0
DA:820,0
DA:821,0
DA:829,0
DA:830,0
DA:838,0
DA:839,0
DA:838,0
DA:839,0
DA:918,0
DA:919,0
DA:918,0
DA:919,0
DA:1043,0
DA:1046,0
DA:1577,0
DA:1580,0
DA:1582,0
DA:1583,0
DA:1584,0
DA:1585,0
DA:1587,0
DA:1588,0
DA:1603,0
DA:1605,0
DA:1606,0
DA:1607,0
DA:1608,0
DA:1767,0
DA:1769,0
DA:1770,0
DA:1772,0
DA:1767,0
DA:1769,0
DA:1770,0
DA:1772,0
DA:1776,0
DA:1781,0
DA:1783,0
DA:1784,0
DA:1776,0
DA:1781,0
DA:1783,0
DA:1784,0
DA:1815,0
DA:1817,0
DA:1818,0
DA:1819,0
DA:1820,0
DA:1821,0
end_of_record
SF:/usr/include/c++/11/bits/predefined_ops.h
FN:150,_ZN9__gnu_cxx5__ops15_Iter_comp_iterIZN6TarjanclEP5GraphEUlRK4EdgeS7_E_EC2ES8_
FNDA:0,_ZN9__gnu_cxx5__ops15_Iter_comp_iterIZN6TarjanclEP5GraphEUlRK4EdgeS7_E_EC2ES8_
FN:157,_ZN9__gnu_cxx5__ops15_Iter_comp_iterIZN6TarjanclEP5GraphEUlRK4EdgeS7_E_EclINS_17__normal_iteratorIPS5_St6vectorIS5_SaIS5_EEEESG_EEbT_T0_
FNDA:0,_ZN9__gnu_cxx5__ops15_Iter_comp_iterIZN6TarjanclEP5GraphEUlRK4EdgeS7_E_EclINS_17__normal_iteratorIPS5_St6vectorIS5_SaIS5_EEEESG_EEbT_T0_
FN:164,_ZN9__gnu_cxx5__ops16__iter_comp_iterIZN6TarjanclEP5GraphEUlRK4EdgeS7_E_EENS0_15_Iter_comp_iterIT_EESA_
FNDA:0,_ZN9__gnu_cxx5__ops16__iter_comp_iterIZN6TarjanclEP5GraphEUlRK4EdgeS7_E_EENS0_15_Iter_comp_iterIT_EESA_
FN:187,_ZN9__gnu_cxx5__ops14_Iter_comp_valIZN6TarjanclEP5GraphEUlRK4EdgeS7_E_EC2EONS0_15_Iter_comp_iterIS8_EE
FNDA:0,_ZN9__gnu_cxx5__ops14_Iter_comp_valIZN6TarjanclEP5GraphEUlRK4EdgeS7_E_EC2EONS0_15_Iter_comp_iterIS8_EE
FN:195,_ZN9__gnu_cxx5__ops14_Iter_comp_valIZN6TarjanclEP5GraphEUlRK4EdgeS7_E_EclINS_17__normal_iteratorIPS5_St6vectorIS5_SaIS5_EEEES5_EEbT_RT0_
FNDA:0,_ZN9__gnu_cxx5__ops14_Iter_comp_valIZN6TarjanclEP5GraphEUlRK4EdgeS7_E_EclINS_17__normal_iteratorIPS5_St6vectorIS5_SaIS5_EEEES5_EEbT_RT0_
FN:231,_ZN9__gnu_cxx5__ops14_Val_comp_iterIZN6TarjanclEP5GraphEUlRK4EdgeS7_E_EC2EONS0_15_Iter_comp_iterIS8_EE
FNDA:0,_ZN9__gnu_cxx5__ops14_Val_comp_iterIZN6TarjanclEP5GraphEUlRK4EdgeS7_E_EC2EONS0_15_Iter_comp_iterIS8_EE
FN:239,_ZN9__gnu_cxx5__ops14_Val_comp_iterIZN6TarjanclEP5GraphEUlRK4EdgeS7_E_EclIS5_NS_17__normal_iteratorIPS5_St6vectorIS5_SaIS5_EEEEEEbRT_T0_
FNDA:0,_ZN9__gnu_cxx5__ops14_Val_comp_iterIZN6TarjanclEP5GraphEUlRK4EdgeS7_E_EclIS5_NS_17__normal_iteratorIPS5_St6vectorIS5_SaIS5_EEEEEEbRT_T0_
FN:252,_ZN9__gnu_cxx5__ops15__val_comp_iterIZN6TarjanclEP5GraphEUlRK4EdgeS7_E_EENS0_14_Val_comp_iterIT_EENS0_15_Iter_comp_iterISA_EE
FNDA:0,_ZN9__gnu_cxx5__ops15__val_comp_iterIZN6TarjanclEP5GraphEUlRK4EdgeS7_E_EENS0_14_Val_comp_iterIT_EENS0_15_Iter_comp_iterISA_EE
DA:150,0
DA:151,0
DA:152,0
DA:157,0
DA:158,0
DA:164,0
DA:165,0
DA:187,0
DA:188,0
DA:189,0
DA:195,0
DA:196,0
DA:231,0
DA:232,0
DA:233,0
DA:239,0
DA:240,0
DA:252,0
DA:253,0
end_of_record
SF:/usr/include/c++/11/new
FN:174,_ZnwmPv
FNDA:0,_ZnwmPv
FN:180,_ZdlPvS_
FNDA:0,_ZdlPvS_
DA:174,0
DA:175,0
DA:180,0
end_of_record
SF:/usr/include/c++/11/bits/cpp_type_traits.h
FN:560,_ZSt12__miter_baseIN9__gnu_cxx17__normal_iteratorIPKmSt6vectorImSaImEEEEET_S8_
FNDA:0,_ZSt12__miter_baseIN9__gnu_cxx17__normal_iteratorIPKmSt6vectorImSaImEEEEET_S8_
FN:560,_ZSt12__miter_baseIN9__gnu_cxx17__normal_iteratorIP4EdgeSt6vectorIS2_SaIS2_EEEEET_S8_
FNDA:0,_ZSt12__miter_baseIN9__gnu_cxx17__normal_iteratorIP4EdgeSt6vectorIS2_SaIS2_EEEEET_S8_
DA:560,0
DA:561,0
DA:560,0
DA:561,0
end_of_record
SF:/usr/include/c++/11/bits/stl_pair.h
end_of_record
SF:/usr/include/c++/11/bits/alloc_traits.h
FN:463,_ZNSt16allocator_traitsISaISt6vectorImSaImEEEE8allocateERS3_m
FNDA:0,_ZNSt16allocator_traitsISaISt6vectorImSaImEEEE8allocateERS3_m
FN:463,_ZNSt16allocator_traitsISaIiEE8allocateERS0_m
FNDA:0,_ZNSt16allocator_traitsISaIiEE8allocateERS0_m
FN:463,_ZNSt16allocator_traitsISaImEE8allocateERS0_m
FNDA:0,_ZNSt16allocator_traitsISaImEE8allocateERS0_m
FN:463,_ZNSt16allocator_traitsISaI4EdgeEE8allocateERS1_m
FNDA:0,_ZNSt16allocator_traitsISaI4EdgeEE8allocateERS1_m
FN:495,_ZNSt16allocator_traitsISaImEE10deallocateERS0_Pmm
FNDA:0,_ZNSt16allocator_traitsISaImEE10deallocateERS0_Pmm
FN:495,_ZNSt16allocator_traitsISaISt6vectorImSaImEEEE10deallocateERS3_PS2_m
FNDA:0,_ZNSt16allocator_traitsISaISt6vectorImSaImEEEE10deallocateERS3_PS2_m
FN:495,_ZNSt16allocator_traitsISaISt13_Rb_tree_nodeISt4pairIKmmEEEE10deallocateERS5_PS4_m
FNDA:0,_ZNSt16allocator_traitsISaISt13_Rb_tree_nodeISt4pairIKmmEEEE10deallocateERS5_PS4_m
FN:495,_ZNSt16allocator_traitsISaIiEE10deallocateERS0_Pim
FNDA:0,_ZNSt16allocator_traitsISaIiEE10deallocateERS0_Pim
FN:495,_ZNSt16allocator_traitsISaI4EdgeEE10deallocateERS1_PS0_m
FNDA:0,_ZNSt16allocator_traitsISaI4EdgeEE10deallocateERS1_PS0_m
FN:531,_ZNSt16allocator_traitsISaISt13_Rb_tree_nodeISt4pairIKmmEEEE7destroyIS3_EEvRS5_PT_
FNDA:0,_ZNSt16allocator_traitsISaISt13_Rb_tree_nodeISt4pairIKmmEEEE7destroyIS3_EEvRS5_PT_
FN:547,_ZNSt16allocator_traitsISaI4EdgeEE8max_sizeERKS1_
FNDA:0,_ZNSt16allocator_traitsISaI4EdgeEE8max_sizeERKS1_
FN:547,_ZNSt16allocator_traitsISaIiEE8max_sizeERKS0_
FNDA:0,_ZNSt16allocator_traitsISaIiEE8max_sizeERKS0_
FN:562,_ZNSt16allocator_traitsISaImEE37select_on_container_copy_constructionERKS0_
FNDA:0,_ZNSt16allocator_traitsISaImEE37select_on_container_copy_constructionERKS0_
FN:562,_ZNSt16allocator_traitsISaISt6vectorImSaImEEEE37select_on_container_copy_constructionERKS3_
FNDA:0,_ZNSt16allocator_traitsISaISt6vectorImSaImEEEE37select_on_container_copy_constructionERKS3_
FN:710,_ZSt15__alloc_on_moveISaISt6vectorImSaImEEEEvRT_S5_
FNDA:0,_ZSt15__alloc_on_moveISaISt6vectorImSaImEEEEvRT_S5_
FN:845,_ZSt8_DestroyIPmmEvT_S1_RSaIT0_E
FNDA:0,_ZSt8_DestroyIPmmEvT_S1_RSaIT0_E
FN:845,_ZSt8_DestroyIPSt6vectorImSaImEES2_EvT_S4_RSaIT0_E
FNDA:0,_ZSt8_DestroyIPSt6vectorImSaImEES2_EvT_S4_RSaIT0_E
FN:845,_ZSt8_DestroyIPiiEvT_S1_RSaIT0_E
FNDA:0,_ZSt8_DestroyIPiiEvT_S1_RSaIT0_E
FN:845,_ZSt8_DestroyIP4EdgeS0_EvT_S2_RSaIT0_E
FNDA:0,_ZSt8_DestroyIP4EdgeS0_EvT_S2_RSaIT0_E
DA:463,0
DA:464,0
DA:463,0
DA:464,0
DA:463,0
DA:464,0
DA:463,0
DA:464,0
DA:495,0
DA:496,0
DA:495,0
DA:496,0
DA:495,0
DA:496,0
DA:495,0
DA:496,0
DA:495,0
DA:496,0
DA:531,0
DA:535,0
DA:539,0
DA:547,0
DA:550,0
DA:547,0
DA:550,0
DA:562,0
DA:563,0
DA:562,0
DA:563,0
DA:710,0
DA:716,0
DA:720,0
DA:845,0
DA:848,0
DA:849,0
DA:845,0
DA:848,0
DA:849,0
DA:845,0
DA:848,0
DA:849,0
DA:845,0
DA:848,0
DA:849,0
end_of_record
SF:/usr/include/c++/11/bits/stl_uninitialized.h
FN:85,_ZNSt20__uninitialized_copyILb0EE13__uninit_copyINSt8__detail14_Node_iteratorI4EdgeLb1ELb1EEEPS4_EET0_T_S8_S7_
FNDA:0,_ZNSt20__uninitialized_copyILb0EE13__uninit_copyINSt8__detail14_Node_iteratorI4EdgeLb1ELb1EEEPS4_EET0_T_S8_S7_
FN:85,_ZNSt20__uninitialized_copyILb0EE13__uninit_copyIN9__gnu_cxx17__normal_iteratorIPKSt6vectorImSaImEES4_IS6_SaIS6_EEEEPS6_EET0_T_SE_SD_
FNDA:0,_ZNSt20__uninitialized_copyILb0EE13__uninit_copyIN9__gnu_cxx17__normal_iteratorIPKSt6vectorImSaImEES4_IS6_SaIS6_EEEEPS6_EET0_T_SE_SD_
FN:108,_ZNSt20__uninitialized_copyILb1EE13__uninit_copyIN9__gnu_cxx17__normal_iteratorIPKmSt6vectorImSaImEEEEPmEET0_T_SC_SB_
FNDA:0,_ZNSt20__uninitialized_copyILb1EE13__uninit_copyIN9__gnu_cxx17__normal_iteratorIPKmSt6vectorImSaImEEEEPmEET0_T_SC_SB_
FN:126,_ZSt18uninitialized_copyIN9__gnu_cxx17__normal_iteratorIPKmSt6vectorImSaImEEEEPmET0_T_SA_S9_
FNDA:0,_ZSt18uninitialized_copyIN9__gnu_cxx17__normal_iteratorIPKmSt6vectorImSaImEEEEPmET0_T_SA_S9_
FN:126,_ZSt18uninitialized_copyINSt8__detail14_Node_iteratorI4EdgeLb1ELb1EEEPS2_ET0_T_S6_S5_
FNDA:0,_ZSt18uninitialized_copyINSt8__detail14_Node_iteratorI4EdgeLb1ELb1EEEPS2_ET0_T_S6_S5_
FN:126,_ZSt18uninitialized_copyIN9__gnu_cxx17__normal_iteratorIPKSt6vectorImSaImEES2_IS4_SaIS4_EEEEPS4_ET0_T_SC_SB_
FNDA:0,_ZSt18uninitialized_copyIN9__gnu_cxx17__normal_iteratorIPKSt6vectorImSaImEES2_IS4_SaIS4_EEEEPS4_ET0_T_SC_SB_
FN:331,_ZSt22__uninitialized_copy_aIN9__gnu_cxx17__normal_iteratorIPKmSt6vectorImSaImEEEEPmmET0_T_SA_S9_RSaIT1_E
FNDA:0,_ZSt22__uninitialized_copy_aIN9__gnu_cxx17__normal_iteratorIPKmSt6vectorImSaImEEEEPmmET0_T_SA_S9_RSaIT1_E
FN:331,_ZSt22__uninitialized_copy_aINSt8__detail14_Node_iteratorI4EdgeLb1ELb1EEEPS2_S2_ET0_T_S6_S5_RSaIT1_E
FNDA:0,_ZSt22__uninitialized_copy_aINSt8__detail14_Node_iteratorI4EdgeLb1ELb1EEEPS2_S2_ET0_T_S6_S5_RSaIT1_E
FN:331,_ZSt22__uninitialized_copy_aIN9__gnu_cxx17__normal_iteratorIPKSt6vectorImSaImEES2_IS4_SaIS4_EEEEPS4_S4_ET0_T_SC_SB_RSaIT1_E
FNDA:0,_ZSt22__uninitialized_copy_aIN9__gnu_cxx17__normal_iteratorIPKSt6vectorImSaImEES2_IS4_SaIS4_EEEEPS4_S4_ET0_T_SC_SB_RSaIT1_E
FN:595,_ZNSt27__uninitialized_default_n_1ILb1EE18__uninit_default_nIPimEET_S3_T0_
FNDA:0,_ZNSt27__uninitialized_default_n_1ILb1EE18__uninit_default_nIPimEET_S3_T0_
FN:630,_ZSt25__uninitialized_default_nIPimET_S1_T0_
FNDA:0,_ZSt25__uninitialized_default_nIPimET_S1_T0_
FN:702,_ZSt27__uninitialized_default_n_aIPimiET_S1_T0_RSaIT1_E
FNDA:0,_ZSt27__uninitialized_default_n_aIPimiET_S1_T0_RSaIT1_E
DA:85,0
DA:88,0
DA:91,0
DA:92,0
DA:93,0
DA:95,0
DA:97,0
DA:98,0
DA:85,0
DA:88,0
DA:91,0
DA:92,0
DA:93,0
DA:95,0
DA:97,0
DA:98,0
DA:108,0
DA:110,0
DA:126,0
DA:145,0
DA:151,0
DA:126,0
DA:145,0
DA:151,0
DA:126,0
DA:145,0
DA:151,0
DA:331,0
DA:333,0
DA:331,0
DA:333,0
DA:331,0
DA:333,0
DA:595,0
DA:597,0
DA:600,0
DA:601,0
DA:602,0
DA:603,0
DA:605,0
DA:630,0
DA:635,0
DA:640,0
DA:702,0
DA:704,0
end_of_record
SF:/usr/include/c++/11/bits/stl_construct.h
FN:109,_ZSt10_ConstructIiJEEvPT_DpOT0_
FNDA:0,_ZSt10_ConstructIiJEEvPT_DpOT0_
FN:109,_ZSt10_ConstructI4EdgeJRKS0_EEvPT_DpOT0_
FNDA:0,_ZSt10_ConstructI4EdgeJRKS0_EEvPT_DpOT0_
FN:109,_ZSt10_ConstructISt6vectorImSaImEEJRKS2_EEvPT_DpOT0_
FNDA:0,_ZSt10_ConstructISt6vectorImSaImEEJRKS2_EEvPT_DpOT0_
FN:146,_ZSt8_DestroyISt6vectorImSaImEEEvPT_
FNDA:0,_ZSt8_DestroyISt6vectorImSaImEEEvPT_
FN:146,_ZSt8_DestroyI4EdgeEvPT_
FNDA:0,_ZSt8_DestroyI4EdgeEvPT_
FN:160,_ZNSt12_Destroy_auxILb0EE9__destroyIPSt6vectorImSaImEEEEvT_S6_
FNDA:0,_ZNSt12_Destroy_auxILb0EE9__destroyIPSt6vectorImSaImEEEEvT_S6_
FN:160,_ZNSt12_Destroy_auxILb0EE9__destroyIP4EdgeEEvT_S4_
FNDA:0,_ZNSt12_Destroy_auxILb0EE9__destroyIP4EdgeEEvT_S4_
FN:172,_ZNSt12_Destroy_auxILb1EE9__destroyIPmEEvT_S3_
FNDA:0,_ZNSt12_Destroy_auxILb1EE9__destroyIPmEEvT_S3_
FN:172,_ZNSt12_Destroy_auxILb1EE9__destroyIPiEEvT_S3_
FNDA:0,_ZNSt12_Destroy_auxILb1EE9__destroyIPiEEvT_S3_
FN:182,_ZSt8_DestroyIPmEvT_S1_
FNDA:0,_ZSt8_DestroyIPmEvT_S1_
FN:182,_ZSt8_DestroyIPSt6vectorImSaImEEEvT_S4_
FNDA:0,_ZSt8_DestroyIPSt6vectorImSaImEEEvT_S4_
FN:182,_ZSt8_DestroyIPiEvT_S1_
FNDA:0,_ZSt8_DestroyIPiEvT_S1_
FN:182,_ZSt8_DestroyIP4EdgeEvT_S2_
FNDA:0,_ZSt8_DestroyIP4EdgeEvT_S2_
DA:109,0
DA:119,0
DA:120,0
DA:109,0
DA:119,0
DA:120,0
DA:109,0
DA:119,0
DA:120,0
DA:146,0
DA:151,0
DA:153,0
DA:146,0
DA:151,0
DA:153,0
DA:160,0
DA:162,0
DA:163,0
DA:164,0
DA:160,0
DA:162,0
DA:163,0
DA:164,0
DA:172,0
DA:172,0
DA:182,0
DA:196,0
DA:197,0
DA:182,0
DA:196,0
DA:197,0
DA:182,0
DA:196,0
DA:197,0
DA:182,0
DA:196,0
DA:197,0
end_of_record
SF:/usr/include/c++/11/ext/alloc_traits.h
FN:97,_ZN9__gnu_cxx14__alloc_traitsISaImEmE17_S_select_on_copyERKS1_
FNDA:0,_ZN9__gnu_cxx14__alloc_traitsISaImEmE17_S_select_on_copyERKS1_
FN:97,_ZN9__gnu_cxx14__alloc_traitsISaISt6vectorImSaImEEES3_E17_S_select_on_copyERKS4_
FNDA:0,_ZN9__gnu_cxx14__alloc_traitsISaISt6vectorImSaImEEES3_E17_S_select_on_copyERKS4_
DA:97,0
DA:98,0
DA:97,0
DA:98,0
end_of_record
SF:/usr/include/c++/11/tuple
FN:192,_ZNSt10_Head_baseILm1ERSt6vectorIS0_ImSaImEESaIS2_EELb0EEC2ES5_
FNDA:0,_ZNSt10_Head_baseILm1ERSt6vectorIS0_ImSaImEESaIS2_EELb0EEC2ES5_
FN:192,_ZNSt10_Head_baseILm0ERSt6vectorIS0_ImSaImEESaIS2_EELb0EEC2ES5_
FNDA:0,_ZNSt10_Head_baseILm0ERSt6vectorIS0_ImSaImEESaIS2_EELb0EEC2ES5_
FN:233,_ZNSt10_Head_baseILm1ERSt6vectorIS0_ImSaImEESaIS2_EELb0EE7_M_headERS6_
FNDA:0,_ZNSt10_Head_baseILm1ERSt6vectorIS0_ImSaImEESaIS2_EELb0EE7_M_headERS6_
FN:233,_ZNSt10_Head_baseILm0ERSt6vectorIS0_ImSaImEESaIS2_EELb0EE7_M_headERS6_
FNDA:0,_ZNSt10_Head_baseILm0ERSt6vectorIS0_ImSaImEESaIS2_EELb0EE7_M_headERS6_
FN:268,_ZNSt11_Tuple_implILm0EJRSt6vectorIS0_ImSaImEESaIS2_EES5_EE7_M_headERS6_
FNDA:0,_ZNSt11_Tuple_implILm0EJRSt6vectorIS0_ImSaImEESaIS2_EES5_EE7_M_headERS6_
FN:274,_ZNSt11_Tuple_implILm0EJRSt6vectorIS0_ImSaImEESaIS2_EES5_EE7_M_tailERS6_
FNDA:0,_ZNSt11_Tuple_implILm0EJRSt6vectorIS0_ImSaImEESaIS2_EES5_EE7_M_tailERS6_
FN:283,_ZNSt11_Tuple_implILm0EJRSt6vectorIS0_ImSaImEESaIS2_EES5_EEC2ES5_S5_
FNDA:0,_ZNSt11_Tuple_implILm0EJRSt6vectorIS0_ImSaImEESaIS2_EES5_EEC2ES5_S5_
FN:424,_ZNSt11_Tuple_implILm1EJRSt6vectorIS0_ImSaImEESaIS2_EEEE7_M_headERS6_
FNDA:0,_ZNSt11_Tuple_implILm1EJRSt6vectorIS0_ImSaImEESaIS2_EEEE7_M_headERS6_
FN:434,_ZNSt11_Tuple_implILm1EJRSt6vectorIS0_ImSaImEESaIS2_EEEEC2ES5_
FNDA:0,_ZNSt11_Tuple_implILm1EJRSt6vectorIS0_ImSaImEESaIS2_EEEEC2ES5_
FN:1063,_ZNSt5tupleIJRSt6vectorIS0_ImSaImEESaIS2_EES5_EEC2ILb1ELb1EEES5_S5_
FNDA:0,_ZNSt5tupleIJRSt6vectorIS0_ImSaImEESaIS2_EES5_EEC2ILb1ELb1EEES5_S5_
FN:1321,_ZNSt5tupleIJRSt6vectorIS0_ImSaImEESaIS2_EES5_EEaSIS4_S4_EENSt9enable_ifIXcl12__assignableIT_T0_EEERS6_E4typeEOSt4pairIS9_SA_E
FNDA:0,_ZNSt5tupleIJRSt6vectorIS0_ImSaImEESaIS2_EES5_EEaSIS4_S4_EENSt9enable_ifIXcl12__assignableIT_T0_EEERS6_E4typeEOSt4pairIS9_SA_E
FN:1746,_ZSt3tieIJSt6vectorIS0_ImSaImEESaIS2_EES4_EESt5tupleIJDpRT_EES8_
FNDA:0,_ZSt3tieIJSt6vectorIS0_ImSaImEESaIS2_EES4_EESt5tupleIJDpRT_EES8_
DA:192,0
DA:193,0
DA:192,0
DA:193,0
DA:233,0
DA:233,0
DA:268,0
DA:274,0
DA:283,0
DA:284,0
DA:285,0
DA:424,0
DA:434,0
DA:435,0
DA:436,0
DA:1063,0
DA:1065,0
DA:1321,0
DA:1324,0
DA:1325,0
DA:1326,0
DA:1746,0
DA:1747,0
end_of_record
SF:/usr/include/c++/11/ext/aligned_buffer.h
FN:64,_ZN9__gnu_cxx16__aligned_membufISt4pairIKmmEE7_M_addrEv
FNDA:0,_ZN9__gnu_cxx16__aligned_membufISt4pairIKmmEE7_M_addrEv
FN:72,_ZN9__gnu_cxx16__aligned_membufISt4pairIKmmEE6_M_ptrEv
FNDA:0,_ZN9__gnu_cxx16__aligned_membufISt4pairIKmmEE6_M_ptrEv
FN:102,_ZN9__gnu_cxx16__aligned_bufferI4EdgeE7_M_addrEv
FNDA:0,_ZN9__gnu_cxx16__aligned_bufferI4EdgeE7_M_addrEv
FN:114,_ZN9__gnu_cxx16__aligned_bufferI4EdgeE6_M_ptrEv
FNDA:0,_ZN9__gnu_cxx16__aligned_bufferI4EdgeE6_M_ptrEv
DA:64,0
DA:65,0
DA:72,0
DA:73,0
DA:102,0
DA:104,0
DA:114,0
DA:115,0
end_of_record
SF:/usr/include/c++/11/bits/invoke.h
FN:60,_ZSt13__invoke_implIiRZN6TarjanclEP5GraphEUliE0_JiEET_St14__invoke_otherOT0_DpOT1_
FNDA:0,_ZSt13__invoke_implIiRZN6TarjanclEP5GraphEUliE0_JiEET_St14__invoke_otherOT0_DpOT1_
FN:104,_ZSt10__invoke_rIiRZN6TarjanclEP5GraphEUliE0_JiEENSt9enable_ifIX16is_invocable_r_vIT_T0_DpT1_EES6_E4typeEOS7_DpOS8_
FNDA:0,_ZSt10__invoke_rIiRZN6TarjanclEP5GraphEUliE0_JiEENSt9enable_ifIX16is_invocable_r_vIT_T0_DpT1_EES6_E4typeEOS7_DpOS8_
DA:60,0
DA:61,0
DA:104,0
DA:114,0
DA:116,0
end_of_record
SF:/usr/include/c++/11/bits/hashtable_policy.h
FN:237,_ZNSt8__detail21_Hash_node_value_baseI4EdgeE9_M_valptrEv
FNDA:0,_ZNSt8__detail21_Hash_node_value_baseI4EdgeE9_M_valptrEv
FN:245,_ZNSt8__detail21_Hash_node_value_baseI4EdgeE4_M_vEv
FNDA:0,_ZNSt8__detail21_Hash_node_value_baseI4EdgeE4_M_vEv
FN:282,_ZNKSt8__detail10_Hash_nodeI4EdgeLb1EE7_M_nextEv
FNDA:0,_ZNKSt8__detail10_Hash_nodeI4EdgeLb1EE7_M_nextEv
FN:299,_ZNSt8__detail19_Node_iterator_baseI4EdgeLb1EE7_M_incrEv
FNDA:0,_ZNSt8__detail19_Node_iterator_baseI4EdgeLb1EE7_M_incrEv
FN:309,_ZNSt8__detailneERKNS_19_Node_iterator_baseI4EdgeLb1EEES4_
FNDA:0,_ZNSt8__detailneERKNS_19_Node_iterator_baseI4EdgeLb1EEES4_
FN:342,_ZNKSt8__detail14_Node_iteratorI4EdgeLb1ELb1EEdeEv
FNDA:0,_ZNKSt8__detail14_Node_iteratorI4EdgeLb1ELb1EEdeEv
FN:350,_ZNSt8__detail14_Node_iteratorI4EdgeLb1ELb1EEppEv
FNDA:0,_ZNSt8__detail14_Node_iteratorI4EdgeLb1ELb1EEppEv
DA:237,0
DA:238,0
DA:245,0
DA:246,0
DA:282,0
DA:283,0
DA:299,0
DA:300,0
DA:309,0
DA:311,0
DA:342,0
DA:343,0
DA:350,0
DA:352,0
DA:353,0
end_of_record
SF:/usr/include/c++/11/bits/stl_iterator_base_funcs.h
FN:80,_ZSt10__distanceINSt8__detail14_Node_iteratorI4EdgeLb1ELb1EEEENSt15iterator_traitsIT_E15difference_typeES5_S5_St18input_iterator_tag
FNDA:0,_ZSt10__distanceINSt8__detail14_Node_iteratorI4EdgeLb1ELb1EEEENSt15iterator_traitsIT_E15difference_typeES5_S5_St18input_iterator_tag
FN:138,_ZSt8distanceINSt8__detail14_Node_iteratorI4EdgeLb1ELb1EEEENSt15iterator_traitsIT_E15difference_typeES5_S5_
FNDA:0,_ZSt8distanceINSt8__detail14_Node_iteratorI4EdgeLb1ELb1EEEENSt15iterator_traitsIT_E15difference_typeES5_S5_
DA:80,0
DA:86,0
DA:87,0
DA:89,0
DA:90,0
DA:92,0
DA:138,0
DA:141,0
DA:142,0
end_of_record
SF:/usr/include/c++/11/bits/stl_heap.h
FN:134,_ZSt11__push_heapIN9__gnu_cxx17__normal_iteratorIP4EdgeSt6vectorIS2_SaIS2_EEEElS2_NS0_5__ops14_Iter_comp_valIZN6TarjanclEP5GraphEUlRKS2_SE_E_EEEvT_T0_SI_T1_RT2_
FNDA:0,_ZSt11__push_heapIN9__gnu_cxx17__normal_iteratorIP4EdgeSt6vectorIS2_SaIS2_EEEElS2_NS0_5__ops14_Iter_comp_valIZN6TarjanclEP5GraphEUlRKS2_SE_E_EEEvT_T0_SI_T1_RT2_
FN:223,_ZSt13__adjust_heapIN9__gnu_cxx17__normal_iteratorIP4EdgeSt6vectorIS2_SaIS2_EEEElS2_NS0_5__ops15_Iter_comp_iterIZN6TarjanclEP5GraphEUlRKS2_SE_E_EEEvT_T0_SI_T1_T2_
FNDA:0,_ZSt13__adjust_heapIN9__gnu_cxx17__normal_iteratorIP4EdgeSt6vectorIS2_SaIS2_EEEElS2_NS0_5__ops15_Iter_comp_iterIZN6TarjanclEP5GraphEUlRKS2_SE_E_EEEvT_T0_SI_T1_T2_
FN:253,_ZSt10__pop_heapIN9__gnu_cxx17__normal_iteratorIP4EdgeSt6vectorIS2_SaIS2_EEEENS0_5__ops15_Iter_comp_iterIZN6TarjanclEP5GraphEUlRKS2_SE_E_EEEvT_SH_SH_RT0_
FNDA:0,_ZSt10__pop_heapIN9__gnu_cxx17__normal_iteratorIP4EdgeSt6vectorIS2_SaIS2_EEEENS0_5__ops15_Iter_comp_iterIZN6TarjanclEP5GraphEUlRKS2_SE_E_EEEvT_SH_SH_RT0_
FN:339,_ZSt11__make_heapIN9__gnu_cxx17__normal_iteratorIP4EdgeSt6vectorIS2_SaIS2_EEEENS0_5__ops15_Iter_comp_iterIZN6TarjanclEP5GraphEUlRKS2_SE_E_EEEvT_SH_RT0_
FNDA:0,_ZSt11__make_heapIN9__gnu_cxx17__normal_iteratorIP4EdgeSt6vectorIS2_SaIS2_EEEENS0_5__ops15_Iter_comp_iterIZN6TarjanclEP5GraphEUlRKS2_SE_E_EEEvT_SH_RT0_
FN:418,_ZSt11__sort_heapIN9__gnu_cxx17__normal_iteratorIP4EdgeSt6vectorIS2_SaIS2_EEEENS0_5__ops15_Iter_comp_iterIZN6TarjanclEP5GraphEUlRKS2_SE_E_EEEvT_SH_RT0_
FNDA:0,_ZSt11__sort_heapIN9__gnu_cxx17__normal_iteratorIP4EdgeSt6vectorIS2_SaIS2_EEEENS0_5__ops15_Iter_comp_iterIZN6TarjanclEP5GraphEUlRKS2_SE_E_EEEvT_SH_RT0_
DA:134,0
DA:138,0
DA:139,0
DA:141,0
DA:142,0
DA:143,0
DA:145,0
DA:146,0
DA:223,0
DA:226,0
DA:227,0
DA:228,0
DA:230,0
DA:231,0
DA:233,0
DA:234,0
DA:235,0
DA:237,0
DA:239,0
DA:240,0
DA:242,0
DA:245,0
DA:246,0
DA:247,0
DA:248,0
DA:253,0
DA:261,0
DA:262,0
DA:263,0
DA:264,0
DA:265,0
DA:266,0
DA:339,0
DA:347,0
DA:348,0
DA:350,0
DA:351,0
DA:352,0
DA:354,0
DA:355,0
DA:357,0
DA:358,0
DA:359,0
DA:418,0
DA:421,0
DA:423,0
DA:424,0
DA:426,0
end_of_record
SF:/home/imri/OS-FinalProject/MST/Tarjan.cpp
FN:4,_ZN6TarjanclEP5Graph
FNDA:0,_ZN6TarjanclEP5Graph
FN:11,_ZZN6TarjanclEP5GraphENKUlRK4EdgeS4_E_clES4_S4_
FNDA:0,_ZZN6TarjanclEP5GraphENKUlRK4EdgeS4_E_clES4_S4_
FN:24,_ZZN6TarjanclEP5GraphENKUliE0_clEi
FNDA:0,_ZZN6TarjanclEP5GraphENKUliE0_clEi
FN:31,_ZZN6TarjanclEP5GraphENKUliiE1_clEii
FNDA:0,_ZZN6TarjanclEP5GraphENKUliiE1_clEii
DA:4,0
DA:7,0
DA:10,0
DA:11,0
DA:12,0
DA:16,0
DA:19,0
DA:20,0
DA:21,0
DA:24,0
DA:25,0
DA:26,0
DA:27,0
DA:28,0
DA:31,0
DA:32,0
DA:33,0
DA:34,0
DA:35,0
DA:36,0
DA:39,0
DA:41,0
DA:42,0
DA:45,0
DA:47,0
DA:48,0
DA:52,0
DA:53,0
DA:56,0
DA:57,0
DA:59,0
DA:60,0
DA:63,0
DA:64,0
end_of_record
SF:/usr/include/c++/11/bits/std_function.h
FN:85,_ZNSt9_Any_data9_M_accessEv
FNDA:0,_ZNSt9_Any_data9_M_accessEv
FN:86,_ZNKSt9_Any_data9_M_accessEv
FNDA:0,_ZNKSt9_Any_data9_M_accessEv
FN:90,_ZNSt9_Any_data9_M_accessIZN6TarjanclEP5GraphEUliE0_EERT_v
FNDA:0,_ZNSt9_Any_data9_M_accessIZN6TarjanclEP5GraphEUliE0_EERT_v
FN:90,_ZNSt9_Any_data9_M_accessIPZN6TarjanclEP5GraphEUliE0_EERT_v
FNDA:0,_ZNSt9_Any_data9_M_accessIPZN6TarjanclEP5GraphEUliE0_EERT_v
FN:90,_ZNSt9_Any_data9_M_accessIPKSt9type_infoEERT_v
FNDA:0,_ZNSt9_Any_data9_M_accessIPKSt9type_infoEERT_v
FN:95,_ZNKSt9_Any_data9_M_accessIZN6TarjanclEP5GraphEUliE0_EERKT_v
FNDA:0,_ZNKSt9_Any_data9_M_accessIZN6TarjanclEP5GraphEUliE0_EERKT_v
FN:134,_ZNSt14_Function_base13_Base_managerIZN6TarjanclEP5GraphEUliE0_E14_M_get_pointerERKSt9_Any_data
FNDA:0,_ZNSt14_Function_base13_Base_managerIZN6TarjanclEP5GraphEUliE0_E14_M_get_pointerERKSt9_Any_data
FN:150,_ZNSt14_Function_base13_Base_managerIZN6TarjanclEP5GraphEUliE0_E9_M_createIRKS4_EEvRSt9_Any_dataOT_St17integral_constantIbLb1EE
FNDA:0,_ZNSt14_Function_base13_Base_managerIZN6TarjanclEP5GraphEUliE0_E9_M_createIRKS4_EEvRSt9_Any_dataOT_St17integral_constantIbLb1EE
FN:150,_ZNSt14_Function_base13_Base_managerIZN6TarjanclEP5GraphEUliE0_E9_M_createIS4_EEvRSt9_Any_dataOT_St17integral_constantIbLb1EE
FNDA:0,_ZNSt14_Function_base13_Base_managerIZN6TarjanclEP5GraphEUliE0_E9_M_createIS4_EEvRSt9_Any_dataOT_St17integral_constantIbLb1EE
FN:166,_ZNSt14_Function_base13_Base_managerIZN6TarjanclEP5GraphEUliE0_E10_M_destroyERSt9_Any_dataSt17integral_constantIbLb1EE
FNDA:0,_ZNSt14_Function_base13_Base_managerIZN6TarjanclEP5GraphEUliE0_E10_M_destroyERSt9_Any_dataSt17integral_constantIbLb1EE
FN:180,_ZNSt14_Function_base13_Base_managerIZN6TarjanclEP5GraphEUliE0_E10_M_managerERSt9_Any_dataRKS6_St18_Manager_operation
FNDA:0,_ZNSt14_Function_base13_Base_managerIZN6TarjanclEP5GraphEUliE0_E10_M_managerERSt9_Any_dataRKS6_St18_Manager_operation
FN:211,_ZNSt14_Function_base13_Base_managerIZN6TarjanclEP5GraphEUliE0_E15_M_init_functorIS4_EEvRSt9_Any_dataOT_
FNDA:0,_ZNSt14_Function_base13_Base_managerIZN6TarjanclEP5GraphEUliE0_E15_M_init_functorIS4_EEvRSt9_Any_dataOT_
FN:211,_ZNSt14_Function_base13_Base_managerIZN6TarjanclEP5GraphEUliE0_E15_M_init_functorIRKS4_EEvRSt9_Any_dataOT_
FNDA:0,_ZNSt14_Function_base13_Base_managerIZN6TarjanclEP5GraphEUliE0_E15_M_init_functorIRKS4_EEvRSt9_Any_dataOT_
FN:235,_ZNSt14_Function_base13_Base_managerIZN6TarjanclEP5GraphEUliE0_E21_M_not_empty_functionIS4_EEbRKT_
FNDA:0,_ZNSt14_Function_base13_Base_managerIZN6TarjanclEP5GraphEUliE0_E21_M_not_empty_functionIS4_EEbRKT_
FN:239,_ZNSt14_Function_baseC2Ev
FNDA:0,_ZNSt14_Function_baseC2Ev
FN:241,_ZNSt14_Function_baseD2Ev
FNDA:0,_ZNSt14_Function_baseD2Ev
FN:247,_ZNKSt14_Function_base8_M_emptyEv
FNDA:0,_ZNKSt14_Function_base8_M_emptyEv
FN:267,_ZNSt17_Function_handlerIFiiEZN6TarjanclEP5GraphEUliE0_E10_M_managerERSt9_Any_dataRKS6_St18_Manager_operation
FNDA:0,_ZNSt17_Function_handlerIFiiEZN6TarjanclEP5GraphEUliE0_E10_M_managerERSt9_Any_dataRKS6_St18_Manager_operation
FN:288,_ZNSt17_Function_handlerIFiiEZN6TarjanclEP5GraphEUliE0_E9_M_invokeERKSt9_Any_dataOi
FNDA:0,_ZNSt17_Function_handlerIFiiEZN6TarjanclEP5GraphEUliE0_E9_M_invokeERKSt9_Any_dataOi
FN:435,_ZNSt8functionIFiiEEC2IZN6TarjanclEP5GraphEUliE0_vEEOT_
FNDA:0,_ZNSt8functionIFiiEEC2IZN6TarjanclEP5GraphEUliE0_vEEOT_
FN:586,_ZNKSt8functionIFiiEEclEi
FNDA:0,_ZNKSt8functionIFiiEEclEi
DA:85,0
DA:86,0
DA:90,0
DA:91,0
DA:90,0
DA:91,0
DA:90,0
DA:91,0
DA:95,0
DA:96,0
DA:134,0
DA:138,0
DA:139,0
DA:150,0
DA:152,0
DA:153,0
DA:150,0
DA:152,0
DA:153,0
DA:166,0
DA:168,0
DA:169,0
DA:180,0
DA:183,0
DA:185,0
DA:187,0
DA:191,0
DA:193,0
DA:194,0
DA:195,0
DA:197,0
DA:198,0
DA:199,0
DA:200,0
DA:202,0
DA:203,0
DA:204,0
DA:206,0
DA:211,0
DA:215,0
DA:216,0
DA:211,0
DA:215,0
DA:216,0
DA:235,0
DA:236,0
DA:239,0
DA:241,0
DA:243,0
DA:244,0
DA:245,0
DA:247,0
DA:267,0
DA:270,0
DA:273,0
DA:274,0
DA:275,0
DA:277,0
DA:278,0
DA:279,0
DA:281,0
DA:282,0
DA:284,0
DA:288,0
DA:290,0
DA:291,0
DA:435,0
DA:437,0
DA:447,0
DA:449,0
DA:451,0
DA:452,0
DA:454,0
DA:586,0
DA:588,0
DA:589,0
DA:590,0
end_of_record
SF:/usr/include/c++/11/bits/stl_algo.h
FN:79,_ZSt22__move_median_to_firstIN9__gnu_cxx17__normal_iteratorIP4EdgeSt6vectorIS2_SaIS2_EEEENS0_5__ops15_Iter_comp_iterIZN6TarjanclEP5GraphEUlRKS2_SE_E_EEEvT_SH_SH_SH_T0_
FNDA:0,_ZSt22__move_median_to_firstIN9__gnu_cxx17__normal_iteratorIP4EdgeSt6vectorIS2_SaIS2_EEEENS0_5__ops15_Iter_comp_iterIZN6TarjanclEP5GraphEUlRKS2_SE_E_EEEvT_SH_SH_SH_T0_
FN:1642,_ZSt13__heap_selectIN9__gnu_cxx17__normal_iteratorIP4EdgeSt6vectorIS2_SaIS2_EEEENS0_5__ops15_Iter_comp_iterIZN6TarjanclEP5GraphEUlRKS2_SE_E_EEEvT_SH_SH_T0_
FNDA:0,_ZSt13__heap_selectIN9__gnu_cxx17__normal_iteratorIP4EdgeSt6vectorIS2_SaIS2_EEEENS0_5__ops15_Iter_comp_iterIZN6TarjanclEP5GraphEUlRKS2_SE_E_EEEvT_SH_SH_T0_
FN:1799,_ZSt25__unguarded_linear_insertIN9__gnu_cxx17__normal_iteratorIP4EdgeSt6vectorIS2_SaIS2_EEEENS0_5__ops14_Val_comp_iterIZN6TarjanclEP5GraphEUlRKS2_SE_E_EEEvT_T0_
FNDA:0,_ZSt25__unguarded_linear_insertIN9__gnu_cxx17__normal_iteratorIP4EdgeSt6vectorIS2_SaIS2_EEEENS0_5__ops14_Val_comp_iterIZN6TarjanclEP5GraphEUlRKS2_SE_E_EEEvT_T0_
FN:1819,_ZSt16__insertion_sortIN9__gnu_cxx17__normal_iteratorIP4EdgeSt6vectorIS2_SaIS2_EEEENS0_5__ops15_Iter_comp_iterIZN6TarjanclEP5GraphEUlRKS2_SE_E_EEEvT_SH_T0_
FNDA:0,_ZSt16__insertion_sortIN9__gnu_cxx17__normal_iteratorIP4EdgeSt6vectorIS2_SaIS2_EEEENS0_5__ops15_Iter_comp_iterIZN6TarjanclEP5GraphEUlRKS2_SE_E_EEEvT_SH_T0_
FN:1843,_ZSt26__unguarded_insertion_sortIN9__gnu_cxx17__normal_iteratorIP4EdgeSt6vectorIS2_SaIS2_EEEENS0_5__ops15_Iter_comp_iterIZN6TarjanclEP5GraphEUlRKS2_SE_E_EEEvT_SH_T0_
FNDA:0,_ZSt26__unguarded_insertion_sortIN9__gnu_cxx17__normal_iteratorIP4EdgeSt6vectorIS2_SaIS2_EEEENS0_5__ops15_Iter_comp_iterIZN6TarjanclEP5GraphEUlRKS2_SE_E_EEEvT_SH_T0_
FN:1861,_ZSt22__final_insertion_sortIN9__gnu_cxx17__normal_iteratorIP4EdgeSt6vectorIS2_SaIS2_EEEENS0_5__ops15_Iter_comp_iterIZN6TarjanclEP5GraphEUlRKS2_SE_E_EEEvT_SH_T0_
FNDA:0,_ZSt22__final_insertion_sortIN9__gnu_cxx17__normal_iteratorIP4EdgeSt6vectorIS2_SaIS2_EEEENS0_5__ops15_Iter_comp_iterIZN6TarjanclEP5GraphEUlRKS2_SE_E_EEEvT_SH_T0_
FN:1878,_ZSt21__unguarded_partitionIN9__gnu_cxx17__normal_iteratorIP4EdgeSt6vectorIS2_SaIS2_EEEENS0_5__ops15_Iter_comp_iterIZN6TarjanclEP5GraphEUlRKS2_SE_E_EEET_SH_SH_SH_T0_
FNDA:0,_ZSt21__unguarded_partitionIN9__gnu_cxx17__normal_iteratorIP4EdgeSt6vectorIS2_SaIS2_EEEENS0_5__ops15_Iter_comp_iterIZN6TarjanclEP5GraphEUlRKS2_SE_E_EEET_SH_SH_SH_T0_
FN:1900,_ZSt27__unguarded_partition_pivotIN9__gnu_cxx17__normal_iteratorIP4EdgeSt6vectorIS2_SaIS2_EEEENS0_5__ops15_Iter_comp_iterIZN6TarjanclEP5GraphEUlRKS2_SE_E_EEET_SH_SH_T0_
FNDA:0,_ZSt27__unguarded_partition_pivotIN9__gnu_cxx17__normal_iteratorIP4EdgeSt6vectorIS2_SaIS2_EEEENS0_5__ops15_Iter_comp_iterIZN6TarjanclEP5GraphEUlRKS2_SE_E_EEET_SH_SH_T0_
FN:1912,_ZSt14__partial_sortIN9__gnu_cxx17__normal_iteratorIP4EdgeSt6vectorIS2_SaIS2_EEEENS0_5__ops15_Iter_comp_iterIZN6TarjanclEP5GraphEUlRKS2_SE_E_EEEvT_SH_SH_T0_
FNDA:0,_ZSt14__partial_sortIN9__gnu_cxx17__normal_iteratorIP4EdgeSt6vectorIS2_SaIS2_EEEENS0_5__ops15_Iter_comp_iterIZN6TarjanclEP5GraphEUlRKS2_SE_E_EEEvT_SH_SH_T0_
FN:1925,_ZSt16__introsort_loopIN9__gnu_cxx17__normal_iteratorIP4EdgeSt6vectorIS2_SaIS2_EEEElNS0_5__ops15_Iter_comp_iterIZN6TarjanclEP5GraphEUlRKS2_SE_E_EEEvT_SH_T0_T1_
FNDA:0,_ZSt16__introsort_loopIN9__gnu_cxx17__normal_iteratorIP4EdgeSt6vectorIS2_SaIS2_EEEElNS0_5__ops15_Iter_comp_iterIZN6TarjanclEP5GraphEUlRKS2_SE_E_EEEvT_SH_T0_T1_
FN:1949,_ZSt6__sortIN9__gnu_cxx17__normal_iteratorIP4EdgeSt6vectorIS2_SaIS2_EEEENS0_5__ops15_Iter_comp_iterIZN6TarjanclEP5GraphEUlRKS2_SE_E_EEEvT_SH_T0_
FNDA:0,_ZSt6__sortIN9__gnu_cxx17__normal_iteratorIP4EdgeSt6vectorIS2_SaIS2_EEEENS0_5__ops15_Iter_comp_iterIZN6TarjanclEP5GraphEUlRKS2_SE_E_EEEvT_SH_T0_
FN:4863,_ZSt4sortIN9__gnu_cxx17__normal_iteratorIP4EdgeSt6vectorIS2_SaIS2_EEEEZN6TarjanclEP5GraphEUlRKS2_SC_E_EvT_SE_T0_
FNDA:0,_ZSt4sortIN9__gnu_cxx17__normal_iteratorIP4EdgeSt6vectorIS2_SaIS2_EEEEZN6TarjanclEP5GraphEUlRKS2_SC_E_EvT_SE_T0_
DA:79,0
DA:82,0
DA:84,0
DA:85,0
DA:86,0
DA:87,0
DA:89,0
DA:91,0
DA:92,0
DA:93,0
DA:94,0
DA:96,0
DA:97,0
DA:1642,0
DA:1646,0
DA:1647,0
DA:1648,0
DA:1649,0
DA:1650,0
DA:1799,0
DA:1803,0
DA:1804,0
DA:1805,0
DA:1806,0
DA:1808,0
DA:1809,0
DA:1810,0
DA:1812,0
DA:1813,0
DA:1819,0
DA:1822,0
DA:1824,0
DA:1826,0
DA:1829,0
DA:1830,0
DA:1831,0
DA:1832,0
DA:1834,0
DA:1843,0
DA:1846,0
DA:1847,0
DA:1849,0
DA:1861,0
DA:1864,0
DA:1866,0
DA:1867,0
DA:1871,0
DA:1872,0
DA:1878,0
DA:1884,0
DA:1885,0
DA:1886,0
DA:1887,0
DA:1888,0
DA:1889,0
DA:1890,0
DA:1891,0
DA:1892,0
DA:1900,0
DA:1903,0
DA:1904,0
DA:1906,0
DA:1912,0
DA:1917,0
DA:1918,0
DA:1919,0
DA:1925,0
DA:1929,0
DA:1931,0
DA:1933,0
DA:1934,0
DA:1936,0
DA:1938,0
DA:1939,0
DA:1940,0
DA:1949,0
DA:1952,0
DA:1954,0
DA:1955,0
DA:1957,0
DA:1959,0
DA:4863,0
DA:4875,0
DA:4876,0
end_of_record
SF:/usr/include/c++/11/bits/stl_tree.h
FN:234,_ZNSt13_Rb_tree_nodeISt4pairIKmmEE9_M_valptrEv
FNDA:0,_ZNSt13_Rb_tree_nodeISt4pairIKmmEE9_M_valptrEv
FN:547,_ZNSt8_Rb_treeImSt4pairIKmmESt10_Select1stIS2_ESt4lessImESaIS2_EE21_M_get_Node_allocatorEv
FNDA:0,_ZNSt8_Rb_treeImSt4pairIKmmESt10_Select1stIS2_ESt4lessImESaIS2_EE21_M_get_Node_allocatorEv
FN:564,_ZNSt8_Rb_treeImSt4pairIKmmESt10_Select1stIS2_ESt4lessImESaIS2_EE11_M_put_nodeEPSt13_Rb_tree_nodeIS2_E
FNDA:0,_ZNSt8_Rb_treeImSt4pairIKmmESt10_Select1stIS2_ESt4lessImESaIS2_EE11_M_put_nodeEPSt13_Rb_tree_nodeIS2_E
FN:618,_ZNSt8_Rb_treeImSt4pairIKmmESt10_Select1stIS2_ESt4lessImESaIS2_EE15_M_destroy_nodeEPSt13_Rb_tree_nodeIS2_E
FNDA:0,_ZNSt8_Rb_treeImSt4pairIKmmESt10_Select1stIS2_ESt4lessImESaIS2_EE15_M_destroy_nodeEPSt13_Rb_tree_nodeIS2_E
FN:629,_ZNSt8_Rb_treeImSt4pairIKmmESt10_Select1stIS2_ESt4lessImESaIS2_EE12_M_drop_nodeEPSt13_Rb_tree_nodeIS2_E
FNDA:0,_ZNSt8_Rb_treeImSt4pairIKmmESt10_Select1stIS2_ESt4lessImESaIS2_EE12_M_drop_nodeEPSt13_Rb_tree_nodeIS2_E
FN:734,_ZNKSt8_Rb_treeImSt4pairIKmmESt10_Select1stIS2_ESt4lessImESaIS2_EE9_M_mbeginEv
FNDA:0,_ZNKSt8_Rb_treeImSt4pairIKmmESt10_Select1stIS2_ESt4lessImESaIS2_EE9_M_mbeginEv
FN:738,_ZNSt8_Rb_treeImSt4pairIKmmESt10_Select1stIS2_ESt4lessImESaIS2_EE8_M_beginEv
FNDA:0,_ZNSt8_Rb_treeImSt4pairIKmmESt10_Select1stIS2_ESt4lessImESaIS2_EE8_M_beginEv
FN:779,_ZNSt8_Rb_treeImSt4pairIKmmESt10_Select1stIS2_ESt4lessImESaIS2_EE7_S_leftEPSt18_Rb_tree_node_base
FNDA:0,_ZNSt8_Rb_treeImSt4pairIKmmESt10_Select1stIS2_ESt4lessImESaIS2_EE7_S_leftEPSt18_Rb_tree_node_base
FN:787,_ZNSt8_Rb_treeImSt4pairIKmmESt10_Select1stIS2_ESt4lessImESaIS2_EE8_S_rightEPSt18_Rb_tree_node_base
FNDA:0,_ZNSt8_Rb_treeImSt4pairIKmmESt10_Select1stIS2_ESt4lessImESaIS2_EE8_S_rightEPSt18_Rb_tree_node_base
FN:983,_ZNSt8_Rb_treeImSt4pairIKmmESt10_Select1stIS2_ESt4lessImESaIS2_EED2Ev
FNDA:0,_ZNSt8_Rb_treeImSt4pairIKmmESt10_Select1stIS2_ESt4lessImESaIS2_EED2Ev
FN:1883,_ZNSt8_Rb_treeImSt4pairIKmmESt10_Select1stIS2_ESt4lessImESaIS2_EE8_M_eraseEPSt13_Rb_tree_nodeIS2_E
FNDA:0,_ZNSt8_Rb_treeImSt4pairIKmmESt10_Select1stIS2_ESt4lessImESaIS2_EE8_M_eraseEPSt13_Rb_tree_nodeIS2_E
DA:234,0
DA:235,0
DA:547,0
DA:548,0
DA:564,0
DA:565,0
DA:618,0
DA:623,0
DA:624,0
DA:626,0
DA:629,0
DA:631,0
DA:632,0
DA:633,0
DA:734,0
DA:735,0
DA:738,0
DA:739,0
DA:779,0
DA:780,0
DA:787,0
DA:788,0
DA:983,0
DA:984,0
DA:1883,0
DA:1887,0
DA:1889,0
DA:1890,0
DA:1891,0
DA:1892,0
DA:1894,0
end_of_record
SF:/usr/include/c++/11/iostream
end_of_record
SF:/usr/include/c++/11/bits/allocator.h
FN:156,_ZNSaISt6vectorImSaImEEEC2Ev
FNDA:0,_ZNSaISt6vectorImSaImEEEC2Ev
FN:156,_ZNSaIiEC2Ev
FNDA:0,_ZNSaIiEC2Ev
FN:156,_ZNSaI4EdgeEC2Ev
FNDA:0,_ZNSaI4EdgeEC2Ev
FN:159,_ZNSaImEC2ERKS_
FNDA:0,_ZNSaImEC2ERKS_
FN:159,_ZNSaISt6vectorImSaImEEEC2ERKS2_
FNDA:0,_ZNSaISt6vectorImSaImEEEC2ERKS2_
FN:159,_ZNSaI4EdgeEC2ERKS0_
FNDA:0,_ZNSaI4EdgeEC2ERKS0_
FN:159,_ZNSaIiEC2ERKS_
FNDA:0,_ZNSaIiEC2ERKS_
FN:174,_ZNSaImED2Ev
FNDA:0,_ZNSaImED2Ev
FN:174,_ZNSaISt13_Rb_tree_nodeISt4pairIKmmEEED2Ev
FNDA:0,_ZNSaISt13_Rb_tree_nodeISt4pairIKmmEEED2Ev
FN:174,_ZNSaISt6vectorImSaImEEED2Ev
FNDA:0,_ZNSaISt6vectorImSaImEEED2Ev
FN:174,_ZNSaIiED2Ev
FNDA:0,_ZNSaIiED2Ev
FN:174,_ZNSaI4EdgeED2Ev
FNDA:0,_ZNSaI4EdgeED2Ev
DA:156,0
DA:156,0
DA:156,0
DA:159,0
DA:160,0
DA:159,0
DA:160,0
DA:159,0
DA:160,0
DA:159,0
DA:160,0
DA:174,0
DA:174,0
DA:174,0
DA:174,0
DA:174,0
end_of_record
SF:/usr/include/c++/11/bits/move.h
FN:49,_ZSt11__addressofIKZN6TarjanclEP5GraphEUliE0_EPT_RS5_
FNDA:0,_ZSt11__addressofIKZN6TarjanclEP5GraphEUliE0_EPT_RS5_
FN:49,_ZSt11__addressofISt6vectorImSaImEEEPT_RS3_
FNDA:0,_ZSt11__addressofISt6vectorImSaImEEEPT_RS3_
FN:49,_ZSt11__addressofIiEPT_RS0_
FNDA:0,_ZSt11__addressofIiEPT_RS0_
FN:49,_ZSt11__addressofI4EdgeEPT_RS1_
FNDA:0,_ZSt11__addressofI4EdgeEPT_RS1_
FN:77,_ZSt7forwardIRK4EdgeEOT_RNSt16remove_referenceIS3_E4typeE
FNDA:0,_ZSt7forwardIRK4EdgeEOT_RNSt16remove_referenceIS3_E4typeE
FN:77,_ZSt7forwardIiEOT_RNSt16remove_referenceIS0_E4typeE
FNDA:0,_ZSt7forwardIiEOT_RNSt16remove_referenceIS0_E4typeE
FN:77,_ZSt7forwardIZN6TarjanclEP5GraphEUliE0_EOT_RNSt16remove_referenceIS4_E4typeE
FNDA:0,_ZSt7forwardIZN6TarjanclEP5GraphEUliE0_EOT_RNSt16remove_referenceIS4_E4typeE
FN:77,_ZSt7forwardISt6vectorIS0_ImSaImEESaIS2_EEEOT_RNSt16remove_referenceIS5_E4typeE
FNDA:0,_ZSt7forwardISt6vectorIS0_ImSaImEESaIS2_EEEOT_RNSt16remove_referenceIS5_E4typeE
FN:77,_ZSt7forwardIRZN6TarjanclEP5GraphEUliE0_EOT_RNSt16remove_referenceIS5_E4typeE
FNDA:0,_ZSt7forwardIRZN6TarjanclEP5GraphEUliE0_EOT_RNSt16remove_referenceIS5_E4typeE
FN:77,_ZSt7forwardIRKZN6TarjanclEP5GraphEUliE0_EOT_RNSt16remove_referenceIS6_E4typeE
FNDA:0,_ZSt7forwardIRKZN6TarjanclEP5GraphEUliE0_EOT_RNSt16remove_referenceIS6_E4typeE
FN:77,_ZSt7forwardIRKSt6vectorImSaImEEEOT_RNSt16remove_referenceIS5_E4typeE
FNDA:0,_ZSt7forwardIRKSt6vectorImSaImEEEOT_RNSt16remove_referenceIS5_E4typeE
FN:104,_ZSt4moveIR4EdgeEONSt16remove_referenceIT_E4typeEOS3_
FNDA:0,_ZSt4moveIR4EdgeEONSt16remove_referenceIT_E4typeEOS3_
FN:104,_ZSt4moveIRSaISt6vectorImSaImEEEEONSt16remove_referenceIT_E4typeEOS6_
FNDA:0,_ZSt4moveIRSaISt6vectorImSaImEEEEONSt16remove_referenceIT_E4typeEOS6_
FN:104,_ZSt4moveIRSt6vectorIS0_ImSaImEESaIS2_EEEONSt16remove_referenceIT_E4typeEOS7_
FNDA:0,_ZSt4moveIRSt6vectorIS0_ImSaImEESaIS2_EEEONSt16remove_referenceIT_E4typeEOS7_
FN:104,_ZSt4moveIRZN6TarjanclEP5GraphEUlRK4EdgeS5_E_EONSt16remove_referenceIT_E4typeEOS9_
FNDA:0,_ZSt4moveIRZN6TarjanclEP5GraphEUlRK4EdgeS5_E_EONSt16remove_referenceIT_E4typeEOS9_
FN:104,_ZSt4moveIRN9__gnu_cxx5__ops15_Iter_comp_iterIZN6TarjanclEP5GraphEUlRK4EdgeS8_E_EEEONSt16remove_referenceIT_E4typeEOSD_
FNDA:0,_ZSt4moveIRN9__gnu_cxx5__ops15_Iter_comp_iterIZN6TarjanclEP5GraphEUlRK4EdgeS8_E_EEEONSt16remove_referenceIT_E4typeEOSD_
FN:196,_ZSt4swapI4EdgeENSt9enable_ifIXsrSt6__and_IJSt6__not_ISt15__is_tuple_likeIT_EESt21is_move_constructibleIS5_ESt18is_move_assignableIS5_EEE5valueEvE4typeERS5_SF_
FNDA:0,_ZSt4swapI4EdgeENSt9enable_ifIXsrSt6__and_IJSt6__not_ISt15__is_tuple_likeIT_EESt21is_move_constructibleIS5_ESt18is_move_assignableIS5_EEE5valueEvE4typeERS5_SF_
DA:49,0
DA:50,0
DA:49,0
DA:50,0
DA:49,0
DA:50,0
DA:49,0
DA:50,0
DA:77,0
DA:78,0
DA:77,0
DA:78,0
DA:77,0
DA:78,0
DA:77,0
DA:78,0
DA:77,0
DA:78,0
DA:77,0
DA:78,0
DA:77,0
DA:78,0
DA:104,0
DA:105,0
DA:104,0
DA:105,0
DA:104,0
DA:105,0
DA:104,0
DA:105,0
DA:104,0
DA:105,0
DA:196,0
DA:204,0
DA:205,0
DA:206,0
DA:207,0
end_of_record
SF:/usr/include/c++/11/bits/stl_algobase.h
FN:152,_ZSt9iter_swapIN9__gnu_cxx17__normal_iteratorIP4EdgeSt6vectorIS2_SaIS2_EEEES7_EvT_T0_
FNDA:0,_ZSt9iter_swapIN9__gnu_cxx17__normal_iteratorIP4EdgeSt6vectorIS2_SaIS2_EEEES7_EvT_T0_
FN:230,_ZSt3minImERKT_S2_S2_
FNDA:0,_ZSt3minImERKT_S2_S2_
FN:313,_ZSt12__niter_baseIPmET_S1_
FNDA:0,_ZSt12__niter_baseIPmET_S1_
FN:328,_ZSt12__niter_wrapIN9__gnu_cxx17__normal_iteratorIP4EdgeSt6vectorIS2_SaIS2_EEEES3_ET_S8_T0_
FNDA:0,_ZSt12__niter_wrapIN9__gnu_cxx17__normal_iteratorIP4EdgeSt6vectorIS2_SaIS2_EEEES3_ET_S8_T0_
FN:335,_ZSt12__niter_wrapIPmET_RKS1_S1_
FNDA:0,_ZSt12__niter_wrapIPmET_RKS1_S1_
FN:420,_ZNSt11__copy_moveILb0ELb1ESt26random_access_iterator_tagE8__copy_mImEEPT_PKS3_S6_S4_
FNDA:0,_ZNSt11__copy_moveILb0ELb1ESt26random_access_iterator_tagE8__copy_mImEEPT_PKS3_S6_S4_
FN:486,_ZSt14__copy_move_a2ILb0EPKmPmET1_T0_S4_S3_
FNDA:0,_ZSt14__copy_move_a2ILb0EPKmPmET1_T0_S4_S3_
FN:521,_ZSt14__copy_move_a1ILb0EPKmPmET1_T0_S4_S3_
FNDA:0,_ZSt14__copy_move_a1ILb0EPKmPmET1_T0_S4_S3_
FN:527,_ZSt13__copy_move_aILb0EN9__gnu_cxx17__normal_iteratorIPKmSt6vectorImSaImEEEEPmET1_T0_SA_S9_
FNDA:0,_ZSt13__copy_move_aILb0EN9__gnu_cxx17__normal_iteratorIPKmSt6vectorImSaImEEEEPmET1_T0_SA_S9_
FN:611,_ZSt4copyIN9__gnu_cxx17__normal_iteratorIPKmSt6vectorImSaImEEEEPmET0_T_SA_S9_
FNDA:0,_ZSt4copyIN9__gnu_cxx17__normal_iteratorIPKmSt6vectorImSaImEEEEPmET0_T_SA_S9_
FN:714,_ZNSt20__copy_move_backwardILb1ELb0ESt26random_access_iterator_tagE13__copy_move_bIP4EdgeS4_EET0_T_S6_S5_
FNDA:0,_ZNSt20__copy_move_backwardILb1ELb0ESt26random_access_iterator_tagE13__copy_move_bIP4EdgeS4_EET0_T_S6_S5_
FN:750,_ZSt23__copy_move_backward_a2ILb1EP4EdgeS1_ET1_T0_S3_S2_
FNDA:0,_ZSt23__copy_move_backward_a2ILb1EP4EdgeS1_ET1_T0_S3_S2_
FN:768,_ZSt23__copy_move_backward_a1ILb1EP4EdgeS1_ET1_T0_S3_S2_
FNDA:0,_ZSt23__copy_move_backward_a1ILb1EP4EdgeS1_ET1_T0_S3_S2_
FN:796,_ZSt22__copy_move_backward_aILb1EN9__gnu_cxx17__normal_iteratorIP4EdgeSt6vectorIS2_SaIS2_EEEES7_ET1_T0_S9_S8_
FNDA:0,_ZSt22__copy_move_backward_aILb1EN9__gnu_cxx17__normal_iteratorIP4EdgeSt6vectorIS2_SaIS2_EEEES7_ET1_T0_S9_S8_
FN:884,_ZSt13move_backwardIN9__gnu_cxx17__normal_iteratorIP4EdgeSt6vectorIS2_SaIS2_EEEES7_ET0_T_S9_S8_
FNDA:0,_ZSt13move_backwardIN9__gnu_cxx17__normal_iteratorIP4EdgeSt6vectorIS2_SaIS2_EEEES7_ET0_T_S9_S8_
FN:919,_ZSt9__fill_a1IPiiEN9__gnu_cxx11__enable_ifIXsrSt11__is_scalarIT0_E7__valueEvE6__typeET_S8_RKS4_
FNDA:0,_ZSt9__fill_a1IPiiEN9__gnu_cxx11__enable_ifIXsrSt11__is_scalarIT0_E7__valueEvE6__typeET_S8_RKS4_
FN:968,_ZSt8__fill_aIPiiEvT_S1_RKT0_
FNDA:0,_ZSt8__fill_aIPiiEvT_S1_RKT0_
FN:1010,_ZSt17__size_to_integerm
FNDA:0,_ZSt17__size_to_integerm
FN:1109,_ZSt10__fill_n_aIPimiET_S1_T0_RKT1_St26random_access_iterator_tag
FNDA:0,_ZSt10__fill_n_aIPimiET_S1_T0_RKT1_St26random_access_iterator_tag
FN:1144,_ZSt6fill_nIPimiET_S1_T0_RKT1_
FNDA:0,_ZSt6fill_nIPimiET_S1_T0_RKT1_
FN:1514,_ZSt4__lgl
FNDA:0,_ZSt4__lgl
DA:152,0
DA:182,0
DA:184,0
DA:230,0
DA:235,0
DA:236,0
DA:237,0
DA:313,0
DA:315,0
DA:328,0
DA:329,0
DA:335,0
DA:336,0
DA:420,0
DA:429,0
DA:430,0
DA:431,0
DA:432,0
DA:486,0
DA:495,0
DA:521,0
DA:522,0
DA:527,0
DA:529,0
DA:532,0
DA:611,0
DA:620,0
DA:714,0
DA:717,0
DA:718,0
DA:719,0
DA:720,0
DA:750,0
DA:760,0
DA:762,0
DA:768,0
DA:769,0
DA:796,0
DA:798,0
DA:801,0
DA:884,0
DA:894,0
DA:896,0
DA:919,0
DA:922,0
DA:923,0
DA:924,0
DA:925,0
DA:968,0
DA:969,0
DA:1010,0
DA:1109,0
DA:1115,0
DA:1116,0
DA:1120,0
DA:1121,0
DA:1144,0
DA:1149,0
DA:1150,0
DA:1514,0
DA:1515,0
end_of_record
SF:/home/imri/OS-FinalProject/GraphObj/vertex.hpp
end_of_record
TN:
SF:/usr/include/c++/11/iostream
end_of_record
SF:/usr/include/c++/11/bits/stl_tree.h
FN:152,_ZNSt20_Rb_tree_key_compareISt4lessINSt7__cxx1112basic_stringIcSt11char_traitsIcESaIcEEEEEC2ERKS7_
FNDA:2,_ZNSt20_Rb_tree_key_compareISt4lessINSt7__cxx1112basic_stringIcSt11char_traitsIcESaIcEEEEEC2ERKS7_
FN:173,_ZNSt15_Rb_tree_headerC2Ev
FNDA:0,_ZNSt15_Rb_tree_headerC2Ev
FN:206,_ZNSt15_Rb_tree_header8_M_resetEv
FNDA:0,_ZNSt15_Rb_tree_header8_M_resetEv
FN:234,_ZNSt13_Rb_tree_nodeISt4pairIKNSt7__cxx1112basic_stringIcSt11char_traitsIcESaIcEEEP12MST_StrategyEE9_M_valptrEv
FNDA:30,_ZNSt13_Rb_tree_nodeISt4pairIKNSt7__cxx1112basic_stringIcSt11char_traitsIcESaIcEEEP12MST_StrategyEE9_M_valptrEv
FN:238,_ZNKSt13_Rb_tree_nodeISt4pairIKNSt7__cxx1112basic_stringIcSt11char_traitsIcESaIcEEEP12MST_StrategyEE9_M_valptrEv
FNDA:33,_ZNKSt13_Rb_tree_nodeISt4pairIKNSt7__cxx1112basic_stringIcSt11char_traitsIcESaIcEEEP12MST_StrategyEE9_M_valptrEv
FN:273,_ZNSt17_Rb_tree_iteratorISt4pairIKNSt7__cxx1112basic_stringIcSt11char_traitsIcESaIcEEEP12MST_StrategyEEC2EPSt18_Rb_tree_node_base
FNDA:51,_ZNSt17_Rb_tree_iteratorISt4pairIKNSt7__cxx1112basic_stringIcSt11char_traitsIcESaIcEEEP12MST_StrategyEEC2EPSt18_Rb_tree_node_base
FN:277,_ZNKSt17_Rb_tree_iteratorISt4pairIKNSt7__cxx1112basic_stringIcSt11char_traitsIcESaIcEEEP12MST_StrategyEEdeEv
FNDA:14,_ZNKSt17_Rb_tree_iteratorISt4pairIKNSt7__cxx1112basic_stringIcSt11char_traitsIcESaIcEEEP12MST_StrategyEEdeEv
FN:285,_ZNSt17_Rb_tree_iteratorISt4pairIKNSt7__cxx1112basic_stringIcSt11char_traitsIcESaIcEEEP12MST_StrategyEEppEv
FNDA:4,_ZNSt17_Rb_tree_iteratorISt4pairIKNSt7__cxx1112basic_stringIcSt11char_traitsIcESaIcEEEP12MST_StrategyEEppEv
FN:300,_ZNSt17_Rb_tree_iteratorISt4pairIKNSt7__cxx1112basic_stringIcSt11char_traitsIcESaIcEEEP12MST_StrategyEEmmEv
FNDA:0,_ZNSt17_Rb_tree_iteratorISt4pairIKNSt7__cxx1112basic_stringIcSt11char_traitsIcESaIcEEEP12MST_StrategyEEmmEv
FN:315,_ZSteqRKSt17_Rb_tree_iteratorISt4pairIKNSt7__cxx1112basic_stringIcSt11char_traitsIcESaIcEEEP12MST_StrategyEESD_
FNDA:12,_ZSteqRKSt17_Rb_tree_iteratorISt4pairIKNSt7__cxx1112basic_stringIcSt11char_traitsIcESaIcEEEP12MST_StrategyEESD_
FN:320,_ZStneRKSt17_Rb_tree_iteratorISt4pairIKNSt7__cxx1112basic_stringIcSt11char_traitsIcESaIcEEEP12MST_StrategyEESD_
FNDA:6,_ZStneRKSt17_Rb_tree_iteratorISt4pairIKNSt7__cxx1112basic_stringIcSt11char_traitsIcESaIcEEEP12MST_StrategyEESD_
FN:350,_ZNSt23_Rb_tree_const_iteratorISt4pairIKNSt7__cxx1112basic_stringIcSt11char_traitsIcESaIcEEEP12MST_StrategyEEC2ERKSt17_Rb_tree_iteratorISA_E
FNDA:8,_ZNSt23_Rb_tree_const_iteratorISt4pairIKNSt7__cxx1112basic_stringIcSt11char_traitsIcESaIcEEEP12MST_StrategyEEC2ERKSt17_Rb_tree_iteratorISA_E
FN:354,_ZNKSt23_Rb_tree_const_iteratorISt4pairIKNSt7__cxx1112basic_stringIcSt11char_traitsIcESaIcEEEP12MST_StrategyEE13_M_const_castEv
FNDA:8,_ZNKSt23_Rb_tree_const_iteratorISt4pairIKNSt7__cxx1112basic_stringIcSt11char_traitsIcESaIcEEEP12MST_StrategyEE13_M_const_castEv
FN:523,_ZNSt8_Rb_treeINSt7__cxx1112basic_stringIcSt11char_traitsIcESaIcEEESt4pairIKS5_P12MST_StrategyESt10_Select1stISA_ESt4lessIS5_ESaISA_EE11_Alloc_nodeC2ERSG_
FNDA:2,_ZNSt8_Rb_treeINSt7__cxx1112basic_stringIcSt11char_traitsIcESaIcEEESt4pairIKS5_P12MST_StrategyESt10_Select1stISA_ESt4lessIS5_ESaISA_EE11_Alloc_nodeC2ERSG_
FN:528,_ZNKSt8_Rb_treeINSt7__cxx1112basic_stringIcSt11char_traitsIcESaIcEEESt4pairIKS5_P12MST_StrategyESt10_Select1stISA_ESt4lessIS5_ESaISA_EE11_Alloc_nodeclIRKSA_EEPSt13_Rb_tree_nodeISA_EOT_
FNDA:8,_ZNKSt8_Rb_treeINSt7__cxx1112basic_stringIcSt11char_traitsIcESaIcEEESt4pairIKS5_P12MST_StrategyESt10_Select1stISA_ESt4lessIS5_ESaISA_EE11_Alloc_nodeclIRKSA_EEPSt13_Rb_tree_nodeISA_EOT_
FN:547,_ZNSt8_Rb_treeINSt7__cxx1112basic_stringIcSt11char_traitsIcESaIcEEESt4pairIKS5_P12MST_StrategyESt10_Select1stISA_ESt4lessIS5_ESaISA_EE21_M_get_Node_allocatorEv
FNDA:32,_ZNSt8_Rb_treeINSt7__cxx1112basic_stringIcSt11char_traitsIcESaIcEEESt4pairIKS5_P12MST_StrategyESt10_Select1stISA_ESt4lessIS5_ESaISA_EE21_M_get_Node_allocatorEv
FN:560,_ZNSt8_Rb_treeINSt7__cxx1112basic_stringIcSt11char_traitsIcESaIcEEESt4pairIKS5_P12MST_StrategyESt10_Select1stISA_ESt4lessIS5_ESaISA_EE11_M_get_nodeEv
FNDA:8,_ZNSt8_Rb_treeINSt7__cxx1112basic_stringIcSt11char_traitsIcESaIcEEESt4pairIKS5_P12MST_StrategyESt10_Select1stISA_ESt4lessIS5_ESaISA_EE11_M_get_nodeEv
FN:564,_ZNSt8_Rb_treeINSt7__cxx1112basic_stringIcSt11char_traitsIcESaIcEEESt4pairIKS5_P12MST_StrategyESt10_Select1stISA_ESt4lessIS5_ESaISA_EE11_M_put_nodeEPSt13_Rb_tree_nodeISA_E
FNDA:8,_ZNSt8_Rb_treeINSt7__cxx1112basic_stringIcSt11char_traitsIcESaIcEEESt4pairIKS5_P12MST_StrategyESt10_Select1stISA_ESt4lessIS5_ESaISA_EE11_M_put_nodeEPSt13_Rb_tree_nodeISA_E
FN:590,_ZNSt8_Rb_treeINSt7__cxx1112basic_stringIcSt11char_traitsIcESaIcEEESt4pairIKS5_P12MST_StrategyESt10_Select1stISA_ESt4lessIS5_ESaISA_EE17_M_construct_nodeIJRKSt21piecewise_construct_tSt5tupleIJRS7_EESL_IJEEEEEvPSt13_Rb_tree_nodeISA_EDpOT_
FNDA:0,_ZNSt8_Rb_treeINSt7__cxx1112basic_stringIcSt11char_traitsIcESaIcEEESt4pairIKS5_P12MST_StrategyESt10_Select1stISA_ESt4lessIS5_ESaISA_EE17_M_construct_nodeIJRKSt21piecewise_construct_tSt5tupleIJRS7_EESL_IJEEEEEvPSt13_Rb_tree_nodeISA_EDpOT_
FN:590,_ZNSt8_Rb_treeINSt7__cxx1112basic_stringIcSt11char_traitsIcESaIcEEESt4pairIKS5_P12MST_StrategyESt10_Select1stISA_ESt4lessIS5_ESaISA_EE17_M_construct_nodeIJRKSt21piecewise_construct_tSt5tupleIJOS5_EESL_IJEEEEEvPSt13_Rb_tree_nodeISA_EDpOT_
FNDA:0,_ZNSt8_Rb_treeINSt7__cxx1112basic_stringIcSt11char_traitsIcESaIcEEESt4pairIKS5_P12MST_StrategyESt10_Select1stISA_ESt4lessIS5_ESaISA_EE17_M_construct_nodeIJRKSt21piecewise_construct_tSt5tupleIJOS5_EESL_IJEEEEEvPSt13_Rb_tree_nodeISA_EDpOT_
FN:590,_ZNSt8_Rb_treeINSt7__cxx1112basic_stringIcSt11char_traitsIcESaIcEEESt4pairIKS5_P12MST_StrategyESt10_Select1stISA_ESt4lessIS5_ESaISA_EE17_M_construct_nodeIJRKSA_EEEvPSt13_Rb_tree_nodeISA_EDpOT_
FNDA:8,_ZNSt8_Rb_treeINSt7__cxx1112basic_stringIcSt11char_traitsIcESaIcEEESt4pairIKS5_P12MST_StrategyESt10_Select1stISA_ESt4lessIS5_ESaISA_EE17_M_construct_nodeIJRKSA_EEEvPSt13_Rb_tree_nodeISA_EDpOT_
FN:609,_ZNSt8_Rb_treeINSt7__cxx1112basic_stringIcSt11char_traitsIcESaIcEEESt4pairIKS5_P12MST_StrategyESt10_Select1stISA_ESt4lessIS5_ESaISA_EE14_M_create_nodeIJRKSA_EEEPSt13_Rb_tree_nodeISA_EDpOT_
FNDA:8,_ZNSt8_Rb_treeINSt7__cxx1112basic_stringIcSt11char_traitsIcESaIcEEESt4pairIKS5_P12MST_StrategyESt10_Select1stISA_ESt4lessIS5_ESaISA_EE14_M_create_nodeIJRKSA_EEEPSt13_Rb_tree_nodeISA_EDpOT_
FN:609,_ZNSt8_Rb_treeINSt7__cxx1112basic_stringIcSt11char_traitsIcESaIcEEESt4pairIKS5_P12MST_StrategyESt10_Select1stISA_ESt4lessIS5_ESaISA_EE14_M_create_nodeIJRKSt21piecewise_construct_tSt5tupleIJOS5_EESL_IJEEEEEPSt13_Rb_tree_nodeISA_EDpOT_
FNDA:0,_ZNSt8_Rb_treeINSt7__cxx1112basic_stringIcSt11char_traitsIcESaIcEEESt4pairIKS5_P12MST_StrategyESt10_Select1stISA_ESt4lessIS5_ESaISA_EE14_M_create_nodeIJRKSt21piecewise_construct_tSt5tupleIJOS5_EESL_IJEEEEEPSt13_Rb_tree_nodeISA_EDpOT_
FN:609,_ZNSt8_Rb_treeINSt7__cxx1112basic_stringIcSt11char_traitsIcESaIcEEESt4pairIKS5_P12MST_StrategyESt10_Select1stISA_ESt4lessIS5_ESaISA_EE14_M_create_nodeIJRKSt21piecewise_construct_tSt5tupleIJRS7_EESL_IJEEEEEPSt13_Rb_tree_nodeISA_EDpOT_
FNDA:0,_ZNSt8_Rb_treeINSt7__cxx1112basic_stringIcSt11char_traitsIcESaIcEEESt4pairIKS5_P12MST_StrategyESt10_Select1stISA_ESt4lessIS5_ESaISA_EE14_M_create_nodeIJRKSt21piecewise_construct_tSt5tupleIJRS7_EESL_IJEEEEEPSt13_Rb_tree_nodeISA_EDpOT_
FN:618,_ZNSt8_Rb_treeINSt7__cxx1112basic_stringIcSt11char_traitsIcESaIcEEESt4pairIKS5_P12MST_StrategyESt10_Select1stISA_ESt4lessIS5_ESaISA_EE15_M_destroy_nodeEPSt13_Rb_tree_nodeISA_E
FNDA:8,_ZNSt8_Rb_treeINSt7__cxx1112basic_stringIcSt11char_traitsIcESaIcEEESt4pairIKS5_P12MST_StrategyESt10_Select1stISA_ESt4lessIS5_ESaISA_EE15_M_destroy_nodeEPSt13_Rb_tree_nodeISA_E
FN:629,_ZNSt8_Rb_treeINSt7__cxx1112basic_stringIcSt11char_traitsIcESaIcEEESt4pairIKS5_P12MST_StrategyESt10_Select1stISA_ESt4lessIS5_ESaISA_EE12_M_drop_nodeEPSt13_Rb_tree_nodeISA_E
FNDA:8,_ZNSt8_Rb_treeINSt7__cxx1112basic_stringIcSt11char_traitsIcESaIcEEESt4pairIKS5_P12MST_StrategyESt10_Select1stISA_ESt4lessIS5_ESaISA_EE12_M_drop_nodeEPSt13_Rb_tree_nodeISA_E
FN:700,_ZNSt8_Rb_treeINSt7__cxx1112basic_stringIcSt11char_traitsIcESaIcEEESt4pairIKS5_P12MST_StrategyESt10_Select1stISA_ESt4lessIS5_ESaISA_EE13_Rb_tree_implISE_Lb1EEC2ERKSE_OSaISt13_Rb_tree_nodeISA_EE
FNDA:2,_ZNSt8_Rb_treeINSt7__cxx1112basic_stringIcSt11char_traitsIcESaIcEEESt4pairIKS5_P12MST_StrategyESt10_Select1stISA_ESt4lessIS5_ESaISA_EE13_Rb_tree_implISE_Lb1EEC2ERKSE_OSaISt13_Rb_tree_nodeISA_EE
FN:718,_ZNSt8_Rb_treeINSt7__cxx1112basic_stringIcSt11char_traitsIcESaIcEEESt4pairIKS5_P12MST_StrategyESt10_Select1stISA_ESt4lessIS5_ESaISA_EE11_M_leftmostEv
FNDA:0,_ZNSt8_Rb_treeINSt7__cxx1112basic_stringIcSt11char_traitsIcESaIcEEESt4pairIKS5_P12MST_StrategyESt10_Select1stISA_ESt4lessIS5_ESaISA_EE11_M_leftmostEv
FN:726,_ZNSt8_Rb_treeINSt7__cxx1112basic_stringIcSt11char_traitsIcESaIcEEESt4pairIKS5_P12MST_StrategyESt10_Select1stISA_ESt4lessIS5_ESaISA_EE12_M_rightmostEv
FNDA:8,_ZNSt8_Rb_treeINSt7__cxx1112basic_stringIcSt11char_traitsIcESaIcEEESt4pairIKS5_P12MST_StrategyESt10_Select1stISA_ESt4lessIS5_ESaISA_EE12_M_rightmostEv
FN:734,_ZNKSt8_Rb_treeINSt7__cxx1112basic_stringIcSt11char_traitsIcESaIcEEESt4pairIKS5_P12MST_StrategyESt10_Select1stISA_ESt4lessIS5_ESaISA_EE9_M_mbeginEv
FNDA:14,_ZNKSt8_Rb_treeINSt7__cxx1112basic_stringIcSt11char_traitsIcESaIcEEESt4pairIKS5_P12MST_StrategyESt10_Select1stISA_ESt4lessIS5_ESaISA_EE9_M_mbeginEv
FN:738,_ZNSt8_Rb_treeINSt7__cxx1112basic_stringIcSt11char_traitsIcESaIcEEESt4pairIKS5_P12MST_StrategyESt10_Select1stISA_ESt4lessIS5_ESaISA_EE8_M_beginEv
FNDA:14,_ZNSt8_Rb_treeINSt7__cxx1112basic_stringIcSt11char_traitsIcESaIcEEESt4pairIKS5_P12MST_StrategyESt10_Select1stISA_ESt4lessIS5_ESaISA_EE8_M_beginEv
FN:749,_ZNSt8_Rb_treeINSt7__cxx1112basic_stringIcSt11char_traitsIcESaIcEEESt4pairIKS5_P12MST_StrategyESt10_Select1stISA_ESt4lessIS5_ESaISA_EE6_M_endEv
FNDA:28,_ZNSt8_Rb_treeINSt7__cxx1112basic_stringIcSt11char_traitsIcESaIcEEESt4pairIKS5_P12MST_StrategyESt10_Select1stISA_ESt4lessIS5_ESaISA_EE6_M_endEv
FN:757,_ZNSt8_Rb_treeINSt7__cxx1112basic_stringIcSt11char_traitsIcESaIcEEESt4pairIKS5_P12MST_StrategyESt10_Select1stISA_ESt4lessIS5_ESaISA_EE6_S_keyEPKSt13_Rb_tree_nodeISA_E
FNDA:33,_ZNSt8_Rb_treeINSt7__cxx1112basic_stringIcSt11char_traitsIcESaIcEEESt4pairIKS5_P12MST_StrategyESt10_Select1stISA_ESt4lessIS5_ESaISA_EE6_S_keyEPKSt13_Rb_tree_nodeISA_E
FN:779,_ZNSt8_Rb_treeINSt7__cxx1112basic_stringIcSt11char_traitsIcESaIcEEESt4pairIKS5_P12MST_StrategyESt10_Select1stISA_ESt4lessIS5_ESaISA_EE7_S_leftEPSt18_Rb_tree_node_base
FNDA:23,_ZNSt8_Rb_treeINSt7__cxx1112basic_stringIcSt11char_traitsIcESaIcEEESt4pairIKS5_P12MST_StrategyESt10_Select1stISA_ESt4lessIS5_ESaISA_EE7_S_leftEPSt18_Rb_tree_node_base
FN:787,_ZNSt8_Rb_treeINSt7__cxx1112basic_stringIcSt11char_traitsIcESaIcEEESt4pairIKS5_P12MST_StrategyESt10_Select1stISA_ESt4lessIS5_ESaISA_EE8_S_rightEPSt18_Rb_tree_node_base
FNDA:13,_ZNSt8_Rb_treeINSt7__cxx1112basic_stringIcSt11char_traitsIcESaIcEEESt4pairIKS5_P12MST_StrategyESt10_Select1stISA_ESt4lessIS5_ESaISA_EE8_S_rightEPSt18_Rb_tree_node_base
FN:795,_ZNSt8_Rb_treeINSt7__cxx1112basic_stringIcSt11char_traitsIcESaIcEEESt4pairIKS5_P12MST_StrategyESt10_Select1stISA_ESt4lessIS5_ESaISA_EE6_S_keyEPKSt18_Rb_tree_node_base
FNDA:13,_ZNSt8_Rb_treeINSt7__cxx1112basic_stringIcSt11char_traitsIcESaIcEEESt4pairIKS5_P12MST_StrategyESt10_Select1stISA_ESt4lessIS5_ESaISA_EE6_S_keyEPKSt18_Rb_tree_node_base
FN:931,_ZNSt8_Rb_treeINSt7__cxx1112basic_stringIcSt11char_traitsIcESaIcEEESt4pairIKS5_P12MST_StrategyESt10_Select1stISA_ESt4lessIS5_ESaISA_EEC2ERKSE_RKSF_
FNDA:2,_ZNSt8_Rb_treeINSt7__cxx1112basic_stringIcSt11char_traitsIcESaIcEEESt4pairIKS5_P12MST_StrategyESt10_Select1stISA_ESt4lessIS5_ESaISA_EEC2ERKSE_RKSF_
FN:983,_ZNSt8_Rb_treeINSt7__cxx1112basic_stringIcSt11char_traitsIcESaIcEEESt4pairIKS5_P12MST_StrategyESt10_Select1stISA_ESt4lessIS5_ESaISA_EED2Ev
FNDA:2,_ZNSt8_Rb_treeINSt7__cxx1112basic_stringIcSt11char_traitsIcESaIcEEESt4pairIKS5_P12MST_StrategyESt10_Select1stISA_ESt4lessIS5_ESaISA_EED2Ev
FN:991,_ZNKSt8_Rb_treeINSt7__cxx1112basic_stringIcSt11char_traitsIcESaIcEEESt4pairIKS5_P12MST_StrategyESt10_Select1stISA_ESt4lessIS5_ESaISA_EE8key_compEv
FNDA:5,_ZNKSt8_Rb_treeINSt7__cxx1112basic_stringIcSt11char_traitsIcESaIcEEESt4pairIKS5_P12MST_StrategyESt10_Select1stISA_ESt4lessIS5_ESaISA_EE8key_compEv
FN:995,_ZNSt8_Rb_treeINSt7__cxx1112basic_stringIcSt11char_traitsIcESaIcEEESt4pairIKS5_P12MST_StrategyESt10_Select1stISA_ESt4lessIS5_ESaISA_EE5beginEv
FNDA:7,_ZNSt8_Rb_treeINSt7__cxx1112basic_stringIcSt11char_traitsIcESaIcEEESt4pairIKS5_P12MST_StrategyESt10_Select1stISA_ESt4lessIS5_ESaISA_EE5beginEv
FN:1003,_ZNSt8_Rb_treeINSt7__cxx1112basic_stringIcSt11char_traitsIcESaIcEEESt4pairIKS5_P12MST_StrategyESt10_Select1stISA_ESt4lessIS5_ESaISA_EE3endEv
FNDA:16,_ZNSt8_Rb_treeINSt7__cxx1112basic_stringIcSt11char_traitsIcESaIcEEESt4pairIKS5_P12MST_StrategyESt10_Select1stISA_ESt4lessIS5_ESaISA_EE3endEv
FN:1031,_ZNKSt8_Rb_treeINSt7__cxx1112basic_stringIcSt11char_traitsIcESaIcEEESt4pairIKS5_P12MST_StrategyESt10_Select1stISA_ESt4lessIS5_ESaISA_EE4sizeEv
FNDA:8,_ZNKSt8_Rb_treeINSt7__cxx1112basic_stringIcSt11char_traitsIcESaIcEEESt4pairIKS5_P12MST_StrategyESt10_Select1stISA_ESt4lessIS5_ESaISA_EE4sizeEv
FN:1098,_ZNSt8_Rb_treeINSt7__cxx1112basic_stringIcSt11char_traitsIcESaIcEEESt4pairIKS5_P12MST_StrategyESt10_Select1stISA_ESt4lessIS5_ESaISA_EE22_M_insert_range_uniqueIPKSA_EENSt9enable_ifIXsrSt7is_sameISA_NSt15iterator_traitsIT_E10value_typeEE5valueEvE4typeESN_SN_
FNDA:2,_ZNSt8_Rb_treeINSt7__cxx1112basic_stringIcSt11char_traitsIcESaIcEEESt4pairIKS5_P12MST_StrategyESt10_Select1stISA_ESt4lessIS5_ESaISA_EE22_M_insert_range_uniqueIPKSA_EENSt9enable_ifIXsrSt7is_sameISA_NSt15iterator_traitsIT_E10value_typeEE5valueEvE4typeESN_SN_
FN:1269,_ZNSt8_Rb_treeINSt7__cxx1112basic_stringIcSt11char_traitsIcESaIcEEESt4pairIKS5_P12MST_StrategyESt10_Select1stISA_ESt4lessIS5_ESaISA_EE11lower_boundERS7_
FNDA:5,_ZNSt8_Rb_treeINSt7__cxx1112basic_stringIcSt11char_traitsIcESaIcEEESt4pairIKS5_P12MST_StrategyESt10_Select1stISA_ESt4lessIS5_ESaISA_EE11lower_boundERS7_
FN:1771,_ZNSt8_Rb_treeINSt7__cxx1112basic_stringIcSt11char_traitsIcESaIcEEESt4pairIKS5_P12MST_StrategyESt10_Select1stISA_ESt4lessIS5_ESaISA_EE10_M_insert_IRKSA_NSG_11_Alloc_nodeEEESt17_Rb_tree_iteratorISA_EPSt18_Rb_tree_node_baseSO_OT_RT0_
FNDA:8,_ZNSt8_Rb_treeINSt7__cxx1112basic_stringIcSt11char_traitsIcESaIcEEESt4pairIKS5_P12MST_StrategyESt10_Select1stISA_ESt4lessIS5_ESaISA_EE10_M_insert_IRKSA_NSG_11_Alloc_nodeEEESt17_Rb_tree_iteratorISA_EPSt18_Rb_tree_node_baseSO_OT_RT0_
FN:1883,_ZNSt8_Rb_treeINSt7__cxx1112basic_stringIcSt11char_traitsIcESaIcEEESt4pairIKS5_P12MST_StrategyESt10_Select1stISA_ESt4lessIS5_ESaISA_EE8_M_eraseEPSt13_Rb_tree_nodeISA_E
FNDA:10,_ZNSt8_Rb_treeINSt7__cxx1112basic_stringIcSt11char_traitsIcESaIcEEESt4pairIKS5_P12MST_StrategyESt10_Select1stISA_ESt4lessIS5_ESaISA_EE8_M_eraseEPSt13_Rb_tree_nodeISA_E
FN:1900,_ZNSt8_Rb_treeINSt7__cxx1112basic_stringIcSt11char_traitsIcESaIcEEESt4pairIKS5_P12MST_StrategyESt10_Select1stISA_ESt4lessIS5_ESaISA_EE14_M_lower_boundEPSt13_Rb_tree_nodeISA_EPSt18_Rb_tree_node_baseRS7_
FNDA:6,_ZNSt8_Rb_treeINSt7__cxx1112basic_stringIcSt11char_traitsIcESaIcEEESt4pairIKS5_P12MST_StrategyESt10_Select1stISA_ESt4lessIS5_ESaISA_EE14_M_lower_boundEPSt13_Rb_tree_nodeISA_EPSt18_Rb_tree_node_baseRS7_
FN:2061,_ZNSt8_Rb_treeINSt7__cxx1112basic_stringIcSt11char_traitsIcESaIcEEESt4pairIKS5_P12MST_StrategyESt10_Select1stISA_ESt4lessIS5_ESaISA_EE24_M_get_insert_unique_posERS7_
FNDA:6,_ZNSt8_Rb_treeINSt7__cxx1112basic_stringIcSt11char_traitsIcESaIcEEESt4pairIKS5_P12MST_StrategyESt10_Select1stISA_ESt4lessIS5_ESaISA_EE24_M_get_insert_unique_posERS7_
FN:2163,_ZNSt8_Rb_treeINSt7__cxx1112basic_stringIcSt11char_traitsIcESaIcEEESt4pairIKS5_P12MST_StrategyESt10_Select1stISA_ESt4lessIS5_ESaISA_EE29_M_get_insert_hint_unique_posESt23_Rb_tree_const_iteratorISA_ERS7_
FNDA:8,_ZNSt8_Rb_treeINSt7__cxx1112basic_stringIcSt11char_traitsIcESaIcEEESt4pairIKS5_P12MST_StrategyESt10_Select1stISA_ESt4lessIS5_ESaISA_EE29_M_get_insert_hint_unique_posESt23_Rb_tree_const_iteratorISA_ERS7_
FN:2224,_ZNSt8_Rb_treeINSt7__cxx1112basic_stringIcSt11char_traitsIcESaIcEEESt4pairIKS5_P12MST_StrategyESt10_Select1stISA_ESt4lessIS5_ESaISA_EE17_M_insert_unique_IRKSA_NSG_11_Alloc_nodeEEESt17_Rb_tree_iteratorISA_ESt23_Rb_tree_const_iteratorISA_EOT_RT0_
FNDA:8,_ZNSt8_Rb_treeINSt7__cxx1112basic_stringIcSt11char_traitsIcESaIcEEESt4pairIKS5_P12MST_StrategyESt10_Select1stISA_ESt4lessIS5_ESaISA_EE17_M_insert_unique_IRKSA_NSG_11_Alloc_nodeEEESt17_Rb_tree_iteratorISA_ESt23_Rb_tree_const_iteratorISA_EOT_RT0_
FN:2330,_ZNSt8_Rb_treeINSt7__cxx1112basic_stringIcSt11char_traitsIcESaIcEEESt4pairIKS5_P12MST_StrategyESt10_Select1stISA_ESt4lessIS5_ESaISA_EE14_M_insert_nodeEPSt18_Rb_tree_node_baseSI_PSt13_Rb_tree_nodeISA_E
FNDA:0,_ZNSt8_Rb_treeINSt7__cxx1112basic_stringIcSt11char_traitsIcESaIcEEESt4pairIKS5_P12MST_StrategyESt10_Select1stISA_ESt4lessIS5_ESaISA_EE14_M_insert_nodeEPSt18_Rb_tree_node_baseSI_PSt13_Rb_tree_nodeISA_E
FN:2428,_ZNSt8_Rb_treeINSt7__cxx1112basic_stringIcSt11char_traitsIcESaIcEEESt4pairIKS5_P12MST_StrategyESt10_Select1stISA_ESt4lessIS5_ESaISA_EE22_M_emplace_hint_uniqueIJRKSt21piecewise_construct_tSt5tupleIJOS5_EESL_IJEEEEESt17_Rb_tree_iteratorISA_ESt23_Rb_tree_const_iteratorISA_EDpOT_
FNDA:0,_ZNSt8_Rb_treeINSt7__cxx1112basic_stringIcSt11char_traitsIcESaIcEEESt4pairIKS5_P12MST_StrategyESt10_Select1stISA_ESt4lessIS5_ESaISA_EE22_M_emplace_hint_uniqueIJRKSt21piecewise_construct_tSt5tupleIJOS5_EESL_IJEEEEESt17_Rb_tree_iteratorISA_ESt23_Rb_tree_const_iteratorISA_EDpOT_
FN:2428,_ZNSt8_Rb_treeINSt7__cxx1112basic_stringIcSt11char_traitsIcESaIcEEESt4pairIKS5_P12MST_StrategyESt10_Select1stISA_ESt4lessIS5_ESaISA_EE22_M_emplace_hint_uniqueIJRKSt21piecewise_construct_tSt5tupleIJRS7_EESL_IJEEEEESt17_Rb_tree_iteratorISA_ESt23_Rb_tree_const_iteratorISA_EDpOT_
FNDA:0,_ZNSt8_Rb_treeINSt7__cxx1112basic_stringIcSt11char_traitsIcESaIcEEESt4pairIKS5_P12MST_StrategyESt10_Select1stISA_ESt4lessIS5_ESaISA_EE22_M_emplace_hint_uniqueIJRKSt21piecewise_construct_tSt5tupleIJRS7_EESL_IJEEEEESt17_Rb_tree_iteratorISA_ESt23_Rb_tree_const_iteratorISA_EDpOT_
FN:2520,_ZNSt8_Rb_treeINSt7__cxx1112basic_stringIcSt11char_traitsIcESaIcEEESt4pairIKS5_P12MST_StrategyESt10_Select1stISA_ESt4lessIS5_ESaISA_EE4findERS7_
FNDA:1,_ZNSt8_Rb_treeINSt7__cxx1112basic_stringIcSt11char_traitsIcESaIcEEESt4pairIKS5_P12MST_StrategyESt10_Select1stISA_ESt4lessIS5_ESaISA_EE4findERS7_
DA:152,2
DA:154,2
DA:173,0
DA:174,0
DA:175,0
DA:176,0
DA:177,0
DA:206,0
DA:208,0
DA:209,0
DA:210,0
DA:211,0
DA:212,0
DA:234,30
DA:235,30
DA:238,33
DA:239,33
DA:273,51
DA:274,51
DA:277,14
DA:278,14
DA:285,4
DA:287,4
DA:288,4
DA:300,0
DA:302,0
DA:303,0
DA:315,12
DA:316,12
DA:320,6
DA:321,6
DA:350,8
DA:351,8
DA:354,8
DA:355,8
DA:523,2
DA:524,2
DA:528,8
DA:529,8
DA:547,32
DA:548,32
DA:560,8
DA:561,8
DA:564,8
DA:565,8
DA:590,8
DA:594,8
DA:595,8
DA:599,0
DA:601,0
DA:602,0
DA:603,0
DA:605,8
DA:590,0
DA:594,0
DA:595,0
DA:599,0
DA:601,0
DA:602,0
DA:603,0
DA:605,0
DA:590,0
DA:594,0
DA:595,0
DA:599,0
DA:601,0
DA:602,0
DA:603,0
DA:605,0
DA:609,8
DA:611,8
DA:612,8
DA:613,8
DA:609,0
DA:611,0
DA:612,0
DA:613,0
DA:609,0
DA:611,0
DA:612,0
DA:613,0
DA:618,8
DA:623,8
DA:624,8
DA:626,8
DA:629,8
DA:631,8
DA:632,8
DA:633,8
DA:700,2
DA:701,2
DA:702,2
DA:718,0
DA:719,0
DA:726,8
DA:727,8
DA:734,14
DA:735,14
DA:738,14
DA:739,14
DA:749,28
DA:750,28
DA:757,33
DA:775,33
DA:779,23
DA:780,23
DA:787,13
DA:788,13
DA:795,13
DA:796,13
DA:931,2
DA:933,2
DA:983,2
DA:984,2
DA:991,5
DA:992,5
DA:995,7
DA:996,7
DA:1003,16
DA:1004,16
DA:1031,8
DA:1032,8
DA:1098,2
DA:1100,2
DA:1101,10
DA:1102,8
DA:1103,2
DA:1269,5
DA:1270,5
DA:1771,8
DA:1780,8
DA:1781,16
DA:1784,8
DA:1786,8
DA:1787,8
DA:1788,8
DA:1789,8
DA:1883,10
DA:1887,18
DA:1889,8
DA:1890,8
DA:1891,8
DA:1892,8
DA:1894,10
DA:1900,6
DA:1904,20
DA:1905,14
DA:1906,9
DA:1908,5
DA:1909,6
DA:2061,6
DA:2065,6
DA:2066,6
DA:2067,6
DA:2068,12
DA:2070,6
DA:2071,6
DA:2072,6
DA:2074,6
DA:2075,6
DA:2077,6
DA:2078,6
DA:2080,0
DA:2082,0
DA:2083,0
DA:2084,0
DA:2163,8
DA:2167,8
DA:2171,8
DA:2173,8
DA:2174,8
DA:2175,2
DA:2177,6
DA:2179,0
DA:2182,0
DA:2183,0
DA:2184,0
DA:2185,0
DA:2187,0
DA:2188,0
DA:2190,0
DA:2193,0
DA:2195,0
DA:2198,0
DA:2199,0
DA:2200,0
DA:2201,0
DA:2203,0
DA:2204,0
DA:2206,0
DA:2209,0
DA:2213,0
DA:2224,8
DA:2234,8
DA:2236,8
DA:2237,8
DA:2239,8
DA:2240,0
DA:2330,0
DA:2333,0
DA:2334,0
DA:2337,0
DA:2338,0
DA:2339,0
DA:2340,0
DA:2428,0
DA:2431,0
DA:2435,0
DA:2437,0
DA:2438,0
DA:2440,0
DA:2441,0
DA:2443,0
DA:2445,0
DA:2446,0
DA:2428,0
DA:2431,0
DA:2435,0
DA:2437,0
DA:2438,0
DA:2440,0
DA:2441,0
DA:2443,0
DA:2445,0
DA:2446,0
DA:2520,1
DA:2523,1
DA:2524,2
DA:2525,1
DA:2526,3
end_of_record
SF:/usr/include/c++/11/bits/allocator.h
FN:156,_ZNSaISt4pairIKNSt7__cxx1112basic_stringIcSt11char_traitsIcESaIcEEEP12MST_StrategyEEC2Ev
FNDA:2,_ZNSaISt4pairIKNSt7__cxx1112basic_stringIcSt11char_traitsIcESaIcEEEP12MST_StrategyEEC2Ev
FN:159,_ZNSaISt13_Rb_tree_nodeISt4pairIKNSt7__cxx1112basic_stringIcSt11char_traitsIcESaIcEEEP12MST_StrategyEEEC2ERKSC_
FNDA:2,_ZNSaISt13_Rb_tree_nodeISt4pairIKNSt7__cxx1112basic_stringIcSt11char_traitsIcESaIcEEEP12MST_StrategyEEEC2ERKSC_
FN:159,_ZNSaISt4pairIKNSt7__cxx1112basic_stringIcSt11char_traitsIcESaIcEEEP12MST_StrategyEEC2ERKSA_
FNDA:2,_ZNSaISt4pairIKNSt7__cxx1112basic_stringIcSt11char_traitsIcESaIcEEEP12MST_StrategyEEC2ERKSA_
FN:169,_ZNSaISt13_Rb_tree_nodeISt4pairIKNSt7__cxx1112basic_stringIcSt11char_traitsIcESaIcEEEP12MST_StrategyEEEC2ISA_EERKSaIT_E
FNDA:2,_ZNSaISt13_Rb_tree_nodeISt4pairIKNSt7__cxx1112basic_stringIcSt11char_traitsIcESaIcEEEP12MST_StrategyEEEC2ISA_EERKSaIT_E
FN:174,_ZNSaISt13_Rb_tree_nodeISt4pairIKNSt7__cxx1112basic_stringIcSt11char_traitsIcESaIcEEEP12MST_StrategyEEED2Ev
FNDA:4,_ZNSaISt13_Rb_tree_nodeISt4pairIKNSt7__cxx1112basic_stringIcSt11char_traitsIcESaIcEEEP12MST_StrategyEEED2Ev
FN:174,_ZNSaISt4pairIKNSt7__cxx1112basic_stringIcSt11char_traitsIcESaIcEEEP12MST_StrategyEED2Ev
FNDA:4,_ZNSaISt4pairIKNSt7__cxx1112basic_stringIcSt11char_traitsIcESaIcEEEP12MST_StrategyEED2Ev
DA:156,2
DA:159,2
DA:160,2
DA:159,2
DA:160,2
DA:169,2
DA:174,4
DA:174,4
end_of_record
SF:/usr/include/c++/11/bits/move.h
FN:77,_ZSt7forwardISt5tupleIJONSt7__cxx1112basic_stringIcSt11char_traitsIcESaIcEEEEEEOT_RNSt16remove_referenceIS9_E4typeE
FNDA:0,_ZSt7forwardISt5tupleIJONSt7__cxx1112basic_stringIcSt11char_traitsIcESaIcEEEEEEOT_RNSt16remove_referenceIS9_E4typeE
FN:77,_ZSt7forwardIDnEOT_RNSt16remove_referenceIS0_E4typeE
FNDA:0,_ZSt7forwardIDnEOT_RNSt16remove_referenceIS0_E4typeE
FN:77,_ZSt7forwardIRA5_KcEOT_RNSt16remove_referenceIS3_E4typeE
FNDA:2,_ZSt7forwardIRA5_KcEOT_RNSt16remove_referenceIS3_E4typeE
FN:77,_ZSt7forwardIRA8_KcEOT_RNSt16remove_referenceIS3_E4typeE
FNDA:4,_ZSt7forwardIRA8_KcEOT_RNSt16remove_referenceIS3_E4typeE
FN:77,_ZSt7forwardIRA7_KcEOT_RNSt16remove_referenceIS3_E4typeE
FNDA:2,_ZSt7forwardIRA7_KcEOT_RNSt16remove_referenceIS3_E4typeE
FN:77,_ZSt7forwardINSt7__cxx1112basic_stringIcSt11char_traitsIcESaIcEEEEOT_RNSt16remove_referenceIS6_E4typeE
FNDA:26,_ZSt7forwardINSt7__cxx1112basic_stringIcSt11char_traitsIcESaIcEEEEOT_RNSt16remove_referenceIS6_E4typeE
FN:77,_ZSt7forwardIRKSt21piecewise_construct_tEOT_RNSt16remove_referenceIS3_E4typeE
FNDA:0,_ZSt7forwardIRKSt21piecewise_construct_tEOT_RNSt16remove_referenceIS3_E4typeE
FN:77,_ZSt7forwardIRKNSt7__cxx1112basic_stringIcSt11char_traitsIcESaIcEEEEOT_RNSt16remove_referenceIS8_E4typeE
FNDA:0,_ZSt7forwardIRKNSt7__cxx1112basic_stringIcSt11char_traitsIcESaIcEEEEOT_RNSt16remove_referenceIS8_E4typeE
FN:77,_ZSt7forwardISt5tupleIJEEEOT_RNSt16remove_referenceIS2_E4typeE
FNDA:0,_ZSt7forwardISt5tupleIJEEEOT_RNSt16remove_referenceIS2_E4typeE
FN:77,_ZSt7forwardISt5tupleIJRKNSt7__cxx1112basic_stringIcSt11char_traitsIcESaIcEEEEEEOT_RNSt16remove_referenceISA_E4typeE
FNDA:0,_ZSt7forwardISt5tupleIJRKNSt7__cxx1112basic_stringIcSt11char_traitsIcESaIcEEEEEEOT_RNSt16remove_referenceISA_E4typeE
FN:77,_ZSt7forwardIRKSt4pairIKNSt7__cxx1112basic_stringIcSt11char_traitsIcESaIcEEEP12MST_StrategyEEOT_RNSt16remove_referenceISD_E4typeE
FNDA:56,_ZSt7forwardIRKSt4pairIKNSt7__cxx1112basic_stringIcSt11char_traitsIcESaIcEEEP12MST_StrategyEEOT_RNSt16remove_referenceISD_E4typeE
FN:77,_ZSt7forwardIRPSt18_Rb_tree_node_baseEOT_RNSt16remove_referenceIS3_E4typeE
FNDA:0,_ZSt7forwardIRPSt18_Rb_tree_node_baseEOT_RNSt16remove_referenceIS3_E4typeE
FN:77,_ZSt7forwardIRPSt13_Rb_tree_nodeISt4pairIKNSt7__cxx1112basic_stringIcSt11char_traitsIcESaIcEEEP12MST_StrategyEEEOT_RNSt16remove_referenceISF_E4typeE
FNDA:6,_ZSt7forwardIRPSt13_Rb_tree_nodeISt4pairIKNSt7__cxx1112basic_stringIcSt11char_traitsIcESaIcEEEP12MST_StrategyEEEOT_RNSt16remove_referenceISF_E4typeE
FN:77,_ZSt7forwardIONSt7__cxx1112basic_stringIcSt11char_traitsIcESaIcEEEEOT_RNSt16remove_referenceIS7_E4typeE
FNDA:0,_ZSt7forwardIONSt7__cxx1112basic_stringIcSt11char_traitsIcESaIcEEEEOT_RNSt16remove_referenceIS7_E4typeE
FN:104,_ZSt4moveIRSaISt13_Rb_tree_nodeISt4pairIKNSt7__cxx1112basic_stringIcSt11char_traitsIcESaIcEEEP12MST_StrategyEEEEONSt16remove_referenceIT_E4typeEOSG_
FNDA:2,_ZSt4moveIRSaISt13_Rb_tree_nodeISt4pairIKNSt7__cxx1112basic_stringIcSt11char_traitsIcESaIcEEEP12MST_StrategyEEEEONSt16remove_referenceIT_E4typeEOSG_
FN:104,_ZSt4moveIRNSt7__cxx1112basic_stringIcSt11char_traitsIcESaIcEEEEONSt16remove_referenceIT_E4typeEOS8_
FNDA:0,_ZSt4moveIRNSt7__cxx1112basic_stringIcSt11char_traitsIcESaIcEEEEONSt16remove_referenceIT_E4typeEOS8_
FN:104,_ZSt4moveIRSaIcEEONSt16remove_referenceIT_E4typeEOS3_
FNDA:0,_ZSt4moveIRSaIcEEONSt16remove_referenceIT_E4typeEOS3_
DA:77,0
DA:78,0
DA:77,0
DA:78,0
DA:77,6
DA:78,6
DA:77,0
DA:78,0
DA:77,56
DA:78,56
DA:77,0
DA:78,0
DA:77,0
DA:78,0
DA:77,0
DA:78,0
DA:77,0
DA:78,0
DA:77,26
DA:78,26
DA:77,2
DA:78,2
DA:77,4
DA:78,4
DA:77,2
DA:78,2
DA:77,0
DA:78,0
DA:104,2
DA:105,2
DA:104,0
DA:105,0
DA:104,0
DA:105,0
end_of_record
SF:/usr/include/c++/11/bits/std_mutex.h
FN:98,_ZNSt5mutex4lockEv
FNDA:0,_ZNSt5mutex4lockEv
FN:115,_ZNSt5mutex6unlockEv
FNDA:0,_ZNSt5mutex6unlockEv
FN:228,_ZNSt10lock_guardISt5mutexEC2ERS0_
FNDA:0,_ZNSt10lock_guardISt5mutexEC2ERS0_
FN:234,_ZNSt10lock_guardISt5mutexED2Ev
FNDA:0,_ZNSt10lock_guardISt5mutexED2Ev
DA:98,0
DA:100,0
DA:103,0
DA:104,0
DA:105,0
DA:115,0
DA:118,0
DA:119,0
DA:228,0
DA:229,0
DA:234,0
DA:235,0
end_of_record
SF:/usr/include/c++/11/ext/type_traits.h
FN:152,_ZN9__gnu_cxx17__is_null_pointerIcEEbPT_
FNDA:0,_ZN9__gnu_cxx17__is_null_pointerIcEEbPT_
FN:152,_ZN9__gnu_cxx17__is_null_pointerIKcEEbPT_
FNDA:0,_ZN9__gnu_cxx17__is_null_pointerIKcEEbPT_
DA:152,0
DA:153,0
DA:152,0
DA:153,0
end_of_record
SF:/usr/include/c++/11/tuple
FN:192,_ZNSt10_Head_baseILm0ERKNSt7__cxx1112basic_stringIcSt11char_traitsIcESaIcEEELb0EEC2ES7_
FNDA:0,_ZNSt10_Head_baseILm0ERKNSt7__cxx1112basic_stringIcSt11char_traitsIcESaIcEEELb0EEC2ES7_
FN:199,_ZNSt10_Head_baseILm0EONSt7__cxx1112basic_stringIcSt11char_traitsIcESaIcEEELb0EEC2IS5_EEOT_
FNDA:0,_ZNSt10_Head_baseILm0EONSt7__cxx1112basic_stringIcSt11char_traitsIcESaIcEEELb0EEC2IS5_EEOT_
FN:233,_ZNSt10_Head_baseILm0EONSt7__cxx1112basic_stringIcSt11char_traitsIcESaIcEEELb0EE7_M_headERS7_
FNDA:0,_ZNSt10_Head_baseILm0EONSt7__cxx1112basic_stringIcSt11char_traitsIcESaIcEEELb0EE7_M_headERS7_
FN:233,_ZNSt10_Head_baseILm0ERKNSt7__cxx1112basic_stringIcSt11char_traitsIcESaIcEEELb0EE7_M_headERS8_
FNDA:0,_ZNSt10_Head_baseILm0ERKNSt7__cxx1112basic_stringIcSt11char_traitsIcESaIcEEELb0EE7_M_headERS8_
FN:424,_ZNSt11_Tuple_implILm0EJRKNSt7__cxx1112basic_stringIcSt11char_traitsIcESaIcEEEEE7_M_headERS8_
FNDA:0,_ZNSt11_Tuple_implILm0EJRKNSt7__cxx1112basic_stringIcSt11char_traitsIcESaIcEEEEE7_M_headERS8_
FN:424,_ZNSt11_Tuple_implILm0EJONSt7__cxx1112basic_stringIcSt11char_traitsIcESaIcEEEEE7_M_headERS7_
FNDA:0,_ZNSt11_Tuple_implILm0EJONSt7__cxx1112basic_stringIcSt11char_traitsIcESaIcEEEEE7_M_headERS7_
FN:434,_ZNSt11_Tuple_implILm0EJRKNSt7__cxx1112basic_stringIcSt11char_traitsIcESaIcEEEEEC2ES7_
FNDA:0,_ZNSt11_Tuple_implILm0EJRKNSt7__cxx1112basic_stringIcSt11char_traitsIcESaIcEEEEEC2ES7_
FN:440,_ZNSt11_Tuple_implILm0EJONSt7__cxx1112basic_stringIcSt11char_traitsIcESaIcEEEEEC2IS5_EEOT_
FNDA:0,_ZNSt11_Tuple_implILm0EJONSt7__cxx1112basic_stringIcSt11char_traitsIcESaIcEEEEEC2IS5_EEOT_
FN:454,_ZNSt11_Tuple_implILm0EJRKNSt7__cxx1112basic_stringIcSt11char_traitsIcESaIcEEEEEC2EOS8_
FNDA:0,_ZNSt11_Tuple_implILm0EJRKNSt7__cxx1112basic_stringIcSt11char_traitsIcESaIcEEEEEC2EOS8_
FN:454,_ZNSt11_Tuple_implILm0EJONSt7__cxx1112basic_stringIcSt11char_traitsIcESaIcEEEEEC2EOS7_
FNDA:0,_ZNSt11_Tuple_implILm0EJONSt7__cxx1112basic_stringIcSt11char_traitsIcESaIcEEEEEC2EOS7_
FN:727,_ZNSt5tupleIJRKNSt7__cxx1112basic_stringIcSt11char_traitsIcESaIcEEEEEC2ILb1ELb1EEES7_
FNDA:0,_ZNSt5tupleIJRKNSt7__cxx1112basic_stringIcSt11char_traitsIcESaIcEEEEEC2ILb1ELb1EEES7_
FN:742,_ZNSt5tupleIJONSt7__cxx1112basic_stringIcSt11char_traitsIcESaIcEEEEEC2IJS5_ELb1ELb1EEEDpOT_
FNDA:0,_ZNSt5tupleIJONSt7__cxx1112basic_stringIcSt11char_traitsIcESaIcEEEEEC2IJS5_ELb1ELb1EEEDpOT_
FN:756,_ZNSt5tupleIJRKNSt7__cxx1112basic_stringIcSt11char_traitsIcESaIcEEEEEC2EOS8_
FNDA:0,_ZNSt5tupleIJRKNSt7__cxx1112basic_stringIcSt11char_traitsIcESaIcEEEEEC2EOS8_
FN:756,_ZNSt5tupleIJONSt7__cxx1112basic_stringIcSt11char_traitsIcESaIcEEEEEC2EOS7_
FNDA:0,_ZNSt5tupleIJONSt7__cxx1112basic_stringIcSt11char_traitsIcESaIcEEEEEC2EOS7_
FN:1377,_ZSt12__get_helperILm0EONSt7__cxx1112basic_stringIcSt11char_traitsIcESaIcEEEJEERT0_RSt11_Tuple_implIXT_EJS7_DpT1_EE
FNDA:0,_ZSt12__get_helperILm0EONSt7__cxx1112basic_stringIcSt11char_traitsIcESaIcEEEJEERT0_RSt11_Tuple_implIXT_EJS7_DpT1_EE
FN:1377,_ZSt12__get_helperILm0ERKNSt7__cxx1112basic_stringIcSt11char_traitsIcESaIcEEEJEERT0_RSt11_Tuple_implIXT_EJS8_DpT1_EE
FNDA:0,_ZSt12__get_helperILm0ERKNSt7__cxx1112basic_stringIcSt11char_traitsIcESaIcEEEJEERT0_RSt11_Tuple_implIXT_EJS8_DpT1_EE
FN:1393,_ZSt3getILm0EJONSt7__cxx1112basic_stringIcSt11char_traitsIcESaIcEEEEERNSt13tuple_elementIXT_ESt5tupleIJDpT0_EEE4typeERSB_
FNDA:0,_ZSt3getILm0EJONSt7__cxx1112basic_stringIcSt11char_traitsIcESaIcEEEEERNSt13tuple_elementIXT_ESt5tupleIJDpT0_EEE4typeERSB_
FN:1393,_ZSt3getILm0EJRKNSt7__cxx1112basic_stringIcSt11char_traitsIcESaIcEEEEERNSt13tuple_elementIXT_ESt5tupleIJDpT0_EEE4typeERSC_
FNDA:0,_ZSt3getILm0EJRKNSt7__cxx1112basic_stringIcSt11char_traitsIcESaIcEEEEERNSt13tuple_elementIXT_ESt5tupleIJDpT0_EEE4typeERSC_
FN:1617,_ZSt16forward_as_tupleIJNSt7__cxx1112basic_stringIcSt11char_traitsIcESaIcEEEEESt5tupleIJDpOT_EES9_
FNDA:0,_ZSt16forward_as_tupleIJNSt7__cxx1112basic_stringIcSt11char_traitsIcESaIcEEEEESt5tupleIJDpOT_EES9_
FN:1804,_ZNSt4pairIKNSt7__cxx1112basic_stringIcSt11char_traitsIcESaIcEEEP12MST_StrategyEC2IJRS6_EJEEESt21piecewise_construct_tSt5tupleIJDpT_EESD_IJDpT0_EE
FNDA:0,_ZNSt4pairIKNSt7__cxx1112basic_stringIcSt11char_traitsIcESaIcEEEP12MST_StrategyEC2IJRS6_EJEEESt21piecewise_construct_tSt5tupleIJDpT_EESD_IJDpT0_EE
FN:1804,_ZNSt4pairIKNSt7__cxx1112basic_stringIcSt11char_traitsIcESaIcEEEP12MST_StrategyEC2IJOS5_EJEEESt21piecewise_construct_tSt5tupleIJDpT_EESD_IJDpT0_EE
FNDA:0,_ZNSt4pairIKNSt7__cxx1112basic_stringIcSt11char_traitsIcESaIcEEEP12MST_StrategyEC2IJOS5_EJEEESt21piecewise_construct_tSt5tupleIJDpT_EESD_IJDpT0_EE
FN:1816,_ZNSt4pairIKNSt7__cxx1112basic_stringIcSt11char_traitsIcESaIcEEEP12MST_StrategyEC2IJOS5_EJLm0EEJEJEEERSt5tupleIJDpT_EERSC_IJDpT1_EESt12_Index_tupleIJXspT0_EEESL_IJXspT2_EEE
FNDA:0,_ZNSt4pairIKNSt7__cxx1112basic_stringIcSt11char_traitsIcESaIcEEEP12MST_StrategyEC2IJOS5_EJLm0EEJEJEEERSt5tupleIJDpT_EERSC_IJDpT1_EESt12_Index_tupleIJXspT0_EEESL_IJXspT2_EEE
FN:1816,_ZNSt4pairIKNSt7__cxx1112basic_stringIcSt11char_traitsIcESaIcEEEP12MST_StrategyEC2IJRS6_EJLm0EEJEJEEERSt5tupleIJDpT_EERSC_IJDpT1_EESt12_Index_tupleIJXspT0_EEESL_IJXspT2_EEE
FNDA:0,_ZNSt4pairIKNSt7__cxx1112basic_stringIcSt11char_traitsIcESaIcEEEP12MST_StrategyEC2IJRS6_EJLm0EEJEJEEERSt5tupleIJDpT_EERSC_IJDpT1_EESt12_Index_tupleIJXspT0_EEESL_IJXspT2_EEE
DA:192,0
DA:193,0
DA:199,0
DA:200,0
DA:233,0
DA:233,0
DA:424,0
DA:424,0
DA:434,0
DA:435,0
DA:436,0
DA:440,0
DA:441,0
DA:442,0
DA:454,0
DA:456,0
DA:457,0
DA:454,0
DA:456,0
DA:457,0
DA:727,0
DA:729,0
DA:742,0
DA:744,0
DA:756,0
DA:756,0
DA:1377,0
DA:1378,0
DA:1377,0
DA:1378,0
DA:1393,0
DA:1394,0
DA:1393,0
DA:1394,0
DA:1617,0
DA:1618,0
DA:1804,0
DA:1809,0
DA:1810,0
DA:1804,0
DA:1809,0
DA:1810,0
DA:1816,0
DA:1819,0
DA:1820,0
DA:1821,0
DA:1816,0
DA:1819,0
DA:1820,0
DA:1821,0
end_of_record
SF:/usr/include/c++/11/ext/aligned_buffer.h
FN:64,_ZN9__gnu_cxx16__aligned_membufISt4pairIKNSt7__cxx1112basic_stringIcSt11char_traitsIcESaIcEEEP12MST_StrategyEE7_M_addrEv
FNDA:30,_ZN9__gnu_cxx16__aligned_membufISt4pairIKNSt7__cxx1112basic_stringIcSt11char_traitsIcESaIcEEEP12MST_StrategyEE7_M_addrEv
FN:68,_ZNK9__gnu_cxx16__aligned_membufISt4pairIKNSt7__cxx1112basic_stringIcSt11char_traitsIcESaIcEEEP12MST_StrategyEE7_M_addrEv
FNDA:33,_ZNK9__gnu_cxx16__aligned_membufISt4pairIKNSt7__cxx1112basic_stringIcSt11char_traitsIcESaIcEEEP12MST_StrategyEE7_M_addrEv
FN:72,_ZN9__gnu_cxx16__aligned_membufISt4pairIKNSt7__cxx1112basic_stringIcSt11char_traitsIcESaIcEEEP12MST_StrategyEE6_M_ptrEv
FNDA:30,_ZN9__gnu_cxx16__aligned_membufISt4pairIKNSt7__cxx1112basic_stringIcSt11char_traitsIcESaIcEEEP12MST_StrategyEE6_M_ptrEv
FN:76,_ZNK9__gnu_cxx16__aligned_membufISt4pairIKNSt7__cxx1112basic_stringIcSt11char_traitsIcESaIcEEEP12MST_StrategyEE6_M_ptrEv
FNDA:33,_ZNK9__gnu_cxx16__aligned_membufISt4pairIKNSt7__cxx1112basic_stringIcSt11char_traitsIcESaIcEEEP12MST_StrategyEE6_M_ptrEv
DA:64,30
DA:65,30
DA:68,33
DA:69,33
DA:72,30
DA:73,30
DA:76,33
DA:77,33
end_of_record
SF:/usr/include/x86_64-linux-gnu/c++/11/bits/gthr-default.h
FN:300,_ZL18__gthread_active_pv
FNDA:0,_ZL18__gthread_active_pv
FN:746,_ZL20__gthread_mutex_lockP15pthread_mutex_t
FNDA:0,_ZL20__gthread_mutex_lockP15pthread_mutex_t
FN:776,_ZL22__gthread_mutex_unlockP15pthread_mutex_t
FNDA:0,_ZL22__gthread_mutex_unlockP15pthread_mutex_t
DA:300,0
DA:302,0
DA:746,0
DA:748,0
DA:749,0
DA:751,0
DA:776,0
DA:778,0
DA:779,0
DA:781,0
end_of_record
SF:/usr/include/c++/11/bits/basic_string.tcc
FN:206,_ZNSt7__cxx1112basic_stringIcSt11char_traitsIcESaIcEE12_M_constructIPcEEvT_S7_St20forward_iterator_tag
FNDA:0,_ZNSt7__cxx1112basic_stringIcSt11char_traitsIcESaIcEE12_M_constructIPcEEvT_S7_St20forward_iterator_tag
FN:206,_ZNSt7__cxx1112basic_stringIcSt11char_traitsIcESaIcEE12_M_constructIPKcEEvT_S8_St20forward_iterator_tag
FNDA:0,_ZNSt7__cxx1112basic_stringIcSt11char_traitsIcESaIcEE12_M_constructIPKcEEvT_S8_St20forward_iterator_tag
DA:206,0
DA:211,0
DA:212,0
DA:215,0
DA:217,0
DA:219,0
DA:220,0
DA:225,0
DA:226,0
DA:228,0
DA:229,0
DA:232,0
DA:233,0
DA:206,0
DA:211,0
DA:212,0
DA:215,0
DA:217,0
DA:219,0
DA:220,0
DA:225,0
DA:226,0
DA:228,0
DA:229,0
DA:232,0
DA:233,0
end_of_record
SF:/usr/include/c++/11/ext/alloc_traits.h
FN:97,_ZN9__gnu_cxx14__alloc_traitsISaIcEcE17_S_select_on_copyERKS1_
FNDA:0,_ZN9__gnu_cxx14__alloc_traitsISaIcEcE17_S_select_on_copyERKS1_
DA:97,0
DA:98,0
end_of_record
SF:/home/imri/OS-FinalProject/MST/Boruvka.hpp
end_of_record
SF:/usr/include/c++/11/bits/stl_iterator_base_funcs.h
FN:98,_ZSt10__distanceIPcENSt15iterator_traitsIT_E15difference_typeES2_S2_St26random_access_iterator_tag
FNDA:0,_ZSt10__distanceIPcENSt15iterator_traitsIT_E15difference_typeES2_S2_St26random_access_iterator_tag
FN:98,_ZSt10__distanceIPKcENSt15iterator_traitsIT_E15difference_typeES3_S3_St26random_access_iterator_tag
FNDA:0,_ZSt10__distanceIPKcENSt15iterator_traitsIT_E15difference_typeES3_S3_St26random_access_iterator_tag
FN:138,_ZSt8distanceIPcENSt15iterator_traitsIT_E15difference_typeES2_S2_
FNDA:0,_ZSt8distanceIPcENSt15iterator_traitsIT_E15difference_typeES2_S2_
FN:138,_ZSt8distanceIPKcENSt15iterator_traitsIT_E15difference_typeES3_S3_
FNDA:0,_ZSt8distanceIPKcENSt15iterator_traitsIT_E15difference_typeES3_S3_
DA:98,0
DA:104,0
DA:98,0
DA:104,0
DA:138,0
DA:141,0
DA:142,0
DA:138,0
DA:141,0
DA:142,0
end_of_record
SF:/home/imri/OS-FinalProject/MST/Kruskal.hpp
end_of_record
SF:/usr/include/c++/11/bits/char_traits.h
FN:106,_ZN9__gnu_cxx11char_traitsIcE2eqERKcS3_
FNDA:0,_ZN9__gnu_cxx11char_traitsIcE2eqERKcS3_
FN:167,_ZN9__gnu_cxx11char_traitsIcE6lengthEPKc
FNDA:0,_ZN9__gnu_cxx11char_traitsIcE6lengthEPKc
FN:393,_ZNSt11char_traitsIcE6lengthEPKc
FNDA:0,_ZNSt11char_traitsIcE6lengthEPKc
FN:429,_ZNSt11char_traitsIcE4copyEPcPKcm
FNDA:0,_ZNSt11char_traitsIcE4copyEPcPKcm
DA:106,0
DA:107,0
DA:167,0
DA:170,0
DA:171,0
DA:172,0
DA:173,0
DA:290,0
DA:393,0
DA:396,0
DA:397,0
DA:399,0
DA:429,0
DA:431,0
DA:432,0
DA:437,0
end_of_record
SF:/usr/include/c++/11/new
FN:174,_ZnwmPv
FNDA:0,_ZnwmPv
FN:180,_ZdlPvS_
FNDA:0,_ZdlPvS_
DA:174,0
DA:175,0
DA:180,0
end_of_record
SF:/home/imri/OS-FinalProject/MST/MST_Factory.cpp
FN:12,_ZN11MST_Factory11getInstanceEv
FNDA:1,_ZN11MST_Factory11getInstanceEv
FN:26,_ZN11MST_Factory9createMSTENSt7__cxx1112basic_stringIcSt11char_traitsIcESaIcEEE
FNDA:1,_ZN11MST_Factory9createMSTENSt7__cxx1112basic_stringIcSt11char_traitsIcESaIcEEE
FN:36,_ZN11MST_Factory7cleanUpEv
FNDA:1,_ZN11MST_Factory7cleanUpEv
DA:12,1
DA:14,1
DA:16,1
DA:17,1
DA:18,1
DA:19,1
DA:20,1
DA:21,1
DA:23,1
DA:26,1
DA:28,1
DA:29,1
DA:31,2
DA:33,0
DA:34,1
DA:36,1
DA:38,1
DA:39,1
DA:41,1
DA:42,1
DA:43,5
DA:45,4
DA:46,4
DA:49,1
end_of_record
SF:/home/imri/OS-FinalProject/MST/Prim.hpp
end_of_record
SF:/usr/include/c++/11/bits/alloc_traits.h
FN:463,_ZNSt16allocator_traitsISaISt13_Rb_tree_nodeISt4pairIKNSt7__cxx1112basic_stringIcSt11char_traitsIcESaIcEEEP12MST_StrategyEEEE8allocateERSD_m
FNDA:8,_ZNSt16allocator_traitsISaISt13_Rb_tree_nodeISt4pairIKNSt7__cxx1112basic_stringIcSt11char_traitsIcESaIcEEEP12MST_StrategyEEEE8allocateERSD_m
FN:495,_ZNSt16allocator_traitsISaISt13_Rb_tree_nodeISt4pairIKNSt7__cxx1112basic_stringIcSt11char_traitsIcESaIcEEEP12MST_StrategyEEEE10deallocateERSD_PSC_m
FNDA:8,_ZNSt16allocator_traitsISaISt13_Rb_tree_nodeISt4pairIKNSt7__cxx1112basic_stringIcSt11char_traitsIcESaIcEEEP12MST_StrategyEEEE10deallocateERSD_PSC_m
FN:511,_ZNSt16allocator_traitsISaISt13_Rb_tree_nodeISt4pairIKNSt7__cxx1112basic_stringIcSt11char_traitsIcESaIcEEEP12MST_StrategyEEEE9constructISB_JRKSB_EEEvRSD_PT_DpOT0_
FNDA:8,_ZNSt16allocator_traitsISaISt13_Rb_tree_nodeISt4pairIKNSt7__cxx1112basic_stringIcSt11char_traitsIcESaIcEEEP12MST_StrategyEEEE9constructISB_JRKSB_EEEvRSD_PT_DpOT0_
FN:511,_ZNSt16allocator_traitsISaISt13_Rb_tree_nodeISt4pairIKNSt7__cxx1112basic_stringIcSt11char_traitsIcESaIcEEEP12MST_StrategyEEEE9constructISB_JRKSt21piecewise_construct_tSt5tupleIJRS8_EESJ_IJEEEEEvRSD_PT_DpOT0_
FNDA:0,_ZNSt16allocator_traitsISaISt13_Rb_tree_nodeISt4pairIKNSt7__cxx1112basic_stringIcSt11char_traitsIcESaIcEEEP12MST_StrategyEEEE9constructISB_JRKSt21piecewise_construct_tSt5tupleIJRS8_EESJ_IJEEEEEvRSD_PT_DpOT0_
FN:511,_ZNSt16allocator_traitsISaISt13_Rb_tree_nodeISt4pairIKNSt7__cxx1112basic_stringIcSt11char_traitsIcESaIcEEEP12MST_StrategyEEEE9constructISB_JRKSt21piecewise_construct_tSt5tupleIJOS7_EESJ_IJEEEEEvRSD_PT_DpOT0_
FNDA:0,_ZNSt16allocator_traitsISaISt13_Rb_tree_nodeISt4pairIKNSt7__cxx1112basic_stringIcSt11char_traitsIcESaIcEEEP12MST_StrategyEEEE9constructISB_JRKSt21piecewise_construct_tSt5tupleIJOS7_EESJ_IJEEEEEvRSD_PT_DpOT0_
FN:531,_ZNSt16allocator_traitsISaISt13_Rb_tree_nodeISt4pairIKNSt7__cxx1112basic_stringIcSt11char_traitsIcESaIcEEEP12MST_StrategyEEEE7destroyISB_EEvRSD_PT_
FNDA:8,_ZNSt16allocator_traitsISaISt13_Rb_tree_nodeISt4pairIKNSt7__cxx1112basic_stringIcSt11char_traitsIcESaIcEEEP12MST_StrategyEEEE7destroyISB_EEvRSD_PT_
FN:562,_ZNSt16allocator_traitsISaIcEE37select_on_container_copy_constructionERKS0_
FNDA:0,_ZNSt16allocator_traitsISaIcEE37select_on_container_copy_constructionERKS0_
DA:463,8
DA:464,8
DA:495,8
DA:496,8
DA:511,8
DA:516,8
DA:520,8
DA:511,0
DA:516,0
DA:520,0
DA:511,0
DA:516,0
DA:520,0
DA:531,8
DA:535,8
DA:539,8
DA:562,0
DA:563,0
end_of_record
SF:/usr/include/c++/11/bits/stl_pair.h
FN:314,_ZNSt4pairIKNSt7__cxx1112basic_stringIcSt11char_traitsIcESaIcEEEP12MST_StrategyEC2ERKS9_
FNDA:8,_ZNSt4pairIKNSt7__cxx1112basic_stringIcSt11char_traitsIcESaIcEEEP12MST_StrategyEC2ERKS9_
FN:322,_ZNSt4pairIPSt18_Rb_tree_node_baseS1_EC2IRS1_Lb1EEEOT_RKS1_
FNDA:0,_ZNSt4pairIPSt18_Rb_tree_node_baseS1_EC2IRS1_Lb1EEEOT_RKS1_
FN:336,_ZNSt4pairIPSt18_Rb_tree_node_baseS1_EC2IRS1_Lb1EEERKS1_OT_
FNDA:0,_ZNSt4pairIPSt18_Rb_tree_node_baseS1_EC2IRS1_Lb1EEERKS1_OT_
FN:352,_ZNSt4pairIPSt18_Rb_tree_node_baseS1_EC2IRPSt13_Rb_tree_nodeIS_IKNSt7__cxx1112basic_stringIcSt11char_traitsIcESaIcEEEP12MST_StrategyEERS1_Lb1EEEOT_OT0_
FNDA:6,_ZNSt4pairIPSt18_Rb_tree_node_baseS1_EC2IRPSt13_Rb_tree_nodeIS_IKNSt7__cxx1112basic_stringIcSt11char_traitsIcESaIcEEEP12MST_StrategyEERS1_Lb1EEEOT_OT0_
FN:352,_ZNSt4pairIPSt18_Rb_tree_node_baseS1_EC2IRS1_S4_Lb1EEEOT_OT0_
FNDA:0,_ZNSt4pairIPSt18_Rb_tree_node_baseS1_EC2IRS1_S4_Lb1EEEOT_OT0_
FN:352,_ZNSt4pairIKNSt7__cxx1112basic_stringIcSt11char_traitsIcESaIcEEEP12MST_StrategyEC1IRA7_KcDnLb1EEEOT_OT0_
FNDA:2,_ZNSt4pairIKNSt7__cxx1112basic_stringIcSt11char_traitsIcESaIcEEEP12MST_StrategyEC1IRA7_KcDnLb1EEEOT_OT0_
FN:352,_ZNSt4pairIKNSt7__cxx1112basic_stringIcSt11char_traitsIcESaIcEEEP12MST_StrategyEC1IRA8_KcDnLb1EEEOT_OT0_
FNDA:4,_ZNSt4pairIKNSt7__cxx1112basic_stringIcSt11char_traitsIcESaIcEEEP12MST_StrategyEC1IRA8_KcDnLb1EEEOT_OT0_
FN:352,_ZNSt4pairIKNSt7__cxx1112basic_stringIcSt11char_traitsIcESaIcEEEP12MST_StrategyEC1IRA5_KcDnLb1EEEOT_OT0_
FNDA:2,_ZNSt4pairIKNSt7__cxx1112basic_stringIcSt11char_traitsIcESaIcEEEP12MST_StrategyEC1IRA5_KcDnLb1EEEOT_OT0_
DA:314,8
DA:322,0
DA:323,0
DA:336,0
DA:337,0
DA:352,6
DA:353,6
DA:352,0
DA:353,0
DA:352,2
DA:353,2
DA:352,4
DA:353,4
DA:352,2
DA:353,2
end_of_record
SF:/usr/include/c++/11/initializer_list
FN:71,_ZNKSt16initializer_listISt4pairIKNSt7__cxx1112basic_stringIcSt11char_traitsIcESaIcEEEP12MST_StrategyEE4sizeEv
FNDA:2,_ZNKSt16initializer_listISt4pairIKNSt7__cxx1112basic_stringIcSt11char_traitsIcESaIcEEEP12MST_StrategyEE4sizeEv
FN:75,_ZNKSt16initializer_listISt4pairIKNSt7__cxx1112basic_stringIcSt11char_traitsIcESaIcEEEP12MST_StrategyEE5beginEv
FNDA:4,_ZNKSt16initializer_listISt4pairIKNSt7__cxx1112basic_stringIcSt11char_traitsIcESaIcEEEP12MST_StrategyEE5beginEv
FN:79,_ZNKSt16initializer_listISt4pairIKNSt7__cxx1112basic_stringIcSt11char_traitsIcESaIcEEEP12MST_StrategyEE3endEv
FNDA:2,_ZNKSt16initializer_listISt4pairIKNSt7__cxx1112basic_stringIcSt11char_traitsIcESaIcEEEP12MST_StrategyEE3endEv
DA:71,2
DA:75,4
DA:79,2
end_of_record
SF:/home/imri/OS-FinalProject/MST/MST_Strategy.hpp
end_of_record
SF:/usr/include/c++/11/bits/basic_string.h
FN:251,_ZNSt7__cxx1112basic_stringIcSt11char_traitsIcESaIcEE16_M_construct_auxIPcEEvT_S7_St12__false_type
FNDA:0,_ZNSt7__cxx1112basic_stringIcSt11char_traitsIcESaIcEE16_M_construct_auxIPcEEvT_S7_St12__false_type
FN:271,_ZNSt7__cxx1112basic_stringIcSt11char_traitsIcESaIcEE12_M_constructIPcEEvT_S7_
FNDA:0,_ZNSt7__cxx1112basic_stringIcSt11char_traitsIcESaIcEE12_M_constructIPcEEvT_S7_
FN:533,_ZNSt7__cxx1112basic_stringIcSt11char_traitsIcESaIcEEC2IS3_EEPKcRKS3_
FNDA:0,_ZNSt7__cxx1112basic_stringIcSt11char_traitsIcESaIcEEC2IS3_EEPKcRKS3_
FN:6340,_ZStltIcSt11char_traitsIcESaIcEEbRKNSt7__cxx1112basic_stringIT_T0_T1_EESA_
FNDA:38,_ZStltIcSt11char_traitsIcESaIcEEbRKNSt7__cxx1112basic_stringIT_T0_T1_EESA_
DA:251,0
DA:255,0
DA:256,0
DA:271,0
DA:274,0
DA:275,0
DA:533,0
DA:534,0
DA:536,0
DA:539,0
DA:540,0
DA:6340,38
DA:6343,38
end_of_record
SF:/usr/include/c++/11/ext/new_allocator.h
FN:79,_ZN9__gnu_cxx13new_allocatorISt13_Rb_tree_nodeISt4pairIKNSt7__cxx1112basic_stringIcSt11char_traitsIcESaIcEEEP12MST_StrategyEEEC2Ev
FNDA:2,_ZN9__gnu_cxx13new_allocatorISt13_Rb_tree_nodeISt4pairIKNSt7__cxx1112basic_stringIcSt11char_traitsIcESaIcEEEP12MST_StrategyEEEC2Ev
FN:79,_ZN9__gnu_cxx13new_allocatorISt4pairIKNSt7__cxx1112basic_stringIcSt11char_traitsIcESaIcEEEP12MST_StrategyEEC2Ev
FNDA:2,_ZN9__gnu_cxx13new_allocatorISt4pairIKNSt7__cxx1112basic_stringIcSt11char_traitsIcESaIcEEEP12MST_StrategyEEC2Ev
FN:79,_ZN9__gnu_cxx13new_allocatorIcEC2Ev
FNDA:0,_ZN9__gnu_cxx13new_allocatorIcEC2Ev
FN:82,_ZN9__gnu_cxx13new_allocatorISt13_Rb_tree_nodeISt4pairIKNSt7__cxx1112basic_stringIcSt11char_traitsIcESaIcEEEP12MST_StrategyEEEC2ERKSE_
FNDA:2,_ZN9__gnu_cxx13new_allocatorISt13_Rb_tree_nodeISt4pairIKNSt7__cxx1112basic_stringIcSt11char_traitsIcESaIcEEEP12MST_StrategyEEEC2ERKSE_
FN:82,_ZN9__gnu_cxx13new_allocatorIcEC2ERKS1_
FNDA:0,_ZN9__gnu_cxx13new_allocatorIcEC2ERKS1_
FN:82,_ZN9__gnu_cxx13new_allocatorISt4pairIKNSt7__cxx1112basic_stringIcSt11char_traitsIcESaIcEEEP12MST_StrategyEEC2ERKSC_
FNDA:2,_ZN9__gnu_cxx13new_allocatorISt4pairIKNSt7__cxx1112basic_stringIcSt11char_traitsIcESaIcEEEP12MST_StrategyEEC2ERKSC_
FN:89,_ZN9__gnu_cxx13new_allocatorISt13_Rb_tree_nodeISt4pairIKNSt7__cxx1112basic_stringIcSt11char_traitsIcESaIcEEEP12MST_StrategyEEED2Ev
FNDA:4,_ZN9__gnu_cxx13new_allocatorISt13_Rb_tree_nodeISt4pairIKNSt7__cxx1112basic_stringIcSt11char_traitsIcESaIcEEEP12MST_StrategyEEED2Ev
FN:89,_ZN9__gnu_cxx13new_allocatorISt4pairIKNSt7__cxx1112basic_stringIcSt11char_traitsIcESaIcEEEP12MST_StrategyEED2Ev
FNDA:4,_ZN9__gnu_cxx13new_allocatorISt4pairIKNSt7__cxx1112basic_stringIcSt11char_traitsIcESaIcEEEP12MST_StrategyEED2Ev
FN:89,_ZN9__gnu_cxx13new_allocatorIcED2Ev
FNDA:0,_ZN9__gnu_cxx13new_allocatorIcED2Ev
FN:103,_ZN9__gnu_cxx13new_allocatorISt13_Rb_tree_nodeISt4pairIKNSt7__cxx1112basic_stringIcSt11char_traitsIcESaIcEEEP12MST_StrategyEEE8allocateEmPKv
FNDA:8,_ZN9__gnu_cxx13new_allocatorISt13_Rb_tree_nodeISt4pairIKNSt7__cxx1112basic_stringIcSt11char_traitsIcESaIcEEEP12MST_StrategyEEE8allocateEmPKv
FN:132,_ZN9__gnu_cxx13new_allocatorISt13_Rb_tree_nodeISt4pairIKNSt7__cxx1112basic_stringIcSt11char_traitsIcESaIcEEEP12MST_StrategyEEE10deallocateEPSD_m
FNDA:8,_ZN9__gnu_cxx13new_allocatorISt13_Rb_tree_nodeISt4pairIKNSt7__cxx1112basic_stringIcSt11char_traitsIcESaIcEEEP12MST_StrategyEEE10deallocateEPSD_m
FN:160,_ZN9__gnu_cxx13new_allocatorISt13_Rb_tree_nodeISt4pairIKNSt7__cxx1112basic_stringIcSt11char_traitsIcESaIcEEEP12MST_StrategyEEE9constructISC_JRKSC_EEEvPT_DpOT0_
FNDA:8,_ZN9__gnu_cxx13new_allocatorISt13_Rb_tree_nodeISt4pairIKNSt7__cxx1112basic_stringIcSt11char_traitsIcESaIcEEEP12MST_StrategyEEE9constructISC_JRKSC_EEEvPT_DpOT0_
FN:160,_ZN9__gnu_cxx13new_allocatorISt13_Rb_tree_nodeISt4pairIKNSt7__cxx1112basic_stringIcSt11char_traitsIcESaIcEEEP12MST_StrategyEEE9constructISC_JRKSt21piecewise_construct_tSt5tupleIJRS9_EESJ_IJEEEEEvPT_DpOT0_
FNDA:0,_ZN9__gnu_cxx13new_allocatorISt13_Rb_tree_nodeISt4pairIKNSt7__cxx1112basic_stringIcSt11char_traitsIcESaIcEEEP12MST_StrategyEEE9constructISC_JRKSt21piecewise_construct_tSt5tupleIJRS9_EESJ_IJEEEEEvPT_DpOT0_
FN:160,_ZN9__gnu_cxx13new_allocatorISt13_Rb_tree_nodeISt4pairIKNSt7__cxx1112basic_stringIcSt11char_traitsIcESaIcEEEP12MST_StrategyEEE9constructISC_JRKSt21piecewise_construct_tSt5tupleIJOS8_EESJ_IJEEEEEvPT_DpOT0_
FNDA:0,_ZN9__gnu_cxx13new_allocatorISt13_Rb_tree_nodeISt4pairIKNSt7__cxx1112basic_stringIcSt11char_traitsIcESaIcEEEP12MST_StrategyEEE9constructISC_JRKSt21piecewise_construct_tSt5tupleIJOS8_EESJ_IJEEEEEvPT_DpOT0_
FN:166,_ZN9__gnu_cxx13new_allocatorISt13_Rb_tree_nodeISt4pairIKNSt7__cxx1112basic_stringIcSt11char_traitsIcESaIcEEEP12MST_StrategyEEE7destroyISC_EEvPT_
FNDA:8,_ZN9__gnu_cxx13new_allocatorISt13_Rb_tree_nodeISt4pairIKNSt7__cxx1112basic_stringIcSt11char_traitsIcESaIcEEEP12MST_StrategyEEE7destroyISC_EEvPT_
FN:197,_ZNK9__gnu_cxx13new_allocatorISt13_Rb_tree_nodeISt4pairIKNSt7__cxx1112basic_stringIcSt11char_traitsIcESaIcEEEP12MST_StrategyEEE11_M_max_sizeEv
FNDA:8,_ZNK9__gnu_cxx13new_allocatorISt13_Rb_tree_nodeISt4pairIKNSt7__cxx1112basic_stringIcSt11char_traitsIcESaIcEEEP12MST_StrategyEEE11_M_max_sizeEv
DA:79,2
DA:79,2
DA:79,0
DA:82,2
DA:82,0
DA:82,2
DA:89,4
DA:89,4
DA:89,0
DA:103,8
DA:111,8
DA:115,0
DA:116,0
DA:117,0
DA:127,8
DA:132,8
DA:145,8
DA:160,8
DA:162,8
DA:160,0
DA:162,0
DA:160,0
DA:162,0
DA:166,8
DA:168,8
DA:197,8
DA:200,8
end_of_record
SF:/usr/include/c++/11/bits/stl_function.h
FN:399,_ZNKSt4lessINSt7__cxx1112basic_stringIcSt11char_traitsIcESaIcEEEEclERKS5_S8_
FNDA:38,_ZNKSt4lessINSt7__cxx1112basic_stringIcSt11char_traitsIcESaIcEEEEclERKS5_S8_
FN:1174,_ZNKSt10_Select1stISt4pairIKNSt7__cxx1112basic_stringIcSt11char_traitsIcESaIcEEEP12MST_StrategyEEclERKSA_
FNDA:47,_ZNKSt10_Select1stISt4pairIKNSt7__cxx1112basic_stringIcSt11char_traitsIcESaIcEEEP12MST_StrategyEEclERKSA_
DA:399,38
DA:400,38
DA:1174,47
DA:1175,47
end_of_record
SF:/usr/include/c++/11/bits/stl_iterator_base_types.h
FN:238,_ZSt19__iterator_categoryIPcENSt15iterator_traitsIT_E17iterator_categoryERKS2_
FNDA:0,_ZSt19__iterator_categoryIPcENSt15iterator_traitsIT_E17iterator_categoryERKS2_
FN:238,_ZSt19__iterator_categoryIPKcENSt15iterator_traitsIT_E17iterator_categoryERKS3_
FNDA:0,_ZSt19__iterator_categoryIPKcENSt15iterator_traitsIT_E17iterator_categoryERKS3_
DA:238,0
DA:239,0
DA:238,0
DA:239,0
end_of_record
SF:/home/imri/OS-FinalProject/MST/Tarjan.hpp
end_of_record
SF:/usr/include/c++/11/bits/stl_map.h
FN:228,_ZNSt3mapINSt7__cxx1112basic_stringIcSt11char_traitsIcESaIcEEEP12MST_StrategySt4lessIS5_ESaISt4pairIKS5_S7_EEEC2ESt16initializer_listISC_ERKS9_RKSD_
FNDA:2,_ZNSt3mapINSt7__cxx1112basic_stringIcSt11char_traitsIcESaIcEEEP12MST_StrategySt4lessIS5_ESaISt4pairIKS5_S7_EEEC2ESt16initializer_listISC_ERKS9_RKSD_
FN:302,_ZNSt3mapINSt7__cxx1112basic_stringIcSt11char_traitsIcESaIcEEEP12MST_StrategySt4lessIS5_ESaISt4pairIKS5_S7_EEED2Ev
FNDA:2,_ZNSt3mapINSt7__cxx1112basic_stringIcSt11char_traitsIcESaIcEEEP12MST_StrategySt4lessIS5_ESaISt4pairIKS5_S7_EEED2Ev
FN:356,_ZNSt3mapINSt7__cxx1112basic_stringIcSt11char_traitsIcESaIcEEEP12MST_StrategySt4lessIS5_ESaISt4pairIKS5_S7_EEE5beginEv
FNDA:1,_ZNSt3mapINSt7__cxx1112basic_stringIcSt11char_traitsIcESaIcEEEP12MST_StrategySt4lessIS5_ESaISt4pairIKS5_S7_EEE5beginEv
FN:374,_ZNSt3mapINSt7__cxx1112basic_stringIcSt11char_traitsIcESaIcEEEP12MST_StrategySt4lessIS5_ESaISt4pairIKS5_S7_EEE3endEv
FNDA:7,_ZNSt3mapINSt7__cxx1112basic_stringIcSt11char_traitsIcESaIcEEEP12MST_StrategySt4lessIS5_ESaISt4pairIKS5_S7_EEE3endEv
FN:492,_ZNSt3mapINSt7__cxx1112basic_stringIcSt11char_traitsIcESaIcEEEP12MST_StrategySt4lessIS5_ESaISt4pairIKS5_S7_EEEixERSB_
FNDA:1,_ZNSt3mapINSt7__cxx1112basic_stringIcSt11char_traitsIcESaIcEEEP12MST_StrategySt4lessIS5_ESaISt4pairIKS5_S7_EEEixERSB_
FN:512,_ZNSt3mapINSt7__cxx1112basic_stringIcSt11char_traitsIcESaIcEEEP12MST_StrategySt4lessIS5_ESaISt4pairIKS5_S7_EEEixEOS5_
FNDA:4,_ZNSt3mapINSt7__cxx1112basic_stringIcSt11char_traitsIcESaIcEEEP12MST_StrategySt4lessIS5_ESaISt4pairIKS5_S7_EEEixEOS5_
FN:1142,_ZNKSt3mapINSt7__cxx1112basic_stringIcSt11char_traitsIcESaIcEEEP12MST_StrategySt4lessIS5_ESaISt4pairIKS5_S7_EEE8key_compEv
FNDA:5,_ZNKSt3mapINSt7__cxx1112basic_stringIcSt11char_traitsIcESaIcEEEP12MST_StrategySt4lessIS5_ESaISt4pairIKS5_S7_EEE8key_compEv
FN:1169,_ZNSt3mapINSt7__cxx1112basic_stringIcSt11char_traitsIcESaIcEEEP12MST_StrategySt4lessIS5_ESaISt4pairIKS5_S7_EEE4findERSB_
FNDA:1,_ZNSt3mapINSt7__cxx1112basic_stringIcSt11char_traitsIcESaIcEEEP12MST_StrategySt4lessIS5_ESaISt4pairIKS5_S7_EEE4findERSB_
FN:1258,_ZNSt3mapINSt7__cxx1112basic_stringIcSt11char_traitsIcESaIcEEEP12MST_StrategySt4lessIS5_ESaISt4pairIKS5_S7_EEE11lower_boundERSB_
FNDA:5,_ZNSt3mapINSt7__cxx1112basic_stringIcSt11char_traitsIcESaIcEEEP12MST_StrategySt4lessIS5_ESaISt4pairIKS5_S7_EEE11lower_boundERSB_
DA:228,2
DA:231,2
DA:232,2
DA:302,2
DA:356,1
DA:357,1
DA:374,7
DA:375,7
DA:492,1
DA:497,1
DA:499,1
DA:501,0
DA:502,0
DA:503,0
DA:507,1
DA:512,4
DA:517,4
DA:519,4
DA:520,0
DA:521,0
DA:522,0
DA:523,4
DA:1142,5
DA:1143,5
DA:1169,1
DA:1170,1
DA:1258,5
DA:1259,5
end_of_record
TN:
SF:/usr/include/c++/11/bits/hashtable_policy.h
FN:237,_ZNSt8__detail21_Hash_node_value_baseI4EdgeE9_M_valptrEv
FNDA:0,_ZNSt8__detail21_Hash_node_value_baseI4EdgeE9_M_valptrEv
FN:245,_ZNSt8__detail21_Hash_node_value_baseI4EdgeE4_M_vEv
FNDA:0,_ZNSt8__detail21_Hash_node_value_baseI4EdgeE4_M_vEv
FN:282,_ZNKSt8__detail10_Hash_nodeI4EdgeLb1EE7_M_nextEv
FNDA:0,_ZNKSt8__detail10_Hash_nodeI4EdgeLb1EE7_M_nextEv
FN:299,_ZNSt8__detail19_Node_iterator_baseI4EdgeLb1EE7_M_incrEv
FNDA:0,_ZNSt8__detail19_Node_iterator_baseI4EdgeLb1EE7_M_incrEv
FN:309,_ZNSt8__detailneERKNS_19_Node_iterator_baseI4EdgeLb1EEES4_
FNDA:0,_ZNSt8__detailneERKNS_19_Node_iterator_baseI4EdgeLb1EEES4_
FN:342,_ZNKSt8__detail14_Node_iteratorI4EdgeLb1ELb1EEdeEv
FNDA:0,_ZNKSt8__detail14_Node_iteratorI4EdgeLb1ELb1EEdeEv
FN:357,_ZNSt8__detail14_Node_iteratorI4EdgeLb1ELb1EEppEi
FNDA:0,_ZNSt8__detail14_Node_iteratorI4EdgeLb1ELb1EEppEi
DA:237,0
DA:238,0
DA:245,0
DA:246,0
DA:282,0
DA:283,0
DA:299,0
DA:300,0
DA:309,0
DA:311,0
DA:342,0
DA:343,0
DA:357,0
DA:359,0
DA:360,0
DA:361,0
end_of_record
SF:/usr/include/c++/11/ext/alloc_traits.h
FN:97,_ZN9__gnu_cxx14__alloc_traitsISaImEmE17_S_select_on_copyERKS1_
FNDA:0,_ZN9__gnu_cxx14__alloc_traitsISaImEmE17_S_select_on_copyERKS1_
FN:97,_ZN9__gnu_cxx14__alloc_traitsISaISt6vectorImSaImEEES3_E17_S_select_on_copyERKS4_
FNDA:0,_ZN9__gnu_cxx14__alloc_traitsISaISt6vectorImSaImEEES3_E17_S_select_on_copyERKS4_
DA:97,0
DA:98,0
DA:97,0
DA:98,0
end_of_record
SF:/usr/include/c++/11/ext/aligned_buffer.h
FN:64,_ZN9__gnu_cxx16__aligned_membufISt4pairIKmmEE7_M_addrEv
FNDA:0,_ZN9__gnu_cxx16__aligned_membufISt4pairIKmmEE7_M_addrEv
FN:72,_ZN9__gnu_cxx16__aligned_membufISt4pairIKmmEE6_M_ptrEv
FNDA:0,_ZN9__gnu_cxx16__aligned_membufISt4pairIKmmEE6_M_ptrEv
FN:102,_ZN9__gnu_cxx16__aligned_bufferI4EdgeE7_M_addrEv
FNDA:0,_ZN9__gnu_cxx16__aligned_bufferI4EdgeE7_M_addrEv
FN:114,_ZN9__gnu_cxx16__aligned_bufferI4EdgeE6_M_ptrEv
FNDA:0,_ZN9__gnu_cxx16__aligned_bufferI4EdgeE6_M_ptrEv
DA:64,0
DA:65,0
DA:72,0
DA:73,0
DA:102,0
DA:104,0
DA:114,0
DA:115,0
end_of_record
SF:/usr/include/c++/11/tuple
FN:192,_ZNSt10_Head_baseILm1ERSt6vectorIS0_ImSaImEESaIS2_EELb0EEC2ES5_
FNDA:0,_ZNSt10_Head_baseILm1ERSt6vectorIS0_ImSaImEESaIS2_EELb0EEC2ES5_
FN:192,_ZNSt10_Head_baseILm0ERSt6vectorIS0_ImSaImEESaIS2_EELb0EEC2ES5_
FNDA:0,_ZNSt10_Head_baseILm0ERSt6vectorIS0_ImSaImEESaIS2_EELb0EEC2ES5_
FN:233,_ZNSt10_Head_baseILm1ERSt6vectorIS0_ImSaImEESaIS2_EELb0EE7_M_headERS6_
FNDA:0,_ZNSt10_Head_baseILm1ERSt6vectorIS0_ImSaImEESaIS2_EELb0EE7_M_headERS6_
FN:233,_ZNSt10_Head_baseILm0ERSt6vectorIS0_ImSaImEESaIS2_EELb0EE7_M_headERS6_
FNDA:0,_ZNSt10_Head_baseILm0ERSt6vectorIS0_ImSaImEESaIS2_EELb0EE7_M_headERS6_
FN:268,_ZNSt11_Tuple_implILm0EJRSt6vectorIS0_ImSaImEESaIS2_EES5_EE7_M_headERS6_
FNDA:0,_ZNSt11_Tuple_implILm0EJRSt6vectorIS0_ImSaImEESaIS2_EES5_EE7_M_headERS6_
FN:274,_ZNSt11_Tuple_implILm0EJRSt6vectorIS0_ImSaImEESaIS2_EES5_EE7_M_tailERS6_
FNDA:0,_ZNSt11_Tuple_implILm0EJRSt6vectorIS0_ImSaImEESaIS2_EES5_EE7_M_tailERS6_
FN:283,_ZNSt11_Tuple_implILm0EJRSt6vectorIS0_ImSaImEESaIS2_EES5_EEC2ES5_S5_
FNDA:0,_ZNSt11_Tuple_implILm0EJRSt6vectorIS0_ImSaImEESaIS2_EES5_EEC2ES5_S5_
FN:424,_ZNSt11_Tuple_implILm1EJRSt6vectorIS0_ImSaImEESaIS2_EEEE7_M_headERS6_
FNDA:0,_ZNSt11_Tuple_implILm1EJRSt6vectorIS0_ImSaImEESaIS2_EEEE7_M_headERS6_
FN:434,_ZNSt11_Tuple_implILm1EJRSt6vectorIS0_ImSaImEESaIS2_EEEEC2ES5_
FNDA:0,_ZNSt11_Tuple_implILm1EJRSt6vectorIS0_ImSaImEESaIS2_EEEEC2ES5_
FN:1063,_ZNSt5tupleIJRSt6vectorIS0_ImSaImEESaIS2_EES5_EEC2ILb1ELb1EEES5_S5_
FNDA:0,_ZNSt5tupleIJRSt6vectorIS0_ImSaImEESaIS2_EES5_EEC2ILb1ELb1EEES5_S5_
FN:1321,_ZNSt5tupleIJRSt6vectorIS0_ImSaImEESaIS2_EES5_EEaSIS4_S4_EENSt9enable_ifIXcl12__assignableIT_T0_EEERS6_E4typeEOSt4pairIS9_SA_E
FNDA:0,_ZNSt5tupleIJRSt6vectorIS0_ImSaImEESaIS2_EES5_EEaSIS4_S4_EENSt9enable_ifIXcl12__assignableIT_T0_EEERS6_E4typeEOSt4pairIS9_SA_E
FN:1746,_ZSt3tieIJSt6vectorIS0_ImSaImEESaIS2_EES4_EESt5tupleIJDpRT_EES8_
FNDA:0,_ZSt3tieIJSt6vectorIS0_ImSaImEESaIS2_EES4_EESt5tupleIJDpRT_EES8_
DA:192,0
DA:193,0
DA:192,0
DA:193,0
DA:233,0
DA:233,0
DA:268,0
DA:274,0
DA:283,0
DA:284,0
DA:285,0
DA:424,0
DA:434,0
DA:435,0
DA:436,0
DA:1063,0
DA:1065,0
DA:1321,0
DA:1324,0
DA:1325,0
DA:1326,0
DA:1746,0
DA:1747,0
end_of_record
SF:/usr/include/c++/11/bits/vector.tcc
FN:426,_ZNSt6vectorI4EdgeSaIS0_EE17_M_realloc_insertIJRKS0_EEEvN9__gnu_cxx17__normal_iteratorIPS0_S2_EEDpOT_
FNDA:0,_ZNSt6vectorI4EdgeSaIS0_EE17_M_realloc_insertIJRKS0_EEEvN9__gnu_cxx17__normal_iteratorIPS0_S2_EEDpOT_
DA:426,0
DA:436,0
DA:437,0
DA:438,0
DA:439,0
DA:440,0
DA:441,0
DA:449,0
DA:450,0
DA:456,0
DA:474,0
DA:475,0
DA:477,0
DA:481,0
DA:482,0
DA:485,0
DA:487,0
DA:488,0
DA:489,0
DA:491,0
DA:492,0
DA:493,0
DA:498,0
DA:500,0
DA:501,0
DA:502,0
DA:503,0
DA:504,0
DA:505,0
end_of_record
SF:/usr/include/c++/11/bits/move.h
FN:49,_ZSt11__addressofISt6vectorImSaImEEEPT_RS3_
FNDA:0,_ZSt11__addressofISt6vectorImSaImEEEPT_RS3_
FN:49,_ZSt11__addressofI4EdgeEPT_RS1_
FNDA:0,_ZSt11__addressofI4EdgeEPT_RS1_
FN:77,_ZSt7forwardIRKSt6vectorImSaImEEEOT_RNSt16remove_referenceIS5_E4typeE
FNDA:0,_ZSt7forwardIRKSt6vectorImSaImEEEOT_RNSt16remove_referenceIS5_E4typeE
FN:77,_ZSt7forwardIRK4EdgeEOT_RNSt16remove_referenceIS3_E4typeE
FNDA:0,_ZSt7forwardIRK4EdgeEOT_RNSt16remove_referenceIS3_E4typeE
FN:77,_ZSt7forwardISt6vectorIS0_ImSaImEESaIS2_EEEOT_RNSt16remove_referenceIS5_E4typeE
FNDA:0,_ZSt7forwardISt6vectorIS0_ImSaImEESaIS2_EEEOT_RNSt16remove_referenceIS5_E4typeE
FN:104,_ZSt4moveIRN9__gnu_cxx5__ops15_Iter_less_iterEEONSt16remove_referenceIT_E4typeEOS5_
FNDA:0,_ZSt4moveIRN9__gnu_cxx5__ops15_Iter_less_iterEEONSt16remove_referenceIT_E4typeEOS5_
FN:104,_ZSt4moveIRSaISt6vectorImSaImEEEEONSt16remove_referenceIT_E4typeEOS6_
FNDA:0,_ZSt4moveIRSaISt6vectorImSaImEEEEONSt16remove_referenceIT_E4typeEOS6_
FN:104,_ZSt4moveIR4EdgeEONSt16remove_referenceIT_E4typeEOS3_
FNDA:0,_ZSt4moveIR4EdgeEONSt16remove_referenceIT_E4typeEOS3_
FN:104,_ZSt4moveIRSt6vectorIS0_ImSaImEESaIS2_EEEONSt16remove_referenceIT_E4typeEOS7_
FNDA:0,_ZSt4moveIRSt6vectorIS0_ImSaImEESaIS2_EEEONSt16remove_referenceIT_E4typeEOS7_
FN:196,_ZSt4swapI4EdgeENSt9enable_ifIXsrSt6__and_IJSt6__not_ISt15__is_tuple_likeIT_EESt21is_move_constructibleIS5_ESt18is_move_assignableIS5_EEE5valueEvE4typeERS5_SF_
FNDA:0,_ZSt4swapI4EdgeENSt9enable_ifIXsrSt6__and_IJSt6__not_ISt15__is_tuple_likeIT_EESt21is_move_constructibleIS5_ESt18is_move_assignableIS5_EEE5valueEvE4typeERS5_SF_
DA:49,0
DA:50,0
DA:49,0
DA:50,0
DA:77,0
DA:78,0
DA:77,0
DA:78,0
DA:77,0
DA:78,0
DA:104,0
DA:105,0
DA:104,0
DA:105,0
DA:104,0
DA:105,0
DA:104,0
DA:105,0
DA:196,0
DA:204,0
DA:205,0
DA:206,0
DA:207,0
end_of_record
SF:/usr/include/c++/11/bits/stl_algobase.h
FN:152,_ZSt9iter_swapIN9__gnu_cxx17__normal_iteratorIP4EdgeSt6vectorIS2_SaIS2_EEEES7_EvT_T0_
FNDA:0,_ZSt9iter_swapIN9__gnu_cxx17__normal_iteratorIP4EdgeSt6vectorIS2_SaIS2_EEEES7_EvT_T0_
FN:230,_ZSt3minImERKT_S2_S2_
FNDA:0,_ZSt3minImERKT_S2_S2_
FN:254,_ZSt3maxImERKT_S2_S2_
FNDA:0,_ZSt3maxImERKT_S2_S2_
FN:313,_ZSt12__niter_baseIPmET_S1_
FNDA:0,_ZSt12__niter_baseIPmET_S1_
FN:328,_ZSt12__niter_wrapIN9__gnu_cxx17__normal_iteratorIP4EdgeSt6vectorIS2_SaIS2_EEEES3_ET_S8_T0_
FNDA:0,_ZSt12__niter_wrapIN9__gnu_cxx17__normal_iteratorIP4EdgeSt6vectorIS2_SaIS2_EEEES3_ET_S8_T0_
FN:335,_ZSt12__niter_wrapIPmET_RKS1_S1_
FNDA:0,_ZSt12__niter_wrapIPmET_RKS1_S1_
FN:420,_ZNSt11__copy_moveILb0ELb1ESt26random_access_iterator_tagE8__copy_mImEEPT_PKS3_S6_S4_
FNDA:0,_ZNSt11__copy_moveILb0ELb1ESt26random_access_iterator_tagE8__copy_mImEEPT_PKS3_S6_S4_
FN:486,_ZSt14__copy_move_a2ILb0EPKmPmET1_T0_S4_S3_
FNDA:0,_ZSt14__copy_move_a2ILb0EPKmPmET1_T0_S4_S3_
FN:521,_ZSt14__copy_move_a1ILb0EPKmPmET1_T0_S4_S3_
FNDA:0,_ZSt14__copy_move_a1ILb0EPKmPmET1_T0_S4_S3_
FN:527,_ZSt13__copy_move_aILb0EN9__gnu_cxx17__normal_iteratorIPKmSt6vectorImSaImEEEEPmET1_T0_SA_S9_
FNDA:0,_ZSt13__copy_move_aILb0EN9__gnu_cxx17__normal_iteratorIPKmSt6vectorImSaImEEEEPmET1_T0_SA_S9_
FN:611,_ZSt4copyIN9__gnu_cxx17__normal_iteratorIPKmSt6vectorImSaImEEEEPmET0_T_SA_S9_
FNDA:0,_ZSt4copyIN9__gnu_cxx17__normal_iteratorIPKmSt6vectorImSaImEEEEPmET0_T_SA_S9_
FN:714,_ZNSt20__copy_move_backwardILb1ELb0ESt26random_access_iterator_tagE13__copy_move_bIP4EdgeS4_EET0_T_S6_S5_
FNDA:0,_ZNSt20__copy_move_backwardILb1ELb0ESt26random_access_iterator_tagE13__copy_move_bIP4EdgeS4_EET0_T_S6_S5_
FN:750,_ZSt23__copy_move_backward_a2ILb1EP4EdgeS1_ET1_T0_S3_S2_
FNDA:0,_ZSt23__copy_move_backward_a2ILb1EP4EdgeS1_ET1_T0_S3_S2_
FN:768,_ZSt23__copy_move_backward_a1ILb1EP4EdgeS1_ET1_T0_S3_S2_
FNDA:0,_ZSt23__copy_move_backward_a1ILb1EP4EdgeS1_ET1_T0_S3_S2_
FN:796,_ZSt22__copy_move_backward_aILb1EN9__gnu_cxx17__normal_iteratorIP4EdgeSt6vectorIS2_SaIS2_EEEES7_ET1_T0_S9_S8_
FNDA:0,_ZSt22__copy_move_backward_aILb1EN9__gnu_cxx17__normal_iteratorIP4EdgeSt6vectorIS2_SaIS2_EEEES7_ET1_T0_S9_S8_
FN:884,_ZSt13move_backwardIN9__gnu_cxx17__normal_iteratorIP4EdgeSt6vectorIS2_SaIS2_EEEES7_ET0_T_S9_S8_
FNDA:0,_ZSt13move_backwardIN9__gnu_cxx17__normal_iteratorIP4EdgeSt6vectorIS2_SaIS2_EEEES7_ET0_T_S9_S8_
FN:1514,_ZSt4__lgl
FNDA:0,_ZSt4__lgl
DA:152,0
DA:182,0
DA:184,0
DA:230,0
DA:235,0
DA:236,0
DA:237,0
DA:254,0
DA:259,0
DA:260,0
DA:261,0
DA:313,0
DA:315,0
DA:328,0
DA:329,0
DA:335,0
DA:336,0
DA:420,0
DA:429,0
DA:430,0
DA:431,0
DA:432,0
DA:486,0
DA:495,0
DA:521,0
DA:522,0
DA:527,0
DA:529,0
DA:532,0
DA:611,0
DA:620,0
DA:714,0
DA:717,0
DA:718,0
DA:719,0
DA:720,0
DA:750,0
DA:760,0
DA:762,0
DA:768,0
DA:769,0
DA:796,0
DA:798,0
DA:801,0
DA:884,0
DA:894,0
DA:896,0
DA:1514,0
DA:1515,0
end_of_record
SF:/home/imri/OS-FinalProject/GraphObj/vertex.hpp
end_of_record
SF:/home/imri/OS-FinalProject/MST/Kruskal.cpp
FN:4,_ZN7KruskalclEP5Graph
FNDA:0,_ZN7KruskalclEP5Graph
DA:4,0
DA:5,0
DA:7,0
DA:8,0
DA:10,0
DA:12,0
DA:14,0
DA:15,0
DA:17,0
DA:19,0
DA:20,0
DA:22,0
DA:23,0
DA:24,0
DA:26,0
DA:27,0
DA:28,0
DA:29,0
end_of_record
SF:/usr/include/c++/11/iostream
end_of_record
SF:/usr/include/c++/11/bits/stl_tree.h
FN:234,_ZNSt13_Rb_tree_nodeISt4pairIKmmEE9_M_valptrEv
FNDA:0,_ZNSt13_Rb_tree_nodeISt4pairIKmmEE9_M_valptrEv
FN:547,_ZNSt8_Rb_treeImSt4pairIKmmESt10_Select1stIS2_ESt4lessImESaIS2_EE21_M_get_Node_allocatorEv
FNDA:0,_ZNSt8_Rb_treeImSt4pairIKmmESt10_Select1stIS2_ESt4lessImESaIS2_EE21_M_get_Node_allocatorEv
FN:564,_ZNSt8_Rb_treeImSt4pairIKmmESt10_Select1stIS2_ESt4lessImESaIS2_EE11_M_put_nodeEPSt13_Rb_tree_nodeIS2_E
FNDA:0,_ZNSt8_Rb_treeImSt4pairIKmmESt10_Select1stIS2_ESt4lessImESaIS2_EE11_M_put_nodeEPSt13_Rb_tree_nodeIS2_E
FN:618,_ZNSt8_Rb_treeImSt4pairIKmmESt10_Select1stIS2_ESt4lessImESaIS2_EE15_M_destroy_nodeEPSt13_Rb_tree_nodeIS2_E
FNDA:0,_ZNSt8_Rb_treeImSt4pairIKmmESt10_Select1stIS2_ESt4lessImESaIS2_EE15_M_destroy_nodeEPSt13_Rb_tree_nodeIS2_E
FN:629,_ZNSt8_Rb_treeImSt4pairIKmmESt10_Select1stIS2_ESt4lessImESaIS2_EE12_M_drop_nodeEPSt13_Rb_tree_nodeIS2_E
FNDA:0,_ZNSt8_Rb_treeImSt4pairIKmmESt10_Select1stIS2_ESt4lessImESaIS2_EE12_M_drop_nodeEPSt13_Rb_tree_nodeIS2_E
FN:734,_ZNKSt8_Rb_treeImSt4pairIKmmESt10_Select1stIS2_ESt4lessImESaIS2_EE9_M_mbeginEv
FNDA:0,_ZNKSt8_Rb_treeImSt4pairIKmmESt10_Select1stIS2_ESt4lessImESaIS2_EE9_M_mbeginEv
FN:738,_ZNSt8_Rb_treeImSt4pairIKmmESt10_Select1stIS2_ESt4lessImESaIS2_EE8_M_beginEv
FNDA:0,_ZNSt8_Rb_treeImSt4pairIKmmESt10_Select1stIS2_ESt4lessImESaIS2_EE8_M_beginEv
FN:779,_ZNSt8_Rb_treeImSt4pairIKmmESt10_Select1stIS2_ESt4lessImESaIS2_EE7_S_leftEPSt18_Rb_tree_node_base
FNDA:0,_ZNSt8_Rb_treeImSt4pairIKmmESt10_Select1stIS2_ESt4lessImESaIS2_EE7_S_leftEPSt18_Rb_tree_node_base
FN:787,_ZNSt8_Rb_treeImSt4pairIKmmESt10_Select1stIS2_ESt4lessImESaIS2_EE8_S_rightEPSt18_Rb_tree_node_base
FNDA:0,_ZNSt8_Rb_treeImSt4pairIKmmESt10_Select1stIS2_ESt4lessImESaIS2_EE8_S_rightEPSt18_Rb_tree_node_base
FN:983,_ZNSt8_Rb_treeImSt4pairIKmmESt10_Select1stIS2_ESt4lessImESaIS2_EED2Ev
FNDA:0,_ZNSt8_Rb_treeImSt4pairIKmmESt10_Select1stIS2_ESt4lessImESaIS2_EED2Ev
FN:1883,_ZNSt8_Rb_treeImSt4pairIKmmESt10_Select1stIS2_ESt4lessImESaIS2_EE8_M_eraseEPSt13_Rb_tree_nodeIS2_E
FNDA:0,_ZNSt8_Rb_treeImSt4pairIKmmESt10_Select1stIS2_ESt4lessImESaIS2_EE8_M_eraseEPSt13_Rb_tree_nodeIS2_E
DA:234,0
DA:235,0
DA:547,0
DA:548,0
DA:564,0
DA:565,0
DA:618,0
DA:623,0
DA:624,0
DA:626,0
DA:629,0
DA:631,0
DA:632,0
DA:633,0
DA:734,0
DA:735,0
DA:738,0
DA:739,0
DA:779,0
DA:780,0
DA:787,0
DA:788,0
DA:983,0
DA:984,0
DA:1883,0
DA:1887,0
DA:1889,0
DA:1890,0
DA:1891,0
DA:1892,0
DA:1894,0
end_of_record
SF:/usr/include/c++/11/bits/allocator.h
FN:156,_ZNSaISt6vectorImSaImEEEC2Ev
FNDA:0,_ZNSaISt6vectorImSaImEEEC2Ev
FN:156,_ZNSaI4EdgeEC2Ev
FNDA:0,_ZNSaI4EdgeEC2Ev
FN:159,_ZNSaImEC2ERKS_
FNDA:0,_ZNSaImEC2ERKS_
FN:159,_ZNSaISt6vectorImSaImEEEC2ERKS2_
FNDA:0,_ZNSaISt6vectorImSaImEEEC2ERKS2_
FN:174,_ZNSaImED2Ev
FNDA:0,_ZNSaImED2Ev
FN:174,_ZNSaISt13_Rb_tree_nodeISt4pairIKmmEEED2Ev
FNDA:0,_ZNSaISt13_Rb_tree_nodeISt4pairIKmmEEED2Ev
FN:174,_ZNSaISt6vectorImSaImEEED2Ev
FNDA:0,_ZNSaISt6vectorImSaImEEED2Ev
FN:174,_ZNSaI4EdgeED2Ev
FNDA:0,_ZNSaI4EdgeED2Ev
DA:156,0
DA:156,0
DA:159,0
DA:160,0
DA:159,0
DA:160,0
DA:174,0
DA:174,0
DA:174,0
DA:174,0
end_of_record
SF:/home/imri/OS-FinalProject/DataStruct/UnionFind.hpp
end_of_record
SF:/usr/include/c++/11/bits/stl_algo.h
FN:79,_ZSt22__move_median_to_firstIN9__gnu_cxx17__normal_iteratorIP4EdgeSt6vectorIS2_SaIS2_EEEENS0_5__ops15_Iter_less_iterEEvT_SA_SA_SA_T0_
FNDA:0,_ZSt22__move_median_to_firstIN9__gnu_cxx17__normal_iteratorIP4EdgeSt6vectorIS2_SaIS2_EEEENS0_5__ops15_Iter_less_iterEEvT_SA_SA_SA_T0_
FN:1642,_ZSt13__heap_selectIN9__gnu_cxx17__normal_iteratorIP4EdgeSt6vectorIS2_SaIS2_EEEENS0_5__ops15_Iter_less_iterEEvT_SA_SA_T0_
FNDA:0,_ZSt13__heap_selectIN9__gnu_cxx17__normal_iteratorIP4EdgeSt6vectorIS2_SaIS2_EEEENS0_5__ops15_Iter_less_iterEEvT_SA_SA_T0_
FN:1799,_ZSt25__unguarded_linear_insertIN9__gnu_cxx17__normal_iteratorIP4EdgeSt6vectorIS2_SaIS2_EEEENS0_5__ops14_Val_less_iterEEvT_T0_
FNDA:0,_ZSt25__unguarded_linear_insertIN9__gnu_cxx17__normal_iteratorIP4EdgeSt6vectorIS2_SaIS2_EEEENS0_5__ops14_Val_less_iterEEvT_T0_
FN:1819,_ZSt16__insertion_sortIN9__gnu_cxx17__normal_iteratorIP4EdgeSt6vectorIS2_SaIS2_EEEENS0_5__ops15_Iter_less_iterEEvT_SA_T0_
FNDA:0,_ZSt16__insertion_sortIN9__gnu_cxx17__normal_iteratorIP4EdgeSt6vectorIS2_SaIS2_EEEENS0_5__ops15_Iter_less_iterEEvT_SA_T0_
FN:1843,_ZSt26__unguarded_insertion_sortIN9__gnu_cxx17__normal_iteratorIP4EdgeSt6vectorIS2_SaIS2_EEEENS0_5__ops15_Iter_less_iterEEvT_SA_T0_
FNDA:0,_ZSt26__unguarded_insertion_sortIN9__gnu_cxx17__normal_iteratorIP4EdgeSt6vectorIS2_SaIS2_EEEENS0_5__ops15_Iter_less_iterEEvT_SA_T0_
FN:1861,_ZSt22__final_insertion_sortIN9__gnu_cxx17__normal_iteratorIP4EdgeSt6vectorIS2_SaIS2_EEEENS0_5__ops15_Iter_less_iterEEvT_SA_T0_
FNDA:0,_ZSt22__final_insertion_sortIN9__gnu_cxx17__normal_iteratorIP4EdgeSt6vectorIS2_SaIS2_EEEENS0_5__ops15_Iter_less_iterEEvT_SA_T0_
FN:1878,_ZSt21__unguarded_partitionIN9__gnu_cxx17__normal_iteratorIP4EdgeSt6vectorIS2_SaIS2_EEEENS0_5__ops15_Iter_less_iterEET_SA_SA_SA_T0_
FNDA:0,_ZSt21__unguarded_partitionIN9__gnu_cxx17__normal_iteratorIP4EdgeSt6vectorIS2_SaIS2_EEEENS0_5__ops15_Iter_less_iterEET_SA_SA_SA_T0_
FN:1900,_ZSt27__unguarded_partition_pivotIN9__gnu_cxx17__normal_iteratorIP4EdgeSt6vectorIS2_SaIS2_EEEENS0_5__ops15_Iter_less_iterEET_SA_SA_T0_
FNDA:0,_ZSt27__unguarded_partition_pivotIN9__gnu_cxx17__normal_iteratorIP4EdgeSt6vectorIS2_SaIS2_EEEENS0_5__ops15_Iter_less_iterEET_SA_SA_T0_
FN:1912,_ZSt14__partial_sortIN9__gnu_cxx17__normal_iteratorIP4EdgeSt6vectorIS2_SaIS2_EEEENS0_5__ops15_Iter_less_iterEEvT_SA_SA_T0_
FNDA:0,_ZSt14__partial_sortIN9__gnu_cxx17__normal_iteratorIP4EdgeSt6vectorIS2_SaIS2_EEEENS0_5__ops15_Iter_less_iterEEvT_SA_SA_T0_
FN:1925,_ZSt16__introsort_loopIN9__gnu_cxx17__normal_iteratorIP4EdgeSt6vectorIS2_SaIS2_EEEElNS0_5__ops15_Iter_less_iterEEvT_SA_T0_T1_
FNDA:0,_ZSt16__introsort_loopIN9__gnu_cxx17__normal_iteratorIP4EdgeSt6vectorIS2_SaIS2_EEEElNS0_5__ops15_Iter_less_iterEEvT_SA_T0_T1_
FN:1949,_ZSt6__sortIN9__gnu_cxx17__normal_iteratorIP4EdgeSt6vectorIS2_SaIS2_EEEENS0_5__ops15_Iter_less_iterEEvT_SA_T0_
FNDA:0,_ZSt6__sortIN9__gnu_cxx17__normal_iteratorIP4EdgeSt6vectorIS2_SaIS2_EEEENS0_5__ops15_Iter_less_iterEEvT_SA_T0_
FN:4832,_ZSt4sortIN9__gnu_cxx17__normal_iteratorIP4EdgeSt6vectorIS2_SaIS2_EEEEEvT_S8_
FNDA:0,_ZSt4sortIN9__gnu_cxx17__normal_iteratorIP4EdgeSt6vectorIS2_SaIS2_EEEEEvT_S8_
DA:79,0
DA:82,0
DA:84,0
DA:85,0
DA:86,0
DA:87,0
DA:89,0
DA:91,0
DA:92,0
DA:93,0
DA:94,0
DA:96,0
DA:97,0
DA:1642,0
DA:1646,0
DA:1647,0
DA:1648,0
DA:1649,0
DA:1650,0
DA:1799,0
DA:1803,0
DA:1804,0
DA:1805,0
DA:1806,0
DA:1808,0
DA:1809,0
DA:1810,0
DA:1812,0
DA:1813,0
DA:1819,0
DA:1822,0
DA:1824,0
DA:1826,0
DA:1829,0
DA:1830,0
DA:1831,0
DA:1832,0
DA:1834,0
DA:1835,0
DA:1843,0
DA:1846,0
DA:1847,0
DA:1848,0
DA:1849,0
DA:1861,0
DA:1864,0
DA:1866,0
DA:1867,0
DA:1871,0
DA:1872,0
DA:1878,0
DA:1884,0
DA:1885,0
DA:1886,0
DA:1887,0
DA:1888,0
DA:1889,0
DA:1890,0
DA:1891,0
DA:1892,0
DA:1900,0
DA:1903,0
DA:1904,0
DA:1906,0
DA:1912,0
DA:1917,0
DA:1918,0
DA:1919,0
DA:1925,0
DA:1929,0
DA:1931,0
DA:1933,0
DA:1934,0
DA:1936,0
DA:1938,0
DA:1939,0
DA:1940,0
DA:1949,0
DA:1952,0
DA:1954,0
DA:1955,0
DA:1957,0
DA:1959,0
DA:4832,0
DA:4842,0
DA:4843,0
end_of_record
SF:/usr/include/c++/11/bits/stl_heap.h
FN:134,_ZSt11__push_heapIN9__gnu_cxx17__normal_iteratorIP4EdgeSt6vectorIS2_SaIS2_EEEElS2_NS0_5__ops14_Iter_less_valEEvT_T0_SB_T1_RT2_
FNDA:0,_ZSt11__push_heapIN9__gnu_cxx17__normal_iteratorIP4EdgeSt6vectorIS2_SaIS2_EEEElS2_NS0_5__ops14_Iter_less_valEEvT_T0_SB_T1_RT2_
FN:223,_ZSt13__adjust_heapIN9__gnu_cxx17__normal_iteratorIP4EdgeSt6vectorIS2_SaIS2_EEEElS2_NS0_5__ops15_Iter_less_iterEEvT_T0_SB_T1_T2_
FNDA:0,_ZSt13__adjust_heapIN9__gnu_cxx17__normal_iteratorIP4EdgeSt6vectorIS2_SaIS2_EEEElS2_NS0_5__ops15_Iter_less_iterEEvT_T0_SB_T1_T2_
FN:253,_ZSt10__pop_heapIN9__gnu_cxx17__normal_iteratorIP4EdgeSt6vectorIS2_SaIS2_EEEENS0_5__ops15_Iter_less_iterEEvT_SA_SA_RT0_
FNDA:0,_ZSt10__pop_heapIN9__gnu_cxx17__normal_iteratorIP4EdgeSt6vectorIS2_SaIS2_EEEENS0_5__ops15_Iter_less_iterEEvT_SA_SA_RT0_
FN:339,_ZSt11__make_heapIN9__gnu_cxx17__normal_iteratorIP4EdgeSt6vectorIS2_SaIS2_EEEENS0_5__ops15_Iter_less_iterEEvT_SA_RT0_
FNDA:0,_ZSt11__make_heapIN9__gnu_cxx17__normal_iteratorIP4EdgeSt6vectorIS2_SaIS2_EEEENS0_5__ops15_Iter_less_iterEEvT_SA_RT0_
FN:418,_ZSt11__sort_heapIN9__gnu_cxx17__normal_iteratorIP4EdgeSt6vectorIS2_SaIS2_EEEENS0_5__ops15_Iter_less_iterEEvT_SA_RT0_
FNDA:0,_ZSt11__sort_heapIN9__gnu_cxx17__normal_iteratorIP4EdgeSt6vectorIS2_SaIS2_EEEENS0_5__ops15_Iter_less_iterEEvT_SA_RT0_
DA:134,0
DA:138,0
DA:139,0
DA:141,0
DA:142,0
DA:143,0
DA:145,0
DA:146,0
DA:223,0
DA:226,0
DA:227,0
DA:228,0
DA:230,0
DA:231,0
DA:233,0
DA:234,0
DA:235,0
DA:237,0
DA:239,0
DA:240,0
DA:242,0
DA:245,0
DA:246,0
DA:247,0
DA:248,0
DA:253,0
DA:261,0
DA:262,0
DA:263,0
DA:264,0
DA:265,0
DA:266,0
DA:339,0
DA:347,0
DA:348,0
DA:350,0
DA:351,0
DA:352,0
DA:354,0
DA:355,0
DA:357,0
DA:358,0
DA:359,0
DA:418,0
DA:421,0
DA:423,0
DA:424,0
DA:426,0
end_of_record
SF:/usr/include/c++/11/bits/stl_map.h
FN:302,_ZNSt3mapImmSt4lessImESaISt4pairIKmmEEED2Ev
FNDA:0,_ZNSt3mapImmSt4lessImESaISt4pairIKmmEEED2Ev
DA:302,0
end_of_record
SF:/usr/include/c++/11/bits/stl_iterator.h
FN:1027,_ZN9__gnu_cxx17__normal_iteratorIPKmSt6vectorImSaImEEEC2ERKS2_
FNDA:0,_ZN9__gnu_cxx17__normal_iteratorIPKmSt6vectorImSaImEEEC2ERKS2_
FN:1027,_ZN9__gnu_cxx17__normal_iteratorIP4EdgeSt6vectorIS1_SaIS1_EEEC2ERKS2_
FNDA:0,_ZN9__gnu_cxx17__normal_iteratorIP4EdgeSt6vectorIS1_SaIS1_EEEC2ERKS2_
FN:1027,_ZN9__gnu_cxx17__normal_iteratorIPKSt6vectorImSaImEES1_IS3_SaIS3_EEEC2ERKS5_
FNDA:0,_ZN9__gnu_cxx17__normal_iteratorIPKSt6vectorImSaImEES1_IS3_SaIS3_EEEC2ERKS5_
FN:1042,_ZNK9__gnu_cxx17__normal_iteratorIP4EdgeSt6vectorIS1_SaIS1_EEEdeEv
FNDA:0,_ZNK9__gnu_cxx17__normal_iteratorIP4EdgeSt6vectorIS1_SaIS1_EEEdeEv
FN:1042,_ZNK9__gnu_cxx17__normal_iteratorIPKSt6vectorImSaImEES1_IS3_SaIS3_EEEdeEv
FNDA:0,_ZNK9__gnu_cxx17__normal_iteratorIPKSt6vectorImSaImEES1_IS3_SaIS3_EEEdeEv
FN:1052,_ZN9__gnu_cxx17__normal_iteratorIP4EdgeSt6vectorIS1_SaIS1_EEEppEv
FNDA:0,_ZN9__gnu_cxx17__normal_iteratorIP4EdgeSt6vectorIS1_SaIS1_EEEppEv
FN:1052,_ZN9__gnu_cxx17__normal_iteratorIPKSt6vectorImSaImEES1_IS3_SaIS3_EEEppEv
FNDA:0,_ZN9__gnu_cxx17__normal_iteratorIPKSt6vectorImSaImEES1_IS3_SaIS3_EEEppEv
FN:1066,_ZN9__gnu_cxx17__normal_iteratorIP4EdgeSt6vectorIS1_SaIS1_EEEmmEv
FNDA:0,_ZN9__gnu_cxx17__normal_iteratorIP4EdgeSt6vectorIS1_SaIS1_EEEmmEv
FN:1090,_ZNK9__gnu_cxx17__normal_iteratorIP4EdgeSt6vectorIS1_SaIS1_EEEplEl
FNDA:0,_ZNK9__gnu_cxx17__normal_iteratorIP4EdgeSt6vectorIS1_SaIS1_EEEplEl
FN:1100,_ZNK9__gnu_cxx17__normal_iteratorIP4EdgeSt6vectorIS1_SaIS1_EEEmiEl
FNDA:0,_ZNK9__gnu_cxx17__normal_iteratorIP4EdgeSt6vectorIS1_SaIS1_EEEmiEl
FN:1105,_ZNK9__gnu_cxx17__normal_iteratorIPKmSt6vectorImSaImEEE4baseEv
FNDA:0,_ZNK9__gnu_cxx17__normal_iteratorIPKmSt6vectorImSaImEEE4baseEv
FN:1105,_ZNK9__gnu_cxx17__normal_iteratorIPKSt6vectorImSaImEES1_IS3_SaIS3_EEE4baseEv
FNDA:0,_ZNK9__gnu_cxx17__normal_iteratorIPKSt6vectorImSaImEES1_IS3_SaIS3_EEE4baseEv
FN:1105,_ZNK9__gnu_cxx17__normal_iteratorIP4EdgeSt6vectorIS1_SaIS1_EEE4baseEv
FNDA:0,_ZNK9__gnu_cxx17__normal_iteratorIP4EdgeSt6vectorIS1_SaIS1_EEE4baseEv
FN:1163,_ZN9__gnu_cxxeqIP4EdgeSt6vectorIS1_SaIS1_EEEEbRKNS_17__normal_iteratorIT_T0_EESB_
FNDA:0,_ZN9__gnu_cxxeqIP4EdgeSt6vectorIS1_SaIS1_EEEEbRKNS_17__normal_iteratorIT_T0_EESB_
FN:1179,_ZN9__gnu_cxxneIP4EdgeSt6vectorIS1_SaIS1_EEEEbRKNS_17__normal_iteratorIT_T0_EESB_
FNDA:0,_ZN9__gnu_cxxneIP4EdgeSt6vectorIS1_SaIS1_EEEEbRKNS_17__normal_iteratorIT_T0_EESB_
FN:1179,_ZN9__gnu_cxxneIPKSt6vectorImSaImEES1_IS3_SaIS3_EEEEbRKNS_17__normal_iteratorIT_T0_EESD_
FNDA:0,_ZN9__gnu_cxxneIPKSt6vectorImSaImEES1_IS3_SaIS3_EEEEbRKNS_17__normal_iteratorIT_T0_EESD_
FN:1195,_ZN9__gnu_cxxltIP4EdgeSt6vectorIS1_SaIS1_EEEEbRKNS_17__normal_iteratorIT_T0_EESB_
FNDA:0,_ZN9__gnu_cxxltIP4EdgeSt6vectorIS1_SaIS1_EEEEbRKNS_17__normal_iteratorIT_T0_EESB_
FN:1268,_ZN9__gnu_cxxmiIP4EdgeSt6vectorIS1_SaIS1_EEEENS_17__normal_iteratorIT_T0_E15difference_typeERKS9_SC_
FNDA:0,_ZN9__gnu_cxxmiIP4EdgeSt6vectorIS1_SaIS1_EEEENS_17__normal_iteratorIT_T0_E15difference_typeERKS9_SC_
FN:1291,_ZSt12__niter_baseIP4EdgeSt6vectorIS0_SaIS0_EEET_N9__gnu_cxx17__normal_iteratorIS5_T0_EE
FNDA:0,_ZSt12__niter_baseIP4EdgeSt6vectorIS0_SaIS0_EEET_N9__gnu_cxx17__normal_iteratorIS5_T0_EE
FN:1291,_ZSt12__niter_baseIPKmSt6vectorImSaImEEET_N9__gnu_cxx17__normal_iteratorIS5_T0_EE
FNDA:0,_ZSt12__niter_baseIPKmSt6vectorImSaImEEET_N9__gnu_cxx17__normal_iteratorIS5_T0_EE
FN:1723,_ZSt32__make_move_if_noexcept_iteratorI4EdgePKS0_ET0_PT_
FNDA:0,_ZSt32__make_move_if_noexcept_iteratorI4EdgePKS0_ET0_PT_
DA:1027,0
DA:1028,0
DA:1027,0
DA:1028,0
DA:1027,0
DA:1028,0
DA:1042,0
DA:1043,0
DA:1042,0
DA:1043,0
DA:1052,0
DA:1054,0
DA:1055,0
DA:1052,0
DA:1054,0
DA:1055,0
DA:1066,0
DA:1068,0
DA:1069,0
DA:1090,0
DA:1091,0
DA:1100,0
DA:1101,0
DA:1105,0
DA:1106,0
DA:1105,0
DA:1106,0
DA:1105,0
DA:1106,0
DA:1163,0
DA:1166,0
DA:1179,0
DA:1182,0
DA:1179,0
DA:1182,0
DA:1195,0
DA:1198,0
DA:1268,0
DA:1271,0
DA:1291,0
DA:1293,0
DA:1291,0
DA:1293,0
DA:1723,0
DA:1724,0
end_of_record
SF:/usr/include/c++/11/ext/new_allocator.h
FN:79,_ZN9__gnu_cxx13new_allocatorI4EdgeEC2Ev
FNDA:0,_ZN9__gnu_cxx13new_allocatorI4EdgeEC2Ev
FN:79,_ZN9__gnu_cxx13new_allocatorISt6vectorImSaImEEEC2Ev
FNDA:0,_ZN9__gnu_cxx13new_allocatorISt6vectorImSaImEEEC2Ev
FN:82,_ZN9__gnu_cxx13new_allocatorImEC2ERKS1_
FNDA:0,_ZN9__gnu_cxx13new_allocatorImEC2ERKS1_
FN:82,_ZN9__gnu_cxx13new_allocatorISt6vectorImSaImEEEC2ERKS4_
FNDA:0,_ZN9__gnu_cxx13new_allocatorISt6vectorImSaImEEEC2ERKS4_
FN:89,_ZN9__gnu_cxx13new_allocatorI4EdgeED2Ev
FNDA:0,_ZN9__gnu_cxx13new_allocatorI4EdgeED2Ev
FN:89,_ZN9__gnu_cxx13new_allocatorISt13_Rb_tree_nodeISt4pairIKmmEEED2Ev
FNDA:0,_ZN9__gnu_cxx13new_allocatorISt13_Rb_tree_nodeISt4pairIKmmEEED2Ev
FN:89,_ZN9__gnu_cxx13new_allocatorImED2Ev
FNDA:0,_ZN9__gnu_cxx13new_allocatorImED2Ev
FN:89,_ZN9__gnu_cxx13new_allocatorISt6vectorImSaImEEED2Ev
FNDA:0,_ZN9__gnu_cxx13new_allocatorISt6vectorImSaImEEED2Ev
FN:103,_ZN9__gnu_cxx13new_allocatorI4EdgeE8allocateEmPKv
FNDA:0,_ZN9__gnu_cxx13new_allocatorI4EdgeE8allocateEmPKv
FN:103,_ZN9__gnu_cxx13new_allocatorImE8allocateEmPKv
FNDA:0,_ZN9__gnu_cxx13new_allocatorImE8allocateEmPKv
FN:103,_ZN9__gnu_cxx13new_allocatorISt6vectorImSaImEEE8allocateEmPKv
FNDA:0,_ZN9__gnu_cxx13new_allocatorISt6vectorImSaImEEE8allocateEmPKv
FN:132,_ZN9__gnu_cxx13new_allocatorISt13_Rb_tree_nodeISt4pairIKmmEEE10deallocateEPS5_m
FNDA:0,_ZN9__gnu_cxx13new_allocatorISt13_Rb_tree_nodeISt4pairIKmmEEE10deallocateEPS5_m
FN:132,_ZN9__gnu_cxx13new_allocatorImE10deallocateEPmm
FNDA:0,_ZN9__gnu_cxx13new_allocatorImE10deallocateEPmm
FN:132,_ZN9__gnu_cxx13new_allocatorISt6vectorImSaImEEE10deallocateEPS3_m
FNDA:0,_ZN9__gnu_cxx13new_allocatorISt6vectorImSaImEEE10deallocateEPS3_m
FN:132,_ZN9__gnu_cxx13new_allocatorI4EdgeE10deallocateEPS1_m
FNDA:0,_ZN9__gnu_cxx13new_allocatorI4EdgeE10deallocateEPS1_m
FN:154,_ZNK9__gnu_cxx13new_allocatorI4EdgeE8max_sizeEv
FNDA:0,_ZNK9__gnu_cxx13new_allocatorI4EdgeE8max_sizeEv
FN:160,_ZN9__gnu_cxx13new_allocatorI4EdgeE9constructIS1_JRKS1_EEEvPT_DpOT0_
FNDA:0,_ZN9__gnu_cxx13new_allocatorI4EdgeE9constructIS1_JRKS1_EEEvPT_DpOT0_
FN:166,_ZN9__gnu_cxx13new_allocatorISt13_Rb_tree_nodeISt4pairIKmmEEE7destroyIS4_EEvPT_
FNDA:0,_ZN9__gnu_cxx13new_allocatorISt13_Rb_tree_nodeISt4pairIKmmEEE7destroyIS4_EEvPT_
FN:166,_ZN9__gnu_cxx13new_allocatorI4EdgeE7destroyIS1_EEvPT_
FNDA:0,_ZN9__gnu_cxx13new_allocatorI4EdgeE7destroyIS1_EEvPT_
FN:197,_ZNK9__gnu_cxx13new_allocatorI4EdgeE11_M_max_sizeEv
FNDA:0,_ZNK9__gnu_cxx13new_allocatorI4EdgeE11_M_max_sizeEv
FN:197,_ZNK9__gnu_cxx13new_allocatorISt6vectorImSaImEEE11_M_max_sizeEv
FNDA:0,_ZNK9__gnu_cxx13new_allocatorISt6vectorImSaImEEE11_M_max_sizeEv
FN:197,_ZNK9__gnu_cxx13new_allocatorImE11_M_max_sizeEv
FNDA:0,_ZNK9__gnu_cxx13new_allocatorImE11_M_max_sizeEv
DA:79,0
DA:79,0
DA:82,0
DA:82,0
DA:89,0
DA:89,0
DA:89,0
DA:89,0
DA:103,0
DA:111,0
DA:115,0
DA:116,0
DA:117,0
DA:127,0
DA:103,0
DA:111,0
DA:115,0
DA:116,0
DA:117,0
DA:127,0
DA:103,0
DA:111,0
DA:115,0
DA:116,0
DA:117,0
DA:127,0
DA:132,0
DA:145,0
DA:132,0
DA:145,0
DA:132,0
DA:145,0
DA:132,0
DA:145,0
DA:154,0
DA:155,0
DA:160,0
DA:162,0
DA:166,0
DA:168,0
DA:166,0
DA:168,0
DA:197,0
DA:200,0
DA:197,0
DA:200,0
DA:197,0
DA:200,0
end_of_record
SF:/home/imri/OS-FinalProject/GraphObj/edge.hpp
end_of_record
SF:/home/imri/OS-FinalProject/MST/MST_Strategy.hpp
FN:8,_ZN12MST_StrategyD0Ev
FNDA:0,_ZN12MST_StrategyD0Ev
FN:8,_ZN12MST_StrategyD2Ev
FNDA:0,_ZN12MST_StrategyD2Ev
DA:8,0
DA:8,0
end_of_record
SF:/usr/include/c++/11/bits/stl_pair.h
end_of_record
SF:/usr/include/c++/11/bits/stl_construct.h
FN:109,_ZSt10_ConstructI4EdgeJRKS0_EEvPT_DpOT0_
FNDA:0,_ZSt10_ConstructI4EdgeJRKS0_EEvPT_DpOT0_
FN:109,_ZSt10_ConstructISt6vectorImSaImEEJRKS2_EEvPT_DpOT0_
FNDA:0,_ZSt10_ConstructISt6vectorImSaImEEJRKS2_EEvPT_DpOT0_
FN:146,_ZSt8_DestroyISt6vectorImSaImEEEvPT_
FNDA:0,_ZSt8_DestroyISt6vectorImSaImEEEvPT_
FN:146,_ZSt8_DestroyI4EdgeEvPT_
FNDA:0,_ZSt8_DestroyI4EdgeEvPT_
FN:160,_ZNSt12_Destroy_auxILb0EE9__destroyIPSt6vectorImSaImEEEEvT_S6_
FNDA:0,_ZNSt12_Destroy_auxILb0EE9__destroyIPSt6vectorImSaImEEEEvT_S6_
FN:160,_ZNSt12_Destroy_auxILb0EE9__destroyIP4EdgeEEvT_S4_
FNDA:0,_ZNSt12_Destroy_auxILb0EE9__destroyIP4EdgeEEvT_S4_
FN:172,_ZNSt12_Destroy_auxILb1EE9__destroyIPmEEvT_S3_
FNDA:0,_ZNSt12_Destroy_auxILb1EE9__destroyIPmEEvT_S3_
FN:182,_ZSt8_DestroyIPSt6vectorImSaImEEEvT_S4_
FNDA:0,_ZSt8_DestroyIPSt6vectorImSaImEEEvT_S4_
FN:182,_ZSt8_DestroyIPmEvT_S1_
FNDA:0,_ZSt8_DestroyIPmEvT_S1_
FN:182,_ZSt8_DestroyIP4EdgeEvT_S2_
FNDA:0,_ZSt8_DestroyIP4EdgeEvT_S2_
DA:109,0
DA:119,0
DA:120,0
DA:109,0
DA:119,0
DA:120,0
DA:146,0
DA:151,0
DA:153,0
DA:146,0
DA:151,0
DA:153,0
DA:160,0
DA:162,0
DA:163,0
DA:164,0
DA:160,0
DA:162,0
DA:163,0
DA:164,0
DA:172,0
DA:182,0
DA:196,0
DA:197,0
DA:182,0
DA:196,0
DA:197,0
DA:182,0
DA:196,0
DA:197,0
end_of_record
SF:/usr/include/c++/11/bits/stl_uninitialized.h
FN:85,_ZNSt20__uninitialized_copyILb0EE13__uninit_copyIPK4EdgePS2_EET0_T_S7_S6_
FNDA:0,_ZNSt20__uninitialized_copyILb0EE13__uninit_copyIPK4EdgePS2_EET0_T_S7_S6_
FN:85,_ZNSt20__uninitialized_copyILb0EE13__uninit_copyIN9__gnu_cxx17__normal_iteratorIPKSt6vectorImSaImEES4_IS6_SaIS6_EEEEPS6_EET0_T_SE_SD_
FNDA:0,_ZNSt20__uninitialized_copyILb0EE13__uninit_copyIN9__gnu_cxx17__normal_iteratorIPKSt6vectorImSaImEES4_IS6_SaIS6_EEEEPS6_EET0_T_SE_SD_
FN:108,_ZNSt20__uninitialized_copyILb1EE13__uninit_copyIN9__gnu_cxx17__normal_iteratorIPKmSt6vectorImSaImEEEEPmEET0_T_SC_SB_
FNDA:0,_ZNSt20__uninitialized_copyILb1EE13__uninit_copyIN9__gnu_cxx17__normal_iteratorIPKmSt6vectorImSaImEEEEPmEET0_T_SC_SB_
FN:126,_ZSt18uninitialized_copyIN9__gnu_cxx17__normal_iteratorIPKmSt6vectorImSaImEEEEPmET0_T_SA_S9_
FNDA:0,_ZSt18uninitialized_copyIN9__gnu_cxx17__normal_iteratorIPKmSt6vectorImSaImEEEEPmET0_T_SA_S9_
FN:126,_ZSt18uninitialized_copyIPK4EdgePS0_ET0_T_S5_S4_
FNDA:0,_ZSt18uninitialized_copyIPK4EdgePS0_ET0_T_S5_S4_
FN:126,_ZSt18uninitialized_copyIN9__gnu_cxx17__normal_iteratorIPKSt6vectorImSaImEES2_IS4_SaIS4_EEEEPS4_ET0_T_SC_SB_
FNDA:0,_ZSt18uninitialized_copyIN9__gnu_cxx17__normal_iteratorIPKSt6vectorImSaImEES2_IS4_SaIS4_EEEEPS4_ET0_T_SC_SB_
FN:331,_ZSt22__uninitialized_copy_aIN9__gnu_cxx17__normal_iteratorIPKmSt6vectorImSaImEEEEPmmET0_T_SA_S9_RSaIT1_E
FNDA:0,_ZSt22__uninitialized_copy_aIN9__gnu_cxx17__normal_iteratorIPKmSt6vectorImSaImEEEEPmmET0_T_SA_S9_RSaIT1_E
FN:331,_ZSt22__uninitialized_copy_aIPK4EdgePS0_S0_ET0_T_S5_S4_RSaIT1_E
FNDA:0,_ZSt22__uninitialized_copy_aIPK4EdgePS0_S0_ET0_T_S5_S4_RSaIT1_E
FN:331,_ZSt22__uninitialized_copy_aIN9__gnu_cxx17__normal_iteratorIPKSt6vectorImSaImEES2_IS4_SaIS4_EEEEPS4_S4_ET0_T_SC_SB_RSaIT1_E
FNDA:0,_ZSt22__uninitialized_copy_aIN9__gnu_cxx17__normal_iteratorIPKSt6vectorImSaImEES2_IS4_SaIS4_EEEEPS4_S4_ET0_T_SC_SB_RSaIT1_E
FN:349,_ZSt34__uninitialized_move_if_noexcept_aIP4EdgeS1_SaIS0_EET0_T_S4_S3_RT1_
FNDA:0,_ZSt34__uninitialized_move_if_noexcept_aIP4EdgeS1_SaIS0_EET0_T_S4_S3_RT1_
DA:85,0
DA:88,0
DA:91,0
DA:92,0
DA:93,0
DA:95,0
DA:97,0
DA:98,0
DA:85,0
DA:88,0
DA:91,0
DA:92,0
DA:93,0
DA:95,0
DA:97,0
DA:98,0
DA:108,0
DA:110,0
DA:126,0
DA:145,0
DA:151,0
DA:126,0
DA:145,0
DA:151,0
DA:126,0
DA:145,0
DA:151,0
DA:331,0
DA:333,0
DA:331,0
DA:333,0
DA:331,0
DA:333,0
DA:349,0
DA:355,0
DA:356,0
end_of_record
SF:/usr/include/c++/11/bits/alloc_traits.h
FN:463,_ZNSt16allocator_traitsISaImEE8allocateERS0_m
FNDA:0,_ZNSt16allocator_traitsISaImEE8allocateERS0_m
FN:463,_ZNSt16allocator_traitsISaISt6vectorImSaImEEEE8allocateERS3_m
FNDA:0,_ZNSt16allocator_traitsISaISt6vectorImSaImEEEE8allocateERS3_m
FN:463,_ZNSt16allocator_traitsISaI4EdgeEE8allocateERS1_m
FNDA:0,_ZNSt16allocator_traitsISaI4EdgeEE8allocateERS1_m
FN:495,_ZNSt16allocator_traitsISaISt13_Rb_tree_nodeISt4pairIKmmEEEE10deallocateERS5_PS4_m
FNDA:0,_ZNSt16allocator_traitsISaISt13_Rb_tree_nodeISt4pairIKmmEEEE10deallocateERS5_PS4_m
FN:495,_ZNSt16allocator_traitsISaImEE10deallocateERS0_Pmm
FNDA:0,_ZNSt16allocator_traitsISaImEE10deallocateERS0_Pmm
FN:495,_ZNSt16allocator_traitsISaI4EdgeEE10deallocateERS1_PS0_m
FNDA:0,_ZNSt16allocator_traitsISaI4EdgeEE10deallocateERS1_PS0_m
FN:495,_ZNSt16allocator_traitsISaISt6vectorImSaImEEEE10deallocateERS3_PS2_m
FNDA:0,_ZNSt16allocator_traitsISaISt6vectorImSaImEEEE10deallocateERS3_PS2_m
FN:511,_ZNSt16allocator_traitsISaI4EdgeEE9constructIS0_JRKS0_EEEvRS1_PT_DpOT0_
FNDA:0,_ZNSt16allocator_traitsISaI4EdgeEE9constructIS0_JRKS0_EEEvRS1_PT_DpOT0_
FN:531,_ZNSt16allocator_traitsISaISt13_Rb_tree_nodeISt4pairIKmmEEEE7destroyIS3_EEvRS5_PT_
FNDA:0,_ZNSt16allocator_traitsISaISt13_Rb_tree_nodeISt4pairIKmmEEEE7destroyIS3_EEvRS5_PT_
FN:531,_ZNSt16allocator_traitsISaI4EdgeEE7destroyIS0_EEvRS1_PT_
FNDA:0,_ZNSt16allocator_traitsISaI4EdgeEE7destroyIS0_EEvRS1_PT_
FN:547,_ZNSt16allocator_traitsISaI4EdgeEE8max_sizeERKS1_
FNDA:0,_ZNSt16allocator_traitsISaI4EdgeEE8max_sizeERKS1_
FN:562,_ZNSt16allocator_traitsISaImEE37select_on_container_copy_constructionERKS0_
FNDA:0,_ZNSt16allocator_traitsISaImEE37select_on_container_copy_constructionERKS0_
FN:562,_ZNSt16allocator_traitsISaISt6vectorImSaImEEEE37select_on_container_copy_constructionERKS3_
FNDA:0,_ZNSt16allocator_traitsISaISt6vectorImSaImEEEE37select_on_container_copy_constructionERKS3_
FN:710,_ZSt15__alloc_on_moveISaISt6vectorImSaImEEEEvRT_S5_
FNDA:0,_ZSt15__alloc_on_moveISaISt6vectorImSaImEEEEvRT_S5_
FN:845,_ZSt8_DestroyIPSt6vectorImSaImEES2_EvT_S4_RSaIT0_E
FNDA:0,_ZSt8_DestroyIPSt6vectorImSaImEES2_EvT_S4_RSaIT0_E
FN:845,_ZSt8_DestroyIPmmEvT_S1_RSaIT0_E
FNDA:0,_ZSt8_DestroyIPmmEvT_S1_RSaIT0_E
FN:845,_ZSt8_DestroyIP4EdgeS0_EvT_S2_RSaIT0_E
FNDA:0,_ZSt8_DestroyIP4EdgeS0_EvT_S2_RSaIT0_E
DA:463,0
DA:464,0
DA:463,0
DA:464,0
DA:463,0
DA:464,0
DA:495,0
DA:496,0
DA:495,0
DA:496,0
DA:495,0
DA:496,0
DA:495,0
DA:496,0
DA:511,0
DA:516,0
DA:520,0
DA:531,0
DA:535,0
DA:539,0
DA:531,0
DA:535,0
DA:539,0
DA:547,0
DA:550,0
DA:562,0
DA:563,0
DA:562,0
DA:563,0
DA:710,0
DA:716,0
DA:720,0
DA:845,0
DA:848,0
DA:849,0
DA:845,0
DA:848,0
DA:849,0
DA:845,0
DA:848,0
DA:849,0
end_of_record
SF:/usr/include/c++/11/bits/stl_vector.h
FN:97,_ZNSt12_Vector_baseImSaImEE17_Vector_impl_dataC2Ev
FNDA:0,_ZNSt12_Vector_baseImSaImEE17_Vector_impl_dataC2Ev
FN:97,_ZNSt12_Vector_baseI4EdgeSaIS0_EE17_Vector_impl_dataC2Ev
FNDA:0,_ZNSt12_Vector_baseI4EdgeSaIS0_EE17_Vector_impl_dataC2Ev
FN:97,_ZNSt12_Vector_baseISt6vectorImSaImEESaIS2_EE17_Vector_impl_dataC2Ev
FNDA:0,_ZNSt12_Vector_baseISt6vectorImSaImEESaIS2_EE17_Vector_impl_dataC2Ev
FN:109,_ZNSt12_Vector_baseISt6vectorImSaImEESaIS2_EE17_Vector_impl_data12_M_copy_dataERKS5_
FNDA:0,_ZNSt12_Vector_baseISt6vectorImSaImEESaIS2_EE17_Vector_impl_data12_M_copy_dataERKS5_
FN:117,_ZNSt12_Vector_baseISt6vectorImSaImEESaIS2_EE17_Vector_impl_data12_M_swap_dataERS5_
FNDA:0,_ZNSt12_Vector_baseISt6vectorImSaImEESaIS2_EE17_Vector_impl_data12_M_swap_dataERS5_
FN:131,_ZNSt12_Vector_baseI4EdgeSaIS0_EE12_Vector_implC2Ev
FNDA:0,_ZNSt12_Vector_baseI4EdgeSaIS0_EE12_Vector_implC2Ev
FN:131,_ZNSt12_Vector_baseISt6vectorImSaImEESaIS2_EE12_Vector_implC2Ev
FNDA:0,_ZNSt12_Vector_baseISt6vectorImSaImEESaIS2_EE12_Vector_implC2Ev
FN:136,_ZNSt12_Vector_baseISt6vectorImSaImEESaIS2_EE12_Vector_implC2ERKS3_
FNDA:0,_ZNSt12_Vector_baseISt6vectorImSaImEESaIS2_EE12_Vector_implC2ERKS3_
FN:136,_ZNSt12_Vector_baseImSaImEE12_Vector_implC2ERKS0_
FNDA:0,_ZNSt12_Vector_baseImSaImEE12_Vector_implC2ERKS0_
FN:276,_ZNSt12_Vector_baseImSaImEE19_M_get_Tp_allocatorEv
FNDA:0,_ZNSt12_Vector_baseImSaImEE19_M_get_Tp_allocatorEv
FN:276,_ZNSt12_Vector_baseISt6vectorImSaImEESaIS2_EE19_M_get_Tp_allocatorEv
FNDA:0,_ZNSt12_Vector_baseISt6vectorImSaImEESaIS2_EE19_M_get_Tp_allocatorEv
FN:276,_ZNSt12_Vector_baseI4EdgeSaIS0_EE19_M_get_Tp_allocatorEv
FNDA:0,_ZNSt12_Vector_baseI4EdgeSaIS0_EE19_M_get_Tp_allocatorEv
FN:280,_ZNKSt12_Vector_baseI4EdgeSaIS0_EE19_M_get_Tp_allocatorEv
FNDA:0,_ZNKSt12_Vector_baseI4EdgeSaIS0_EE19_M_get_Tp_allocatorEv
FN:280,_ZNKSt12_Vector_baseISt6vectorImSaImEESaIS2_EE19_M_get_Tp_allocatorEv
FNDA:0,_ZNKSt12_Vector_baseISt6vectorImSaImEESaIS2_EE19_M_get_Tp_allocatorEv
FN:280,_ZNKSt12_Vector_baseImSaImEE19_M_get_Tp_allocatorEv
FNDA:0,_ZNKSt12_Vector_baseImSaImEE19_M_get_Tp_allocatorEv
FN:284,_ZNKSt12_Vector_baseISt6vectorImSaImEESaIS2_EE13get_allocatorEv
FNDA:0,_ZNKSt12_Vector_baseISt6vectorImSaImEESaIS2_EE13get_allocatorEv
FN:288,_ZNSt12_Vector_baseI4EdgeSaIS0_EEC2Ev
FNDA:0,_ZNSt12_Vector_baseI4EdgeSaIS0_EEC2Ev
FN:288,_ZNSt12_Vector_baseISt6vectorImSaImEESaIS2_EEC2Ev
FNDA:0,_ZNSt12_Vector_baseISt6vectorImSaImEESaIS2_EEC2Ev
FN:293,_ZNSt12_Vector_baseISt6vectorImSaImEESaIS2_EEC2ERKS3_
FNDA:0,_ZNSt12_Vector_baseISt6vectorImSaImEESaIS2_EEC2ERKS3_
FN:303,_ZNSt12_Vector_baseImSaImEEC2EmRKS0_
FNDA:0,_ZNSt12_Vector_baseImSaImEEC2EmRKS0_
FN:303,_ZNSt12_Vector_baseISt6vectorImSaImEESaIS2_EEC2EmRKS3_
FNDA:0,_ZNSt12_Vector_baseISt6vectorImSaImEESaIS2_EEC2EmRKS3_
FN:333,_ZNSt12_Vector_baseI4EdgeSaIS0_EED2Ev
FNDA:0,_ZNSt12_Vector_baseI4EdgeSaIS0_EED2Ev
FN:333,_ZNSt12_Vector_baseISt6vectorImSaImEESaIS2_EED2Ev
FNDA:0,_ZNSt12_Vector_baseISt6vectorImSaImEESaIS2_EED2Ev
FN:333,_ZNSt12_Vector_baseImSaImEED2Ev
FNDA:0,_ZNSt12_Vector_baseImSaImEED2Ev
FN:343,_ZNSt12_Vector_baseImSaImEE11_M_allocateEm
FNDA:0,_ZNSt12_Vector_baseImSaImEE11_M_allocateEm
FN:343,_ZNSt12_Vector_baseISt6vectorImSaImEESaIS2_EE11_M_allocateEm
FNDA:0,_ZNSt12_Vector_baseISt6vectorImSaImEESaIS2_EE11_M_allocateEm
FN:343,_ZNSt12_Vector_baseI4EdgeSaIS0_EE11_M_allocateEm
FNDA:0,_ZNSt12_Vector_baseI4EdgeSaIS0_EE11_M_allocateEm
FN:350,_ZNSt12_Vector_baseI4EdgeSaIS0_EE13_M_deallocateEPS0_m
FNDA:0,_ZNSt12_Vector_baseI4EdgeSaIS0_EE13_M_deallocateEPS0_m
FN:350,_ZNSt12_Vector_baseImSaImEE13_M_deallocateEPmm
FNDA:0,_ZNSt12_Vector_baseImSaImEE13_M_deallocateEPmm
FN:350,_ZNSt12_Vector_baseISt6vectorImSaImEESaIS2_EE13_M_deallocateEPS2_m
FNDA:0,_ZNSt12_Vector_baseISt6vectorImSaImEESaIS2_EE13_M_deallocateEPS2_m
FN:359,_ZNSt12_Vector_baseISt6vectorImSaImEESaIS2_EE17_M_create_storageEm
FNDA:0,_ZNSt12_Vector_baseISt6vectorImSaImEESaIS2_EE17_M_create_storageEm
FN:359,_ZNSt12_Vector_baseImSaImEE17_M_create_storageEm
FNDA:0,_ZNSt12_Vector_baseImSaImEE17_M_create_storageEm
FN:487,_ZNSt6vectorIS_ImSaImEESaIS1_EEC2Ev
FNDA:0,_ZNSt6vectorIS_ImSaImEESaIS1_EEC2Ev
FN:487,_ZNSt6vectorI4EdgeSaIS0_EEC2Ev
FNDA:0,_ZNSt6vectorI4EdgeSaIS0_EEC2Ev
FN:497,_ZNSt6vectorIS_ImSaImEESaIS1_EEC2ERKS2_
FNDA:0,_ZNSt6vectorIS_ImSaImEESaIS1_EEC2ERKS2_
FN:553,_ZNSt6vectorImSaImEEC2ERKS1_
FNDA:0,_ZNSt6vectorImSaImEEC2ERKS1_
FN:553,_ZNSt6vectorIS_ImSaImEESaIS1_EEC2ERKS3_
FNDA:0,_ZNSt6vectorIS_ImSaImEESaIS1_EEC2ERKS3_
FN:678,_ZNSt6vectorI4EdgeSaIS0_EED2Ev
FNDA:0,_ZNSt6vectorI4EdgeSaIS0_EED2Ev
FN:678,_ZNSt6vectorImSaImEED2Ev
FNDA:0,_ZNSt6vectorImSaImEED2Ev
FN:678,_ZNSt6vectorIS_ImSaImEESaIS1_EED2Ev
FNDA:0,_ZNSt6vectorIS_ImSaImEESaIS1_EED2Ev
FN:709,_ZNSt6vectorIS_ImSaImEESaIS1_EEaSEOS3_
FNDA:0,_ZNSt6vectorIS_ImSaImEESaIS1_EEaSEOS3_
FN:811,_ZNSt6vectorI4EdgeSaIS0_EE5beginEv
FNDA:0,_ZNSt6vectorI4EdgeSaIS0_EE5beginEv
FN:820,_ZNKSt6vectorIS_ImSaImEESaIS1_EE5beginEv
FNDA:0,_ZNKSt6vectorIS_ImSaImEESaIS1_EE5beginEv
FN:820,_ZNKSt6vectorImSaImEE5beginEv
FNDA:0,_ZNKSt6vectorImSaImEE5beginEv
FN:829,_ZNSt6vectorI4EdgeSaIS0_EE3endEv
FNDA:0,_ZNSt6vectorI4EdgeSaIS0_EE3endEv
FN:838,_ZNKSt6vectorImSaImEE3endEv
FNDA:0,_ZNKSt6vectorImSaImEE3endEv
FN:838,_ZNKSt6vectorIS_ImSaImEESaIS1_EE3endEv
FNDA:0,_ZNKSt6vectorIS_ImSaImEESaIS1_EE3endEv
FN:918,_ZNKSt6vectorImSaImEE4sizeEv
FNDA:0,_ZNKSt6vectorImSaImEE4sizeEv
FN:918,_ZNKSt6vectorIS_ImSaImEESaIS1_EE4sizeEv
FNDA:0,_ZNKSt6vectorIS_ImSaImEESaIS1_EE4sizeEv
FN:918,_ZNKSt6vectorI4EdgeSaIS0_EE4sizeEv
FNDA:0,_ZNKSt6vectorI4EdgeSaIS0_EE4sizeEv
FN:923,_ZNKSt6vectorI4EdgeSaIS0_EE8max_sizeEv
FNDA:0,_ZNKSt6vectorI4EdgeSaIS0_EE8max_sizeEv
FN:1187,_ZNSt6vectorI4EdgeSaIS0_EE9push_backERKS0_
FNDA:0,_ZNSt6vectorI4EdgeSaIS0_EE9push_backERKS0_
FN:1756,_ZNKSt6vectorI4EdgeSaIS0_EE12_M_check_lenEmPKc
FNDA:0,_ZNKSt6vectorI4EdgeSaIS0_EE12_M_check_lenEmPKc
FN:1776,_ZNSt6vectorI4EdgeSaIS0_EE11_S_max_sizeERKS1_
FNDA:0,_ZNSt6vectorI4EdgeSaIS0_EE11_S_max_sizeERKS1_
FN:1815,_ZNSt6vectorIS_ImSaImEESaIS1_EE14_M_move_assignEOS3_St17integral_constantIbLb1EE
FNDA:0,_ZNSt6vectorIS_ImSaImEESaIS1_EE14_M_move_assignEOS3_St17integral_constantIbLb1EE
DA:97,0
DA:98,0
DA:99,0
DA:97,0
DA:98,0
DA:99,0
DA:97,0
DA:98,0
DA:99,0
DA:109,0
DA:111,0
DA:112,0
DA:113,0
DA:114,0
DA:117,0
DA:121,0
DA:122,0
DA:123,0
DA:124,0
DA:125,0
DA:131,0
DA:133,0
DA:134,0
DA:131,0
DA:133,0
DA:134,0
DA:136,0
DA:137,0
DA:138,0
DA:136,0
DA:137,0
DA:138,0
DA:276,0
DA:277,0
DA:276,0
DA:277,0
DA:276,0
DA:277,0
DA:280,0
DA:281,0
DA:280,0
DA:281,0
DA:280,0
DA:281,0
DA:284,0
DA:285,0
DA:288,0
DA:288,0
DA:293,0
DA:294,0
DA:303,0
DA:304,0
DA:305,0
DA:303,0
DA:304,0
DA:305,0
DA:333,0
DA:335,0
DA:336,0
DA:337,0
DA:333,0
DA:335,0
DA:336,0
DA:337,0
DA:333,0
DA:335,0
DA:336,0
DA:337,0
DA:343,0
DA:346,0
DA:343,0
DA:346,0
DA:343,0
DA:346,0
DA:350,0
DA:353,0
DA:354,0
DA:355,0
DA:350,0
DA:353,0
DA:354,0
DA:355,0
DA:350,0
DA:353,0
DA:354,0
DA:355,0
DA:359,0
DA:361,0
DA:362,0
DA:363,0
DA:364,0
DA:359,0
DA:361,0
DA:362,0
DA:363,0
DA:364,0
DA:487,0
DA:487,0
DA:497,0
DA:498,0
DA:553,0
DA:555,0
DA:557,0
DA:558,0
DA:560,0
DA:561,0
DA:553,0
DA:555,0
DA:557,0
DA:558,0
DA:560,0
DA:561,0
DA:678,0
DA:680,0
DA:681,0
DA:683,0
DA:678,0
DA:680,0
DA:681,0
DA:683,0
DA:678,0
DA:680,0
DA:681,0
DA:683,0
DA:709,0
DA:711,0
DA:714,0
DA:715,0
DA:811,0
DA:812,0
DA:820,0
DA:821,0
DA:820,0
DA:821,0
DA:829,0
DA:830,0
DA:838,0
DA:839,0
DA:838,0
DA:839,0
DA:918,0
DA:919,0
DA:918,0
DA:919,0
DA:918,0
DA:919,0
DA:923,0
DA:924,0
DA:1187,0
DA:1189,0
DA:1192,0
DA:1194,0
DA:1198,0
DA:1199,0
DA:1756,0
DA:1758,0
DA:1759,0
DA:1761,0
DA:1762,0
DA:1776,0
DA:1781,0
DA:1783,0
DA:1784,0
DA:1815,0
DA:1817,0
DA:1818,0
DA:1819,0
DA:1820,0
DA:1821,0
end_of_record
SF:/usr/include/c++/11/bits/cpp_type_traits.h
FN:560,_ZSt12__miter_baseIN9__gnu_cxx17__normal_iteratorIPKmSt6vectorImSaImEEEEET_S8_
FNDA:0,_ZSt12__miter_baseIN9__gnu_cxx17__normal_iteratorIPKmSt6vectorImSaImEEEEET_S8_
FN:560,_ZSt12__miter_baseIN9__gnu_cxx17__normal_iteratorIP4EdgeSt6vectorIS2_SaIS2_EEEEET_S8_
FNDA:0,_ZSt12__miter_baseIN9__gnu_cxx17__normal_iteratorIP4EdgeSt6vectorIS2_SaIS2_EEEEET_S8_
DA:560,0
DA:561,0
DA:560,0
DA:561,0
end_of_record
SF:/usr/include/c++/11/new
FN:174,_ZnwmPv
FNDA:0,_ZnwmPv
FN:180,_ZdlPvS_
FNDA:0,_ZdlPvS_
DA:174,0
DA:175,0
DA:180,0
end_of_record
SF:/usr/include/c++/11/bits/predefined_ops.h
FN:44,_ZNK9__gnu_cxx5__ops15_Iter_less_iterclINS_17__normal_iteratorIP4EdgeSt6vectorIS4_SaIS4_EEEES9_EEbT_T0_
FNDA:0,_ZNK9__gnu_cxx5__ops15_Iter_less_iterclINS_17__normal_iteratorIP4EdgeSt6vectorIS4_SaIS4_EEEES9_EEbT_T0_
FN:50,_ZN9__gnu_cxx5__ops16__iter_less_iterEv
FNDA:0,_ZN9__gnu_cxx5__ops16__iter_less_iterEv
FN:63,_ZN9__gnu_cxx5__ops14_Iter_less_valC2ENS0_15_Iter_less_iterE
FNDA:0,_ZN9__gnu_cxx5__ops14_Iter_less_valC2ENS0_15_Iter_less_iterE
FN:68,_ZNK9__gnu_cxx5__ops14_Iter_less_valclINS_17__normal_iteratorIP4EdgeSt6vectorIS4_SaIS4_EEEES4_EEbT_RT0_
FNDA:0,_ZNK9__gnu_cxx5__ops14_Iter_less_valclINS_17__normal_iteratorIP4EdgeSt6vectorIS4_SaIS4_EEEES4_EEbT_RT0_
FN:97,_ZNK9__gnu_cxx5__ops14_Val_less_iterclI4EdgeNS_17__normal_iteratorIPS3_St6vectorIS3_SaIS3_EEEEEEbRT_T0_
FNDA:0,_ZNK9__gnu_cxx5__ops14_Val_less_iterclI4EdgeNS_17__normal_iteratorIPS3_St6vectorIS3_SaIS3_EEEEEEbRT_T0_
FN:108,_ZN9__gnu_cxx5__ops15__val_comp_iterENS0_15_Iter_less_iterE
FNDA:0,_ZN9__gnu_cxx5__ops15__val_comp_iterENS0_15_Iter_less_iterE
DA:44,0
DA:45,0
DA:50,0
DA:51,0
DA:63,0
DA:68,0
DA:69,0
DA:97,0
DA:98,0
DA:108,0
DA:109,0
end_of_record
SF:/home/imri/OS-FinalProject/MST/Kruskal.hpp
